Archive member included to satisfy reference by file (symbol)

/home/slombardo/projects/BadgersRunFirmware/Build/core/core.a(gcc_startup_nrf52.S.o)
                              (Reset_Handler)
/home/slombardo/projects/BadgersRunFirmware/Build/core/core.a(delay.c.o)
                              /home/slombardo/projects/BadgersRunFirmware/Build/sketch/keyboard.ino.cpp.o (delay)
/home/slombardo/projects/BadgersRunFirmware/Build/core/core.a(tasks.c.o)
                              /home/slombardo/projects/BadgersRunFirmware/Build/core/core.a(delay.c.o) (xTaskGetTickCount)
/home/slombardo/projects/BadgersRunFirmware/Build/core/core.a(timers.c.o)
                              /home/slombardo/projects/BadgersRunFirmware/Build/core/core.a(tasks.c.o) (xTimerCreateTimerTask)
/home/slombardo/projects/BadgersRunFirmware/Build/core/core.a(port_cmsis.c.o)
                              /home/slombardo/projects/BadgersRunFirmware/Build/core/core.a(tasks.c.o) (pxPortInitialiseStack)
/home/slombardo/projects/BadgersRunFirmware/Build/core/core.a(port_cmsis_systick.c.o)
                              /home/slombardo/projects/BadgersRunFirmware/Build/core/core.a(port_cmsis.c.o) (vPortSetupTimerInterrupt)
/home/slombardo/projects/BadgersRunFirmware/Build/core/core.a(port.c.o)
                              /home/slombardo/projects/BadgersRunFirmware/Build/core/core.a(port_cmsis.c.o) (vPortStartFirstTask)
/home/slombardo/projects/BadgersRunFirmware/Build/core/core.a(hooks.c.o)
                              /home/slombardo/projects/BadgersRunFirmware/Build/core/core.a(tasks.c.o) (vApplicationIdleHook)
/home/slombardo/projects/BadgersRunFirmware/Build/core/core.a(system_nrf52.c.o)
                              /home/slombardo/projects/BadgersRunFirmware/Build/core/core.a(gcc_startup_nrf52.S.o) (SystemInit)
/home/slombardo/projects/BadgersRunFirmware/Build/core/core.a(wiring.c.o)
                              /home/slombardo/projects/BadgersRunFirmware/Build/core/core.a(port_cmsis_systick.c.o) (nrf_nvic_state)
/home/slombardo/projects/BadgersRunFirmware/Build/core/core.a(wiring_digital.c.o)
                              /home/slombardo/projects/BadgersRunFirmware/Build/sketch/keyboard.ino.cpp.o (pinMode)
/home/slombardo/projects/BadgersRunFirmware/Build/core/core.a(Print.cpp.o)
                              /home/slombardo/projects/BadgersRunFirmware/Build/sketch/keyboard.ino.cpp.o (Print::println(int, int))
/home/slombardo/projects/BadgersRunFirmware/Build/core/core.a(Uart.cpp.o)
                              /home/slombardo/projects/BadgersRunFirmware/Build/sketch/keyboard.ino.cpp.o (Uart::begin(unsigned long))
/home/slombardo/projects/BadgersRunFirmware/Build/core/core.a(abi.cpp.o)
                              /home/slombardo/projects/BadgersRunFirmware/Build/core/core.a(Print.cpp.o) (__cxa_pure_virtual)
/home/slombardo/projects/BadgersRunFirmware/Build/core/core.a(main.cpp.o)
                              /home/slombardo/.arduino15/packages/adafruit/tools/arm-none-eabi-gcc/9-2019q4/bin/../lib/gcc/arm-none-eabi/9.2.1/../../../../arm-none-eabi/lib/thumb/v7e-m+fp/hard/crt0.o (main)
/home/slombardo/projects/BadgersRunFirmware/Build/core/core.a(rtos.cpp.o)
                              /home/slombardo/projects/BadgersRunFirmware/Build/core/core.a(tasks.c.o) (vApplicationStackOverflowHook)
/home/slombardo/projects/BadgersRunFirmware/Build/core/core.a(debug.cpp.o)
                              /home/slombardo/projects/BadgersRunFirmware/Build/core/core.a(main.cpp.o) (dbgPrintVersion)
/home/slombardo/projects/BadgersRunFirmware/Build/core/core.a(list.c.o)
                              /home/slombardo/projects/BadgersRunFirmware/Build/core/core.a(tasks.c.o) (vListInitialise)
/home/slombardo/projects/BadgersRunFirmware/Build/core/core.a(heap_3.c.o)
                              /home/slombardo/projects/BadgersRunFirmware/Build/core/core.a(tasks.c.o) (pvPortMalloc)
/home/slombardo/projects/BadgersRunFirmware/Build/core/core.a(queue.c.o)
                              /home/slombardo/projects/BadgersRunFirmware/Build/core/core.a(timers.c.o) (xQueueGenericCreateStatic)
/home/slombardo/projects/BadgersRunFirmware/Build/core/core.a(AdaCallback.c.o)
                              /home/slombardo/projects/BadgersRunFirmware/Build/core/core.a(main.cpp.o) (ada_callback_init)
/home/slombardo/projects/BadgersRunFirmware/Build/core/core.a(utilities.c.o)
                              /home/slombardo/projects/BadgersRunFirmware/Build/core/core.a(debug.cpp.o) (lookup_find)
/home/slombardo/projects/BadgersRunFirmware/Build/core/core.a(RingBuffer.cpp.o)
                              /home/slombardo/projects/BadgersRunFirmware/Build/core/core.a(Uart.cpp.o) (RingBuffer::RingBuffer())
/home/slombardo/.arduino15/packages/adafruit/tools/arm-none-eabi-gcc/9-2019q4/bin/../lib/gcc/arm-none-eabi/9.2.1/../../../../arm-none-eabi/lib/thumb/v7e-m+fp/hard/libc_nano.a(lib_a-exit.o)
                              /home/slombardo/.arduino15/packages/adafruit/tools/arm-none-eabi-gcc/9-2019q4/bin/../lib/gcc/arm-none-eabi/9.2.1/../../../../arm-none-eabi/lib/thumb/v7e-m+fp/hard/crt0.o (exit)
/home/slombardo/.arduino15/packages/adafruit/tools/arm-none-eabi-gcc/9-2019q4/bin/../lib/gcc/arm-none-eabi/9.2.1/../../../../arm-none-eabi/lib/thumb/v7e-m+fp/hard/libc_nano.a(lib_a-impure.o)
                              /home/slombardo/.arduino15/packages/adafruit/tools/arm-none-eabi-gcc/9-2019q4/bin/../lib/gcc/arm-none-eabi/9.2.1/../../../../arm-none-eabi/lib/thumb/v7e-m+fp/hard/libc_nano.a(lib_a-exit.o) (_global_impure_ptr)
/home/slombardo/.arduino15/packages/adafruit/tools/arm-none-eabi-gcc/9-2019q4/bin/../lib/gcc/arm-none-eabi/9.2.1/../../../../arm-none-eabi/lib/thumb/v7e-m+fp/hard/libc_nano.a(lib_a-init.o)
                              /home/slombardo/.arduino15/packages/adafruit/tools/arm-none-eabi-gcc/9-2019q4/bin/../lib/gcc/arm-none-eabi/9.2.1/../../../../arm-none-eabi/lib/thumb/v7e-m+fp/hard/crt0.o (__libc_init_array)
/home/slombardo/.arduino15/packages/adafruit/tools/arm-none-eabi-gcc/9-2019q4/bin/../lib/gcc/arm-none-eabi/9.2.1/../../../../arm-none-eabi/lib/thumb/v7e-m+fp/hard/libc_nano.a(lib_a-isprint.o)
                              /home/slombardo/projects/BadgersRunFirmware/Build/core/core.a(debug.cpp.o) (isprint)
/home/slombardo/.arduino15/packages/adafruit/tools/arm-none-eabi-gcc/9-2019q4/bin/../lib/gcc/arm-none-eabi/9.2.1/../../../../arm-none-eabi/lib/thumb/v7e-m+fp/hard/libc_nano.a(lib_a-malloc.o)
                              /home/slombardo/projects/BadgersRunFirmware/Build/core/core.a(debug.cpp.o) (malloc)
/home/slombardo/.arduino15/packages/adafruit/tools/arm-none-eabi-gcc/9-2019q4/bin/../lib/gcc/arm-none-eabi/9.2.1/../../../../arm-none-eabi/lib/thumb/v7e-m+fp/hard/libc_nano.a(lib_a-memcpy-stub.o)
                              /home/slombardo/projects/BadgersRunFirmware/Build/core/core.a(Uart.cpp.o) (memcpy)
/home/slombardo/.arduino15/packages/adafruit/tools/arm-none-eabi-gcc/9-2019q4/bin/../lib/gcc/arm-none-eabi/9.2.1/../../../../arm-none-eabi/lib/thumb/v7e-m+fp/hard/libc_nano.a(lib_a-memset.o)
                              /home/slombardo/.arduino15/packages/adafruit/tools/arm-none-eabi-gcc/9-2019q4/bin/../lib/gcc/arm-none-eabi/9.2.1/../../../../arm-none-eabi/lib/thumb/v7e-m+fp/hard/crt0.o (memset)
/home/slombardo/.arduino15/packages/adafruit/tools/arm-none-eabi-gcc/9-2019q4/bin/../lib/gcc/arm-none-eabi/9.2.1/../../../../arm-none-eabi/lib/thumb/v7e-m+fp/hard/libc_nano.a(lib_a-mstats.o)
                              /home/slombardo/projects/BadgersRunFirmware/Build/core/core.a(debug.cpp.o) (mallinfo)
/home/slombardo/.arduino15/packages/adafruit/tools/arm-none-eabi-gcc/9-2019q4/bin/../lib/gcc/arm-none-eabi/9.2.1/../../../../arm-none-eabi/lib/thumb/v7e-m+fp/hard/libc_nano.a(lib_a-nano-freer.o)
                              /home/slombardo/.arduino15/packages/adafruit/tools/arm-none-eabi-gcc/9-2019q4/bin/../lib/gcc/arm-none-eabi/9.2.1/../../../../arm-none-eabi/lib/thumb/v7e-m+fp/hard/libc_nano.a(lib_a-malloc.o) (_free_r)
/home/slombardo/.arduino15/packages/adafruit/tools/arm-none-eabi-gcc/9-2019q4/bin/../lib/gcc/arm-none-eabi/9.2.1/../../../../arm-none-eabi/lib/thumb/v7e-m+fp/hard/libc_nano.a(lib_a-nano-mallinfor.o)
                              /home/slombardo/.arduino15/packages/adafruit/tools/arm-none-eabi-gcc/9-2019q4/bin/../lib/gcc/arm-none-eabi/9.2.1/../../../../arm-none-eabi/lib/thumb/v7e-m+fp/hard/libc_nano.a(lib_a-mstats.o) (_mallinfo_r)
/home/slombardo/.arduino15/packages/adafruit/tools/arm-none-eabi-gcc/9-2019q4/bin/../lib/gcc/arm-none-eabi/9.2.1/../../../../arm-none-eabi/lib/thumb/v7e-m+fp/hard/libc_nano.a(lib_a-nano-mallocr.o)
                              /home/slombardo/.arduino15/packages/adafruit/tools/arm-none-eabi-gcc/9-2019q4/bin/../lib/gcc/arm-none-eabi/9.2.1/../../../../arm-none-eabi/lib/thumb/v7e-m+fp/hard/libc_nano.a(lib_a-malloc.o) (_malloc_r)
/home/slombardo/.arduino15/packages/adafruit/tools/arm-none-eabi-gcc/9-2019q4/bin/../lib/gcc/arm-none-eabi/9.2.1/../../../../arm-none-eabi/lib/thumb/v7e-m+fp/hard/libc_nano.a(lib_a-nano-malloptr.o)
                              /home/slombardo/.arduino15/packages/adafruit/tools/arm-none-eabi-gcc/9-2019q4/bin/../lib/gcc/arm-none-eabi/9.2.1/../../../../arm-none-eabi/lib/thumb/v7e-m+fp/hard/libc_nano.a(lib_a-mstats.o) (_mallopt_r)
/home/slombardo/.arduino15/packages/adafruit/tools/arm-none-eabi-gcc/9-2019q4/bin/../lib/gcc/arm-none-eabi/9.2.1/../../../../arm-none-eabi/lib/thumb/v7e-m+fp/hard/libc_nano.a(lib_a-nano-mallstatsr.o)
                              /home/slombardo/.arduino15/packages/adafruit/tools/arm-none-eabi-gcc/9-2019q4/bin/../lib/gcc/arm-none-eabi/9.2.1/../../../../arm-none-eabi/lib/thumb/v7e-m+fp/hard/libc_nano.a(lib_a-mstats.o) (_malloc_stats_r)
/home/slombardo/.arduino15/packages/adafruit/tools/arm-none-eabi-gcc/9-2019q4/bin/../lib/gcc/arm-none-eabi/9.2.1/../../../../arm-none-eabi/lib/thumb/v7e-m+fp/hard/libc_nano.a(lib_a-nano-vfprintf_float.o)
                              (_printf_float)
/home/slombardo/.arduino15/packages/adafruit/tools/arm-none-eabi-gcc/9-2019q4/bin/../lib/gcc/arm-none-eabi/9.2.1/../../../../arm-none-eabi/lib/thumb/v7e-m+fp/hard/libc_nano.a(lib_a-nano-vfprintf_i.o)
                              /home/slombardo/.arduino15/packages/adafruit/tools/arm-none-eabi-gcc/9-2019q4/bin/../lib/gcc/arm-none-eabi/9.2.1/../../../../arm-none-eabi/lib/thumb/v7e-m+fp/hard/libc_nano.a(lib_a-nano-vfprintf_float.o) (_printf_common)
/home/slombardo/.arduino15/packages/adafruit/tools/arm-none-eabi-gcc/9-2019q4/bin/../lib/gcc/arm-none-eabi/9.2.1/../../../../arm-none-eabi/lib/thumb/v7e-m+fp/hard/libc_nano.a(lib_a-printf.o)
                              /home/slombardo/projects/BadgersRunFirmware/Build/core/core.a(rtos.cpp.o) (printf)
/home/slombardo/.arduino15/packages/adafruit/tools/arm-none-eabi-gcc/9-2019q4/bin/../lib/gcc/arm-none-eabi/9.2.1/../../../../arm-none-eabi/lib/thumb/v7e-m+fp/hard/libc_nano.a(lib_a-putchar.o)
                              /home/slombardo/projects/BadgersRunFirmware/Build/core/core.a(rtos.cpp.o) (putchar)
/home/slombardo/.arduino15/packages/adafruit/tools/arm-none-eabi-gcc/9-2019q4/bin/../lib/gcc/arm-none-eabi/9.2.1/../../../../arm-none-eabi/lib/thumb/v7e-m+fp/hard/libc_nano.a(lib_a-puts.o)
                              /home/slombardo/projects/BadgersRunFirmware/Build/core/core.a(debug.cpp.o) (puts)
/home/slombardo/.arduino15/packages/adafruit/tools/arm-none-eabi-gcc/9-2019q4/bin/../lib/gcc/arm-none-eabi/9.2.1/../../../../arm-none-eabi/lib/thumb/v7e-m+fp/hard/libc_nano.a(lib_a-sbrkr.o)
                              /home/slombardo/.arduino15/packages/adafruit/tools/arm-none-eabi-gcc/9-2019q4/bin/../lib/gcc/arm-none-eabi/9.2.1/../../../../arm-none-eabi/lib/thumb/v7e-m+fp/hard/libc_nano.a(lib_a-nano-mallinfor.o) (_sbrk_r)
/home/slombardo/.arduino15/packages/adafruit/tools/arm-none-eabi-gcc/9-2019q4/bin/../lib/gcc/arm-none-eabi/9.2.1/../../../../arm-none-eabi/lib/thumb/v7e-m+fp/hard/libc_nano.a(lib_a-snprintf.o)
                              /home/slombardo/projects/BadgersRunFirmware/Build/core/core.a(Print.cpp.o) (snprintf)
/home/slombardo/.arduino15/packages/adafruit/tools/arm-none-eabi-gcc/9-2019q4/bin/../lib/gcc/arm-none-eabi/9.2.1/../../../../arm-none-eabi/lib/thumb/v7e-m+fp/hard/libc_nano.a(lib_a-sprintf.o)
                              /home/slombardo/projects/BadgersRunFirmware/Build/core/core.a(tasks.c.o) (sprintf)
/home/slombardo/.arduino15/packages/adafruit/tools/arm-none-eabi-gcc/9-2019q4/bin/../lib/gcc/arm-none-eabi/9.2.1/../../../../arm-none-eabi/lib/thumb/v7e-m+fp/hard/libc_nano.a(lib_a-stpcpy.o)
                              /home/slombardo/projects/BadgersRunFirmware/Build/core/core.a(tasks.c.o) (stpcpy)
/home/slombardo/.arduino15/packages/adafruit/tools/arm-none-eabi-gcc/9-2019q4/bin/../lib/gcc/arm-none-eabi/9.2.1/../../../../arm-none-eabi/lib/thumb/v7e-m+fp/hard/libc_nano.a(lib_a-strlen.o)
                              /home/slombardo/projects/BadgersRunFirmware/Build/core/core.a(tasks.c.o) (strlen)
/home/slombardo/.arduino15/packages/adafruit/tools/arm-none-eabi-gcc/9-2019q4/bin/../lib/gcc/arm-none-eabi/9.2.1/../../../../arm-none-eabi/lib/thumb/v7e-m+fp/hard/libc_nano.a(lib_a-vsnprintf.o)
                              /home/slombardo/projects/BadgersRunFirmware/Build/core/core.a(Print.cpp.o) (vsnprintf)
/home/slombardo/.arduino15/packages/adafruit/tools/arm-none-eabi-gcc/9-2019q4/bin/../lib/gcc/arm-none-eabi/9.2.1/../../../../arm-none-eabi/lib/thumb/v7e-m+fp/hard/libc_nano.a(lib_a-wbuf.o)
                              /home/slombardo/.arduino15/packages/adafruit/tools/arm-none-eabi-gcc/9-2019q4/bin/../lib/gcc/arm-none-eabi/9.2.1/../../../../arm-none-eabi/lib/thumb/v7e-m+fp/hard/libc_nano.a(lib_a-puts.o) (__swbuf_r)
/home/slombardo/.arduino15/packages/adafruit/tools/arm-none-eabi-gcc/9-2019q4/bin/../lib/gcc/arm-none-eabi/9.2.1/../../../../arm-none-eabi/lib/thumb/v7e-m+fp/hard/libc_nano.a(lib_a-wsetup.o)
                              /home/slombardo/.arduino15/packages/adafruit/tools/arm-none-eabi-gcc/9-2019q4/bin/../lib/gcc/arm-none-eabi/9.2.1/../../../../arm-none-eabi/lib/thumb/v7e-m+fp/hard/libc_nano.a(lib_a-puts.o) (__swsetup_r)
/home/slombardo/.arduino15/packages/adafruit/tools/arm-none-eabi-gcc/9-2019q4/bin/../lib/gcc/arm-none-eabi/9.2.1/../../../../arm-none-eabi/lib/thumb/v7e-m+fp/hard/libc_nano.a(lib_a-ctype_.o)
                              /home/slombardo/.arduino15/packages/adafruit/tools/arm-none-eabi-gcc/9-2019q4/bin/../lib/gcc/arm-none-eabi/9.2.1/../../../../arm-none-eabi/lib/thumb/v7e-m+fp/hard/libc_nano.a(lib_a-isprint.o) (_ctype_)
/home/slombardo/.arduino15/packages/adafruit/tools/arm-none-eabi-gcc/9-2019q4/bin/../lib/gcc/arm-none-eabi/9.2.1/../../../../arm-none-eabi/lib/thumb/v7e-m+fp/hard/libc_nano.a(lib_a-dtoa.o)
                              /home/slombardo/.arduino15/packages/adafruit/tools/arm-none-eabi-gcc/9-2019q4/bin/../lib/gcc/arm-none-eabi/9.2.1/../../../../arm-none-eabi/lib/thumb/v7e-m+fp/hard/libc_nano.a(lib_a-nano-vfprintf_float.o) (_dtoa_r)
/home/slombardo/.arduino15/packages/adafruit/tools/arm-none-eabi-gcc/9-2019q4/bin/../lib/gcc/arm-none-eabi/9.2.1/../../../../arm-none-eabi/lib/thumb/v7e-m+fp/hard/libc_nano.a(lib_a-fflush.o)
                              /home/slombardo/.arduino15/packages/adafruit/tools/arm-none-eabi-gcc/9-2019q4/bin/../lib/gcc/arm-none-eabi/9.2.1/../../../../arm-none-eabi/lib/thumb/v7e-m+fp/hard/libc_nano.a(lib_a-wbuf.o) (_fflush_r)
/home/slombardo/.arduino15/packages/adafruit/tools/arm-none-eabi-gcc/9-2019q4/bin/../lib/gcc/arm-none-eabi/9.2.1/../../../../arm-none-eabi/lib/thumb/v7e-m+fp/hard/libc_nano.a(lib_a-findfp.o)
                              /home/slombardo/.arduino15/packages/adafruit/tools/arm-none-eabi-gcc/9-2019q4/bin/../lib/gcc/arm-none-eabi/9.2.1/../../../../arm-none-eabi/lib/thumb/v7e-m+fp/hard/libc_nano.a(lib_a-mstats.o) (__sinit)
/home/slombardo/.arduino15/packages/adafruit/tools/arm-none-eabi-gcc/9-2019q4/bin/../lib/gcc/arm-none-eabi/9.2.1/../../../../arm-none-eabi/lib/thumb/v7e-m+fp/hard/libc_nano.a(lib_a-fprintf.o)
                              /home/slombardo/.arduino15/packages/adafruit/tools/arm-none-eabi-gcc/9-2019q4/bin/../lib/gcc/arm-none-eabi/9.2.1/../../../../arm-none-eabi/lib/thumb/v7e-m+fp/hard/libc_nano.a(lib_a-mstats.o) (fiprintf)
/home/slombardo/.arduino15/packages/adafruit/tools/arm-none-eabi-gcc/9-2019q4/bin/../lib/gcc/arm-none-eabi/9.2.1/../../../../arm-none-eabi/lib/thumb/v7e-m+fp/hard/libc_nano.a(lib_a-fwalk.o)
                              /home/slombardo/.arduino15/packages/adafruit/tools/arm-none-eabi-gcc/9-2019q4/bin/../lib/gcc/arm-none-eabi/9.2.1/../../../../arm-none-eabi/lib/thumb/v7e-m+fp/hard/libc_nano.a(lib_a-findfp.o) (_fwalk)
/home/slombardo/.arduino15/packages/adafruit/tools/arm-none-eabi-gcc/9-2019q4/bin/../lib/gcc/arm-none-eabi/9.2.1/../../../../arm-none-eabi/lib/thumb/v7e-m+fp/hard/libc_nano.a(lib_a-localeconv.o)
                              /home/slombardo/.arduino15/packages/adafruit/tools/arm-none-eabi-gcc/9-2019q4/bin/../lib/gcc/arm-none-eabi/9.2.1/../../../../arm-none-eabi/lib/thumb/v7e-m+fp/hard/libc_nano.a(lib_a-nano-vfprintf_float.o) (_localeconv_r)
/home/slombardo/.arduino15/packages/adafruit/tools/arm-none-eabi-gcc/9-2019q4/bin/../lib/gcc/arm-none-eabi/9.2.1/../../../../arm-none-eabi/lib/thumb/v7e-m+fp/hard/libc_nano.a(lib_a-lock.o)
                              /home/slombardo/.arduino15/packages/adafruit/tools/arm-none-eabi-gcc/9-2019q4/bin/../lib/gcc/arm-none-eabi/9.2.1/../../../../arm-none-eabi/lib/thumb/v7e-m+fp/hard/libc_nano.a(lib_a-findfp.o) (__retarget_lock_init_recursive)
/home/slombardo/.arduino15/packages/adafruit/tools/arm-none-eabi-gcc/9-2019q4/bin/../lib/gcc/arm-none-eabi/9.2.1/../../../../arm-none-eabi/lib/thumb/v7e-m+fp/hard/libc_nano.a(lib_a-makebuf.o)
                              /home/slombardo/.arduino15/packages/adafruit/tools/arm-none-eabi-gcc/9-2019q4/bin/../lib/gcc/arm-none-eabi/9.2.1/../../../../arm-none-eabi/lib/thumb/v7e-m+fp/hard/libc_nano.a(lib_a-wsetup.o) (__smakebuf_r)
/home/slombardo/.arduino15/packages/adafruit/tools/arm-none-eabi-gcc/9-2019q4/bin/../lib/gcc/arm-none-eabi/9.2.1/../../../../arm-none-eabi/lib/thumb/v7e-m+fp/hard/libc_nano.a(lib_a-memchr.o)
                              /home/slombardo/.arduino15/packages/adafruit/tools/arm-none-eabi-gcc/9-2019q4/bin/../lib/gcc/arm-none-eabi/9.2.1/../../../../arm-none-eabi/lib/thumb/v7e-m+fp/hard/libc_nano.a(lib_a-nano-vfprintf_i.o) (memchr)
/home/slombardo/.arduino15/packages/adafruit/tools/arm-none-eabi-gcc/9-2019q4/bin/../lib/gcc/arm-none-eabi/9.2.1/../../../../arm-none-eabi/lib/thumb/v7e-m+fp/hard/libc_nano.a(lib_a-mlock.o)
                              /home/slombardo/.arduino15/packages/adafruit/tools/arm-none-eabi-gcc/9-2019q4/bin/../lib/gcc/arm-none-eabi/9.2.1/../../../../arm-none-eabi/lib/thumb/v7e-m+fp/hard/libc_nano.a(lib_a-nano-freer.o) (__malloc_lock)
/home/slombardo/.arduino15/packages/adafruit/tools/arm-none-eabi-gcc/9-2019q4/bin/../lib/gcc/arm-none-eabi/9.2.1/../../../../arm-none-eabi/lib/thumb/v7e-m+fp/hard/libc_nano.a(lib_a-mprec.o)
                              /home/slombardo/.arduino15/packages/adafruit/tools/arm-none-eabi-gcc/9-2019q4/bin/../lib/gcc/arm-none-eabi/9.2.1/../../../../arm-none-eabi/lib/thumb/v7e-m+fp/hard/libc_nano.a(lib_a-dtoa.o) (_Balloc)
/home/slombardo/.arduino15/packages/adafruit/tools/arm-none-eabi-gcc/9-2019q4/bin/../lib/gcc/arm-none-eabi/9.2.1/../../../../arm-none-eabi/lib/thumb/v7e-m+fp/hard/libc_nano.a(lib_a-nano-callocr.o)
                              /home/slombardo/.arduino15/packages/adafruit/tools/arm-none-eabi-gcc/9-2019q4/bin/../lib/gcc/arm-none-eabi/9.2.1/../../../../arm-none-eabi/lib/thumb/v7e-m+fp/hard/libc_nano.a(lib_a-mprec.o) (_calloc_r)
/home/slombardo/.arduino15/packages/adafruit/tools/arm-none-eabi-gcc/9-2019q4/bin/../lib/gcc/arm-none-eabi/9.2.1/../../../../arm-none-eabi/lib/thumb/v7e-m+fp/hard/libc_nano.a(lib_a-nano-svfprintf.o)
                              /home/slombardo/.arduino15/packages/adafruit/tools/arm-none-eabi-gcc/9-2019q4/bin/../lib/gcc/arm-none-eabi/9.2.1/../../../../arm-none-eabi/lib/thumb/v7e-m+fp/hard/libc_nano.a(lib_a-snprintf.o) (_svfprintf_r)
/home/slombardo/.arduino15/packages/adafruit/tools/arm-none-eabi-gcc/9-2019q4/bin/../lib/gcc/arm-none-eabi/9.2.1/../../../../arm-none-eabi/lib/thumb/v7e-m+fp/hard/libc_nano.a(lib_a-nano-vfprintf.o)
                              /home/slombardo/.arduino15/packages/adafruit/tools/arm-none-eabi-gcc/9-2019q4/bin/../lib/gcc/arm-none-eabi/9.2.1/../../../../arm-none-eabi/lib/thumb/v7e-m+fp/hard/libc_nano.a(lib_a-printf.o) (_vfprintf_r)
/home/slombardo/.arduino15/packages/adafruit/tools/arm-none-eabi-gcc/9-2019q4/bin/../lib/gcc/arm-none-eabi/9.2.1/../../../../arm-none-eabi/lib/thumb/v7e-m+fp/hard/libc_nano.a(lib_a-putc.o)
                              /home/slombardo/.arduino15/packages/adafruit/tools/arm-none-eabi-gcc/9-2019q4/bin/../lib/gcc/arm-none-eabi/9.2.1/../../../../arm-none-eabi/lib/thumb/v7e-m+fp/hard/libc_nano.a(lib_a-putchar.o) (_putc_r)
/home/slombardo/.arduino15/packages/adafruit/tools/arm-none-eabi-gcc/9-2019q4/bin/../lib/gcc/arm-none-eabi/9.2.1/../../../../arm-none-eabi/lib/thumb/v7e-m+fp/hard/libc_nano.a(lib_a-reent.o)
                              /home/slombardo/.arduino15/packages/adafruit/tools/arm-none-eabi-gcc/9-2019q4/bin/../lib/gcc/arm-none-eabi/9.2.1/../../../../arm-none-eabi/lib/thumb/v7e-m+fp/hard/libc_nano.a(lib_a-sbrkr.o) (errno)
/home/slombardo/.arduino15/packages/adafruit/tools/arm-none-eabi-gcc/9-2019q4/bin/../lib/gcc/arm-none-eabi/9.2.1/../../../../arm-none-eabi/lib/thumb/v7e-m+fp/hard/libc_nano.a(lib_a-stdio.o)
                              /home/slombardo/.arduino15/packages/adafruit/tools/arm-none-eabi-gcc/9-2019q4/bin/../lib/gcc/arm-none-eabi/9.2.1/../../../../arm-none-eabi/lib/thumb/v7e-m+fp/hard/libc_nano.a(lib_a-findfp.o) (__sread)
/home/slombardo/.arduino15/packages/adafruit/tools/arm-none-eabi-gcc/9-2019q4/bin/../lib/gcc/arm-none-eabi/9.2.1/../../../../arm-none-eabi/lib/thumb/v7e-m+fp/hard/libc_nano.a(lib_a-writer.o)
                              /home/slombardo/.arduino15/packages/adafruit/tools/arm-none-eabi-gcc/9-2019q4/bin/../lib/gcc/arm-none-eabi/9.2.1/../../../../arm-none-eabi/lib/thumb/v7e-m+fp/hard/libc_nano.a(lib_a-stdio.o) (_write_r)
/home/slombardo/.arduino15/packages/adafruit/tools/arm-none-eabi-gcc/9-2019q4/bin/../lib/gcc/arm-none-eabi/9.2.1/../../../../arm-none-eabi/lib/thumb/v7e-m+fp/hard/libc_nano.a(lib_a-closer.o)
                              /home/slombardo/.arduino15/packages/adafruit/tools/arm-none-eabi-gcc/9-2019q4/bin/../lib/gcc/arm-none-eabi/9.2.1/../../../../arm-none-eabi/lib/thumb/v7e-m+fp/hard/libc_nano.a(lib_a-stdio.o) (_close_r)
/home/slombardo/.arduino15/packages/adafruit/tools/arm-none-eabi-gcc/9-2019q4/bin/../lib/gcc/arm-none-eabi/9.2.1/../../../../arm-none-eabi/lib/thumb/v7e-m+fp/hard/libc_nano.a(lib_a-fstatr.o)
                              /home/slombardo/.arduino15/packages/adafruit/tools/arm-none-eabi-gcc/9-2019q4/bin/../lib/gcc/arm-none-eabi/9.2.1/../../../../arm-none-eabi/lib/thumb/v7e-m+fp/hard/libc_nano.a(lib_a-makebuf.o) (_fstat_r)
/home/slombardo/.arduino15/packages/adafruit/tools/arm-none-eabi-gcc/9-2019q4/bin/../lib/gcc/arm-none-eabi/9.2.1/../../../../arm-none-eabi/lib/thumb/v7e-m+fp/hard/libc_nano.a(lib_a-fvwrite.o)
                              /home/slombardo/.arduino15/packages/adafruit/tools/arm-none-eabi-gcc/9-2019q4/bin/../lib/gcc/arm-none-eabi/9.2.1/../../../../arm-none-eabi/lib/thumb/v7e-m+fp/hard/libc_nano.a(lib_a-nano-vfprintf.o) (__sfvwrite_r)
/home/slombardo/.arduino15/packages/adafruit/tools/arm-none-eabi-gcc/9-2019q4/bin/../lib/gcc/arm-none-eabi/9.2.1/../../../../arm-none-eabi/lib/thumb/v7e-m+fp/hard/libc_nano.a(lib_a-isattyr.o)
                              /home/slombardo/.arduino15/packages/adafruit/tools/arm-none-eabi-gcc/9-2019q4/bin/../lib/gcc/arm-none-eabi/9.2.1/../../../../arm-none-eabi/lib/thumb/v7e-m+fp/hard/libc_nano.a(lib_a-makebuf.o) (_isatty_r)
/home/slombardo/.arduino15/packages/adafruit/tools/arm-none-eabi-gcc/9-2019q4/bin/../lib/gcc/arm-none-eabi/9.2.1/../../../../arm-none-eabi/lib/thumb/v7e-m+fp/hard/libc_nano.a(lib_a-locale.o)
                              /home/slombardo/.arduino15/packages/adafruit/tools/arm-none-eabi-gcc/9-2019q4/bin/../lib/gcc/arm-none-eabi/9.2.1/../../../../arm-none-eabi/lib/thumb/v7e-m+fp/hard/libc_nano.a(lib_a-localeconv.o) (__global_locale)
/home/slombardo/.arduino15/packages/adafruit/tools/arm-none-eabi-gcc/9-2019q4/bin/../lib/gcc/arm-none-eabi/9.2.1/../../../../arm-none-eabi/lib/thumb/v7e-m+fp/hard/libc_nano.a(lib_a-lseekr.o)
                              /home/slombardo/.arduino15/packages/adafruit/tools/arm-none-eabi-gcc/9-2019q4/bin/../lib/gcc/arm-none-eabi/9.2.1/../../../../arm-none-eabi/lib/thumb/v7e-m+fp/hard/libc_nano.a(lib_a-stdio.o) (_lseek_r)
/home/slombardo/.arduino15/packages/adafruit/tools/arm-none-eabi-gcc/9-2019q4/bin/../lib/gcc/arm-none-eabi/9.2.1/../../../../arm-none-eabi/lib/thumb/v7e-m+fp/hard/libc_nano.a(lib_a-mbtowc_r.o)
                              /home/slombardo/.arduino15/packages/adafruit/tools/arm-none-eabi-gcc/9-2019q4/bin/../lib/gcc/arm-none-eabi/9.2.1/../../../../arm-none-eabi/lib/thumb/v7e-m+fp/hard/libc_nano.a(lib_a-locale.o) (__ascii_mbtowc)
/home/slombardo/.arduino15/packages/adafruit/tools/arm-none-eabi-gcc/9-2019q4/bin/../lib/gcc/arm-none-eabi/9.2.1/../../../../arm-none-eabi/lib/thumb/v7e-m+fp/hard/libc_nano.a(lib_a-memmove.o)
                              /home/slombardo/.arduino15/packages/adafruit/tools/arm-none-eabi-gcc/9-2019q4/bin/../lib/gcc/arm-none-eabi/9.2.1/../../../../arm-none-eabi/lib/thumb/v7e-m+fp/hard/libc_nano.a(lib_a-nano-svfprintf.o) (memmove)
/home/slombardo/.arduino15/packages/adafruit/tools/arm-none-eabi-gcc/9-2019q4/bin/../lib/gcc/arm-none-eabi/9.2.1/../../../../arm-none-eabi/lib/thumb/v7e-m+fp/hard/libc_nano.a(lib_a-nano-reallocr.o)
                              /home/slombardo/.arduino15/packages/adafruit/tools/arm-none-eabi-gcc/9-2019q4/bin/../lib/gcc/arm-none-eabi/9.2.1/../../../../arm-none-eabi/lib/thumb/v7e-m+fp/hard/libc_nano.a(lib_a-nano-svfprintf.o) (_realloc_r)
/home/slombardo/.arduino15/packages/adafruit/tools/arm-none-eabi-gcc/9-2019q4/bin/../lib/gcc/arm-none-eabi/9.2.1/../../../../arm-none-eabi/lib/thumb/v7e-m+fp/hard/libc_nano.a(lib_a-readr.o)
                              /home/slombardo/.arduino15/packages/adafruit/tools/arm-none-eabi-gcc/9-2019q4/bin/../lib/gcc/arm-none-eabi/9.2.1/../../../../arm-none-eabi/lib/thumb/v7e-m+fp/hard/libc_nano.a(lib_a-stdio.o) (_read_r)
/home/slombardo/.arduino15/packages/adafruit/tools/arm-none-eabi-gcc/9-2019q4/bin/../lib/gcc/arm-none-eabi/9.2.1/../../../../arm-none-eabi/lib/thumb/v7e-m+fp/hard/libc_nano.a(lib_a-strcmp.o)
                              /home/slombardo/.arduino15/packages/adafruit/tools/arm-none-eabi-gcc/9-2019q4/bin/../lib/gcc/arm-none-eabi/9.2.1/../../../../arm-none-eabi/lib/thumb/v7e-m+fp/hard/libc_nano.a(lib_a-locale.o) (strcmp)
/home/slombardo/.arduino15/packages/adafruit/tools/arm-none-eabi-gcc/9-2019q4/bin/../lib/gcc/arm-none-eabi/9.2.1/../../../../arm-none-eabi/lib/thumb/v7e-m+fp/hard/libc_nano.a(lib_a-wctomb_r.o)
                              /home/slombardo/.arduino15/packages/adafruit/tools/arm-none-eabi-gcc/9-2019q4/bin/../lib/gcc/arm-none-eabi/9.2.1/../../../../arm-none-eabi/lib/thumb/v7e-m+fp/hard/libc_nano.a(lib_a-locale.o) (__ascii_wctomb)
/home/slombardo/.arduino15/packages/adafruit/tools/arm-none-eabi-gcc/9-2019q4/bin/../lib/gcc/arm-none-eabi/9.2.1/../../../../arm-none-eabi/lib/thumb/v7e-m+fp/hard/libc_nano.a(lib_a-nano-msizer.o)
                              /home/slombardo/.arduino15/packages/adafruit/tools/arm-none-eabi-gcc/9-2019q4/bin/../lib/gcc/arm-none-eabi/9.2.1/../../../../arm-none-eabi/lib/thumb/v7e-m+fp/hard/libc_nano.a(lib_a-nano-reallocr.o) (_malloc_usable_size_r)
/home/slombardo/.arduino15/packages/adafruit/tools/arm-none-eabi-gcc/9-2019q4/bin/../lib/gcc/arm-none-eabi/9.2.1/thumb/v7e-m+fp/hard/libgcc.a(_arm_muldf3.o)
                              /home/slombardo/.arduino15/packages/adafruit/tools/arm-none-eabi-gcc/9-2019q4/bin/../lib/gcc/arm-none-eabi/9.2.1/../../../../arm-none-eabi/lib/thumb/v7e-m+fp/hard/libc_nano.a(lib_a-dtoa.o) (__aeabi_dmul)
/home/slombardo/.arduino15/packages/adafruit/tools/arm-none-eabi-gcc/9-2019q4/bin/../lib/gcc/arm-none-eabi/9.2.1/thumb/v7e-m+fp/hard/libgcc.a(_arm_addsubdf3.o)
                              /home/slombardo/.arduino15/packages/adafruit/tools/arm-none-eabi-gcc/9-2019q4/bin/../lib/gcc/arm-none-eabi/9.2.1/../../../../arm-none-eabi/lib/thumb/v7e-m+fp/hard/libc_nano.a(lib_a-dtoa.o) (__aeabi_dsub)
/home/slombardo/.arduino15/packages/adafruit/tools/arm-none-eabi-gcc/9-2019q4/bin/../lib/gcc/arm-none-eabi/9.2.1/thumb/v7e-m+fp/hard/libgcc.a(_arm_muldivdf3.o)
                              /home/slombardo/.arduino15/packages/adafruit/tools/arm-none-eabi-gcc/9-2019q4/bin/../lib/gcc/arm-none-eabi/9.2.1/../../../../arm-none-eabi/lib/thumb/v7e-m+fp/hard/libc_nano.a(lib_a-dtoa.o) (__aeabi_ddiv)
/home/slombardo/.arduino15/packages/adafruit/tools/arm-none-eabi-gcc/9-2019q4/bin/../lib/gcc/arm-none-eabi/9.2.1/thumb/v7e-m+fp/hard/libgcc.a(_arm_cmpdf2.o)
                              /home/slombardo/.arduino15/packages/adafruit/tools/arm-none-eabi-gcc/9-2019q4/bin/../lib/gcc/arm-none-eabi/9.2.1/../../../../arm-none-eabi/lib/thumb/v7e-m+fp/hard/libc_nano.a(lib_a-nano-vfprintf_float.o) (__aeabi_dcmpeq)
/home/slombardo/.arduino15/packages/adafruit/tools/arm-none-eabi-gcc/9-2019q4/bin/../lib/gcc/arm-none-eabi/9.2.1/thumb/v7e-m+fp/hard/libgcc.a(_arm_unorddf2.o)
                              /home/slombardo/.arduino15/packages/adafruit/tools/arm-none-eabi-gcc/9-2019q4/bin/../lib/gcc/arm-none-eabi/9.2.1/../../../../arm-none-eabi/lib/thumb/v7e-m+fp/hard/libc_nano.a(lib_a-nano-vfprintf_float.o) (__aeabi_dcmpun)
/home/slombardo/.arduino15/packages/adafruit/tools/arm-none-eabi-gcc/9-2019q4/bin/../lib/gcc/arm-none-eabi/9.2.1/thumb/v7e-m+fp/hard/libgcc.a(_arm_fixdfsi.o)
                              /home/slombardo/.arduino15/packages/adafruit/tools/arm-none-eabi-gcc/9-2019q4/bin/../lib/gcc/arm-none-eabi/9.2.1/../../../../arm-none-eabi/lib/thumb/v7e-m+fp/hard/libc_nano.a(lib_a-dtoa.o) (__aeabi_d2iz)
/home/slombardo/.arduino15/packages/adafruit/tools/arm-none-eabi-gcc/9-2019q4/bin/../lib/gcc/arm-none-eabi/9.2.1/../../../../arm-none-eabi/lib/thumb/v7e-m+fp/hard/libnosys.a(close.o)
                              /home/slombardo/.arduino15/packages/adafruit/tools/arm-none-eabi-gcc/9-2019q4/bin/../lib/gcc/arm-none-eabi/9.2.1/../../../../arm-none-eabi/lib/thumb/v7e-m+fp/hard/libc_nano.a(lib_a-closer.o) (_close)
/home/slombardo/.arduino15/packages/adafruit/tools/arm-none-eabi-gcc/9-2019q4/bin/../lib/gcc/arm-none-eabi/9.2.1/../../../../arm-none-eabi/lib/thumb/v7e-m+fp/hard/libnosys.a(fstat.o)
                              /home/slombardo/.arduino15/packages/adafruit/tools/arm-none-eabi-gcc/9-2019q4/bin/../lib/gcc/arm-none-eabi/9.2.1/../../../../arm-none-eabi/lib/thumb/v7e-m+fp/hard/libc_nano.a(lib_a-fstatr.o) (_fstat)
/home/slombardo/.arduino15/packages/adafruit/tools/arm-none-eabi-gcc/9-2019q4/bin/../lib/gcc/arm-none-eabi/9.2.1/../../../../arm-none-eabi/lib/thumb/v7e-m+fp/hard/libnosys.a(isatty.o)
                              /home/slombardo/.arduino15/packages/adafruit/tools/arm-none-eabi-gcc/9-2019q4/bin/../lib/gcc/arm-none-eabi/9.2.1/../../../../arm-none-eabi/lib/thumb/v7e-m+fp/hard/libc_nano.a(lib_a-isattyr.o) (_isatty)
/home/slombardo/.arduino15/packages/adafruit/tools/arm-none-eabi-gcc/9-2019q4/bin/../lib/gcc/arm-none-eabi/9.2.1/../../../../arm-none-eabi/lib/thumb/v7e-m+fp/hard/libnosys.a(lseek.o)
                              /home/slombardo/.arduino15/packages/adafruit/tools/arm-none-eabi-gcc/9-2019q4/bin/../lib/gcc/arm-none-eabi/9.2.1/../../../../arm-none-eabi/lib/thumb/v7e-m+fp/hard/libc_nano.a(lib_a-lseekr.o) (_lseek)
/home/slombardo/.arduino15/packages/adafruit/tools/arm-none-eabi-gcc/9-2019q4/bin/../lib/gcc/arm-none-eabi/9.2.1/../../../../arm-none-eabi/lib/thumb/v7e-m+fp/hard/libnosys.a(read.o)
                              /home/slombardo/.arduino15/packages/adafruit/tools/arm-none-eabi-gcc/9-2019q4/bin/../lib/gcc/arm-none-eabi/9.2.1/../../../../arm-none-eabi/lib/thumb/v7e-m+fp/hard/libc_nano.a(lib_a-readr.o) (_read)
/home/slombardo/.arduino15/packages/adafruit/tools/arm-none-eabi-gcc/9-2019q4/bin/../lib/gcc/arm-none-eabi/9.2.1/../../../../arm-none-eabi/lib/thumb/v7e-m+fp/hard/libnosys.a(sbrk.o)
                              /home/slombardo/.arduino15/packages/adafruit/tools/arm-none-eabi-gcc/9-2019q4/bin/../lib/gcc/arm-none-eabi/9.2.1/../../../../arm-none-eabi/lib/thumb/v7e-m+fp/hard/libc_nano.a(lib_a-sbrkr.o) (_sbrk)
/home/slombardo/.arduino15/packages/adafruit/tools/arm-none-eabi-gcc/9-2019q4/bin/../lib/gcc/arm-none-eabi/9.2.1/../../../../arm-none-eabi/lib/thumb/v7e-m+fp/hard/libnosys.a(_exit.o)
                              /home/slombardo/.arduino15/packages/adafruit/tools/arm-none-eabi-gcc/9-2019q4/bin/../lib/gcc/arm-none-eabi/9.2.1/../../../../arm-none-eabi/lib/thumb/v7e-m+fp/hard/libc_nano.a(lib_a-exit.o) (_exit)

Allocating common symbols
Common symbol       size              file

nrf_nvic_state      0xc               /home/slombardo/projects/BadgersRunFirmware/Build/core/core.a(wiring.c.o)
__lock___atexit_recursive_mutex
                    0x1               /home/slombardo/.arduino15/packages/adafruit/tools/arm-none-eabi-gcc/9-2019q4/bin/../lib/gcc/arm-none-eabi/9.2.1/../../../../arm-none-eabi/lib/thumb/v7e-m+fp/hard/libc_nano.a(lib_a-lock.o)
__lock___arc4random_mutex
                    0x1               /home/slombardo/.arduino15/packages/adafruit/tools/arm-none-eabi-gcc/9-2019q4/bin/../lib/gcc/arm-none-eabi/9.2.1/../../../../arm-none-eabi/lib/thumb/v7e-m+fp/hard/libc_nano.a(lib_a-lock.o)
errno               0x4               /home/slombardo/.arduino15/packages/adafruit/tools/arm-none-eabi-gcc/9-2019q4/bin/../lib/gcc/arm-none-eabi/9.2.1/../../../../arm-none-eabi/lib/thumb/v7e-m+fp/hard/libc_nano.a(lib_a-reent.o)
xQueueRegistry      0x10              /home/slombardo/projects/BadgersRunFirmware/Build/core/core.a(queue.c.o)
__lock___env_recursive_mutex
                    0x1               /home/slombardo/.arduino15/packages/adafruit/tools/arm-none-eabi-gcc/9-2019q4/bin/../lib/gcc/arm-none-eabi/9.2.1/../../../../arm-none-eabi/lib/thumb/v7e-m+fp/hard/libc_nano.a(lib_a-lock.o)
__lock___sinit_recursive_mutex
                    0x1               /home/slombardo/.arduino15/packages/adafruit/tools/arm-none-eabi-gcc/9-2019q4/bin/../lib/gcc/arm-none-eabi/9.2.1/../../../../arm-none-eabi/lib/thumb/v7e-m+fp/hard/libc_nano.a(lib_a-lock.o)
__lock___malloc_recursive_mutex
                    0x1               /home/slombardo/.arduino15/packages/adafruit/tools/arm-none-eabi-gcc/9-2019q4/bin/../lib/gcc/arm-none-eabi/9.2.1/../../../../arm-none-eabi/lib/thumb/v7e-m+fp/hard/libc_nano.a(lib_a-lock.o)
__lock___at_quick_exit_mutex
                    0x1               /home/slombardo/.arduino15/packages/adafruit/tools/arm-none-eabi-gcc/9-2019q4/bin/../lib/gcc/arm-none-eabi/9.2.1/../../../../arm-none-eabi/lib/thumb/v7e-m+fp/hard/libc_nano.a(lib_a-lock.o)
__lock___dd_hash_mutex
                    0x1               /home/slombardo/.arduino15/packages/adafruit/tools/arm-none-eabi-gcc/9-2019q4/bin/../lib/gcc/arm-none-eabi/9.2.1/../../../../arm-none-eabi/lib/thumb/v7e-m+fp/hard/libc_nano.a(lib_a-lock.o)
__lock___tz_mutex   0x1               /home/slombardo/.arduino15/packages/adafruit/tools/arm-none-eabi-gcc/9-2019q4/bin/../lib/gcc/arm-none-eabi/9.2.1/../../../../arm-none-eabi/lib/thumb/v7e-m+fp/hard/libc_nano.a(lib_a-lock.o)
__lock___sfp_recursive_mutex
                    0x1               /home/slombardo/.arduino15/packages/adafruit/tools/arm-none-eabi-gcc/9-2019q4/bin/../lib/gcc/arm-none-eabi/9.2.1/../../../../arm-none-eabi/lib/thumb/v7e-m+fp/hard/libc_nano.a(lib_a-lock.o)

Discarded input sections

 .text          0x0000000000000000        0x0 /home/slombardo/.arduino15/packages/adafruit/tools/arm-none-eabi-gcc/9-2019q4/bin/../lib/gcc/arm-none-eabi/9.2.1/thumb/v7e-m+fp/hard/crtfastmath.o
 .data          0x0000000000000000        0x0 /home/slombardo/.arduino15/packages/adafruit/tools/arm-none-eabi-gcc/9-2019q4/bin/../lib/gcc/arm-none-eabi/9.2.1/thumb/v7e-m+fp/hard/crtfastmath.o
 .bss           0x0000000000000000        0x0 /home/slombardo/.arduino15/packages/adafruit/tools/arm-none-eabi-gcc/9-2019q4/bin/../lib/gcc/arm-none-eabi/9.2.1/thumb/v7e-m+fp/hard/crtfastmath.o
 .text          0x0000000000000000        0x0 /home/slombardo/.arduino15/packages/adafruit/tools/arm-none-eabi-gcc/9-2019q4/bin/../lib/gcc/arm-none-eabi/9.2.1/thumb/v7e-m+fp/hard/crti.o
 .data          0x0000000000000000        0x0 /home/slombardo/.arduino15/packages/adafruit/tools/arm-none-eabi-gcc/9-2019q4/bin/../lib/gcc/arm-none-eabi/9.2.1/thumb/v7e-m+fp/hard/crti.o
 .bss           0x0000000000000000        0x0 /home/slombardo/.arduino15/packages/adafruit/tools/arm-none-eabi-gcc/9-2019q4/bin/../lib/gcc/arm-none-eabi/9.2.1/thumb/v7e-m+fp/hard/crti.o
 .data          0x0000000000000000        0x4 /home/slombardo/.arduino15/packages/adafruit/tools/arm-none-eabi-gcc/9-2019q4/bin/../lib/gcc/arm-none-eabi/9.2.1/thumb/v7e-m+fp/hard/crtbegin.o
 .data          0x0000000000000000        0x0 /home/slombardo/.arduino15/packages/adafruit/tools/arm-none-eabi-gcc/9-2019q4/bin/../lib/gcc/arm-none-eabi/9.2.1/../../../../arm-none-eabi/lib/thumb/v7e-m+fp/hard/crt0.o
 .bss           0x0000000000000000        0x0 /home/slombardo/.arduino15/packages/adafruit/tools/arm-none-eabi-gcc/9-2019q4/bin/../lib/gcc/arm-none-eabi/9.2.1/../../../../arm-none-eabi/lib/thumb/v7e-m+fp/hard/crt0.o
 .ARM.extab     0x0000000000000000        0x0 /home/slombardo/.arduino15/packages/adafruit/tools/arm-none-eabi-gcc/9-2019q4/bin/../lib/gcc/arm-none-eabi/9.2.1/../../../../arm-none-eabi/lib/thumb/v7e-m+fp/hard/crt0.o
 .text          0x0000000000000000        0x0 /home/slombardo/projects/BadgersRunFirmware/Build/sketch/keyboard.ino.cpp.o
 .data          0x0000000000000000        0x0 /home/slombardo/projects/BadgersRunFirmware/Build/sketch/keyboard.ino.cpp.o
 .bss           0x0000000000000000        0x0 /home/slombardo/projects/BadgersRunFirmware/Build/sketch/keyboard.ino.cpp.o
 .text          0x0000000000000000        0x0 /home/slombardo/projects/BadgersRunFirmware/Build/core/variant.cpp.o
 .data          0x0000000000000000        0x0 /home/slombardo/projects/BadgersRunFirmware/Build/core/variant.cpp.o
 .bss           0x0000000000000000        0x0 /home/slombardo/projects/BadgersRunFirmware/Build/core/variant.cpp.o
 .data          0x0000000000000000        0x0 /home/slombardo/projects/BadgersRunFirmware/Build/core/core.a(gcc_startup_nrf52.S.o)
 .bss           0x0000000000000000        0x0 /home/slombardo/projects/BadgersRunFirmware/Build/core/core.a(gcc_startup_nrf52.S.o)
 .text          0x0000000000000000        0x0 /home/slombardo/projects/BadgersRunFirmware/Build/core/core.a(delay.c.o)
 .data          0x0000000000000000        0x0 /home/slombardo/projects/BadgersRunFirmware/Build/core/core.a(delay.c.o)
 .bss           0x0000000000000000        0x0 /home/slombardo/projects/BadgersRunFirmware/Build/core/core.a(delay.c.o)
 .text.millis   0x0000000000000000       0x18 /home/slombardo/projects/BadgersRunFirmware/Build/core/core.a(delay.c.o)
 .text.dwt_enable
                0x0000000000000000       0x24 /home/slombardo/projects/BadgersRunFirmware/Build/core/core.a(delay.c.o)
 .text.dwt_disable
                0x0000000000000000       0x20 /home/slombardo/projects/BadgersRunFirmware/Build/core/core.a(delay.c.o)
 .text          0x0000000000000000        0x0 /home/slombardo/projects/BadgersRunFirmware/Build/core/core.a(tasks.c.o)
 .data          0x0000000000000000        0x0 /home/slombardo/projects/BadgersRunFirmware/Build/core/core.a(tasks.c.o)
 .bss           0x0000000000000000        0x0 /home/slombardo/projects/BadgersRunFirmware/Build/core/core.a(tasks.c.o)
 .text.vTaskDelete
                0x0000000000000000       0xe0 /home/slombardo/projects/BadgersRunFirmware/Build/core/core.a(tasks.c.o)
 .text.eTaskGetState
                0x0000000000000000       0x68 /home/slombardo/projects/BadgersRunFirmware/Build/core/core.a(tasks.c.o)
 .text.uxTaskPriorityGet
                0x0000000000000000       0x24 /home/slombardo/projects/BadgersRunFirmware/Build/core/core.a(tasks.c.o)
 .text.uxTaskPriorityGetFromISR
                0x0000000000000000       0x24 /home/slombardo/projects/BadgersRunFirmware/Build/core/core.a(tasks.c.o)
 .text.vTaskPrioritySet
                0x0000000000000000       0xc0 /home/slombardo/projects/BadgersRunFirmware/Build/core/core.a(tasks.c.o)
 .text.vTaskSuspend
                0x0000000000000000      0x180 /home/slombardo/projects/BadgersRunFirmware/Build/core/core.a(tasks.c.o)
 .text.vTaskResume
                0x0000000000000000       0x94 /home/slombardo/projects/BadgersRunFirmware/Build/core/core.a(tasks.c.o)
 .text.xTaskResumeFromISR
                0x0000000000000000       0x98 /home/slombardo/projects/BadgersRunFirmware/Build/core/core.a(tasks.c.o)
 .text.vTaskEndScheduler
                0x0000000000000000       0x14 /home/slombardo/projects/BadgersRunFirmware/Build/core/core.a(tasks.c.o)
 .text.xTaskGetTickCountFromISR
                0x0000000000000000        0xc /home/slombardo/projects/BadgersRunFirmware/Build/core/core.a(tasks.c.o)
 .text.uxTaskGetNumberOfTasks
                0x0000000000000000        0xc /home/slombardo/projects/BadgersRunFirmware/Build/core/core.a(tasks.c.o)
 .text.xTaskGetIdleTaskHandle
                0x0000000000000000        0xc /home/slombardo/projects/BadgersRunFirmware/Build/core/core.a(tasks.c.o)
 .text.vTaskDelayUntil
                0x0000000000000000       0x9c /home/slombardo/projects/BadgersRunFirmware/Build/core/core.a(tasks.c.o)
 .text.prvListTasksWithinSingleList.part.0
                0x0000000000000000       0xec /home/slombardo/projects/BadgersRunFirmware/Build/core/core.a(tasks.c.o)
 .text.uxTaskGetSystemState
                0x0000000000000000       0xe8 /home/slombardo/projects/BadgersRunFirmware/Build/core/core.a(tasks.c.o)
 .text.vTaskPlaceOnUnorderedEventList
                0x0000000000000000       0x80 /home/slombardo/projects/BadgersRunFirmware/Build/core/core.a(tasks.c.o)
 .text.vTaskRemoveFromUnorderedEventList
                0x0000000000000000       0x58 /home/slombardo/projects/BadgersRunFirmware/Build/core/core.a(tasks.c.o)
 .text.vTaskSetTimeOutState
                0x0000000000000000       0x24 /home/slombardo/projects/BadgersRunFirmware/Build/core/core.a(tasks.c.o)
 .text.uxTaskGetTaskNumber
                0x0000000000000000        0x8 /home/slombardo/projects/BadgersRunFirmware/Build/core/core.a(tasks.c.o)
 .text.vTaskSetTaskNumber
                0x0000000000000000        0x8 /home/slombardo/projects/BadgersRunFirmware/Build/core/core.a(tasks.c.o)
 .text.vTaskGetInfo
                0x0000000000000000       0xec /home/slombardo/projects/BadgersRunFirmware/Build/core/core.a(tasks.c.o)
 .text.uxTaskGetStackHighWaterMark
                0x0000000000000000       0x34 /home/slombardo/projects/BadgersRunFirmware/Build/core/core.a(tasks.c.o)
 .rodata.vTaskList.str1.4
                0x0000000000000000        0xf /home/slombardo/projects/BadgersRunFirmware/Build/core/core.a(tasks.c.o)
 .text.vTaskList
                0x0000000000000000       0xe8 /home/slombardo/projects/BadgersRunFirmware/Build/core/core.a(tasks.c.o)
 .text.uxTaskResetEventItemValue
                0x0000000000000000       0x18 /home/slombardo/projects/BadgersRunFirmware/Build/core/core.a(tasks.c.o)
 .text.ulTaskNotifyTake
                0x0000000000000000       0xc0 /home/slombardo/projects/BadgersRunFirmware/Build/core/core.a(tasks.c.o)
 .text.xTaskNotifyWait
                0x0000000000000000       0xec /home/slombardo/projects/BadgersRunFirmware/Build/core/core.a(tasks.c.o)
 .text.xTaskGenericNotify
                0x0000000000000000       0xd8 /home/slombardo/projects/BadgersRunFirmware/Build/core/core.a(tasks.c.o)
 .text.xTaskGenericNotifyFromISR
                0x0000000000000000       0xc8 /home/slombardo/projects/BadgersRunFirmware/Build/core/core.a(tasks.c.o)
 .text.vTaskNotifyGiveFromISR
                0x0000000000000000       0xa4 /home/slombardo/projects/BadgersRunFirmware/Build/core/core.a(tasks.c.o)
 .text.xTaskNotifyStateClear
                0x0000000000000000       0x34 /home/slombardo/projects/BadgersRunFirmware/Build/core/core.a(tasks.c.o)
 .rodata.CSWTCH.225
                0x0000000000000000        0x5 /home/slombardo/projects/BadgersRunFirmware/Build/core/core.a(tasks.c.o)
 .text          0x0000000000000000        0x0 /home/slombardo/projects/BadgersRunFirmware/Build/core/core.a(timers.c.o)
 .data          0x0000000000000000        0x0 /home/slombardo/projects/BadgersRunFirmware/Build/core/core.a(timers.c.o)
 .bss           0x0000000000000000        0x0 /home/slombardo/projects/BadgersRunFirmware/Build/core/core.a(timers.c.o)
 .text.xTimerCreate
                0x0000000000000000       0xac /home/slombardo/projects/BadgersRunFirmware/Build/core/core.a(timers.c.o)
 .text.xTimerCreateStatic
                0x0000000000000000       0xa8 /home/slombardo/projects/BadgersRunFirmware/Build/core/core.a(timers.c.o)
 .text.xTimerGenericCommand
                0x0000000000000000       0x58 /home/slombardo/projects/BadgersRunFirmware/Build/core/core.a(timers.c.o)
 .text.xTimerGetTimerDaemonTaskHandle
                0x0000000000000000        0xc /home/slombardo/projects/BadgersRunFirmware/Build/core/core.a(timers.c.o)
 .text.xTimerGetPeriod
                0x0000000000000000        0x4 /home/slombardo/projects/BadgersRunFirmware/Build/core/core.a(timers.c.o)
 .text.xTimerGetExpiryTime
                0x0000000000000000        0x4 /home/slombardo/projects/BadgersRunFirmware/Build/core/core.a(timers.c.o)
 .text.pcTimerGetName
                0x0000000000000000        0x4 /home/slombardo/projects/BadgersRunFirmware/Build/core/core.a(timers.c.o)
 .text.xTimerIsTimerActive
                0x0000000000000000       0x20 /home/slombardo/projects/BadgersRunFirmware/Build/core/core.a(timers.c.o)
 .text.pvTimerGetTimerID
                0x0000000000000000       0x18 /home/slombardo/projects/BadgersRunFirmware/Build/core/core.a(timers.c.o)
 .text.vTimerSetTimerID
                0x0000000000000000       0x14 /home/slombardo/projects/BadgersRunFirmware/Build/core/core.a(timers.c.o)
 .text.xTimerPendFunctionCallFromISR
                0x0000000000000000       0x2c /home/slombardo/projects/BadgersRunFirmware/Build/core/core.a(timers.c.o)
 .text.xTimerPendFunctionCall
                0x0000000000000000       0x2c /home/slombardo/projects/BadgersRunFirmware/Build/core/core.a(timers.c.o)
 .text.uxTimerGetTimerNumber
                0x0000000000000000        0x4 /home/slombardo/projects/BadgersRunFirmware/Build/core/core.a(timers.c.o)
 .text.vTimerSetTimerNumber
                0x0000000000000000        0x4 /home/slombardo/projects/BadgersRunFirmware/Build/core/core.a(timers.c.o)
 .text          0x0000000000000000        0x0 /home/slombardo/projects/BadgersRunFirmware/Build/core/core.a(port_cmsis.c.o)
 .data          0x0000000000000000        0x0 /home/slombardo/projects/BadgersRunFirmware/Build/core/core.a(port_cmsis.c.o)
 .bss           0x0000000000000000        0x0 /home/slombardo/projects/BadgersRunFirmware/Build/core/core.a(port_cmsis.c.o)
 .text.vPortEndScheduler
                0x0000000000000000        0x4 /home/slombardo/projects/BadgersRunFirmware/Build/core/core.a(port_cmsis.c.o)
 .text          0x0000000000000000        0x0 /home/slombardo/projects/BadgersRunFirmware/Build/core/core.a(port_cmsis_systick.c.o)
 .data          0x0000000000000000        0x0 /home/slombardo/projects/BadgersRunFirmware/Build/core/core.a(port_cmsis_systick.c.o)
 .bss           0x0000000000000000        0x0 /home/slombardo/projects/BadgersRunFirmware/Build/core/core.a(port_cmsis_systick.c.o)
 .text          0x0000000000000000        0x0 /home/slombardo/projects/BadgersRunFirmware/Build/core/core.a(port.c.o)
 .data          0x0000000000000000        0x0 /home/slombardo/projects/BadgersRunFirmware/Build/core/core.a(port.c.o)
 .bss           0x0000000000000000        0x0 /home/slombardo/projects/BadgersRunFirmware/Build/core/core.a(port.c.o)
 .text          0x0000000000000000        0x0 /home/slombardo/projects/BadgersRunFirmware/Build/core/core.a(hooks.c.o)
 .data          0x0000000000000000        0x0 /home/slombardo/projects/BadgersRunFirmware/Build/core/core.a(hooks.c.o)
 .bss           0x0000000000000000        0x0 /home/slombardo/projects/BadgersRunFirmware/Build/core/core.a(hooks.c.o)
 .text.__false  0x0000000000000000        0x4 /home/slombardo/projects/BadgersRunFirmware/Build/core/core.a(hooks.c.o)
 .text.__halt   0x0000000000000000        0x4 /home/slombardo/projects/BadgersRunFirmware/Build/core/core.a(hooks.c.o)
 .text          0x0000000000000000        0x0 /home/slombardo/projects/BadgersRunFirmware/Build/core/core.a(system_nrf52.c.o)
 .data          0x0000000000000000        0x0 /home/slombardo/projects/BadgersRunFirmware/Build/core/core.a(system_nrf52.c.o)
 .bss           0x0000000000000000        0x0 /home/slombardo/projects/BadgersRunFirmware/Build/core/core.a(system_nrf52.c.o)
 .text.SystemCoreClockUpdate
                0x0000000000000000       0x10 /home/slombardo/projects/BadgersRunFirmware/Build/core/core.a(system_nrf52.c.o)
 .text          0x0000000000000000        0x0 /home/slombardo/projects/BadgersRunFirmware/Build/core/core.a(wiring.c.o)
 .data          0x0000000000000000        0x0 /home/slombardo/projects/BadgersRunFirmware/Build/core/core.a(wiring.c.o)
 .bss           0x0000000000000000        0x0 /home/slombardo/projects/BadgersRunFirmware/Build/core/core.a(wiring.c.o)
 .text.__NVIC_SystemReset
                0x0000000000000000       0x24 /home/slombardo/projects/BadgersRunFirmware/Build/core/core.a(wiring.c.o)
 .text.sd_power_system_off
                0x0000000000000000        0x4 /home/slombardo/projects/BadgersRunFirmware/Build/core/core.a(wiring.c.o)
 .text.sd_app_evt_wait
                0x0000000000000000        0x4 /home/slombardo/projects/BadgersRunFirmware/Build/core/core.a(wiring.c.o)
 .text.sd_softdevice_is_enabled
                0x0000000000000000        0x4 /home/slombardo/projects/BadgersRunFirmware/Build/core/core.a(wiring.c.o)
 .text.enterUf2Dfu
                0x0000000000000000       0x10 /home/slombardo/projects/BadgersRunFirmware/Build/core/core.a(wiring.c.o)
 .text.enterSerialDfu
                0x0000000000000000       0x10 /home/slombardo/projects/BadgersRunFirmware/Build/core/core.a(wiring.c.o)
 .text.enterOTADfu
                0x0000000000000000       0x10 /home/slombardo/projects/BadgersRunFirmware/Build/core/core.a(wiring.c.o)
 .text.waitForEvent
                0x0000000000000000       0x30 /home/slombardo/projects/BadgersRunFirmware/Build/core/core.a(wiring.c.o)
 .text.systemOff
                0x0000000000000000       0x64 /home/slombardo/projects/BadgersRunFirmware/Build/core/core.a(wiring.c.o)
 .text          0x0000000000000000        0x0 /home/slombardo/projects/BadgersRunFirmware/Build/core/core.a(wiring_digital.c.o)
 .data          0x0000000000000000        0x0 /home/slombardo/projects/BadgersRunFirmware/Build/core/core.a(wiring_digital.c.o)
 .bss           0x0000000000000000        0x0 /home/slombardo/projects/BadgersRunFirmware/Build/core/core.a(wiring_digital.c.o)
 .text.digitalToggle
                0x0000000000000000       0x40 /home/slombardo/projects/BadgersRunFirmware/Build/core/core.a(wiring_digital.c.o)
 .text.ledOn    0x0000000000000000       0x1c /home/slombardo/projects/BadgersRunFirmware/Build/core/core.a(wiring_digital.c.o)
 .group         0x0000000000000000        0x8 /home/slombardo/projects/BadgersRunFirmware/Build/core/core.a(Print.cpp.o)
 .text          0x0000000000000000        0x0 /home/slombardo/projects/BadgersRunFirmware/Build/core/core.a(Print.cpp.o)
 .data          0x0000000000000000        0x0 /home/slombardo/projects/BadgersRunFirmware/Build/core/core.a(Print.cpp.o)
 .bss           0x0000000000000000        0x0 /home/slombardo/projects/BadgersRunFirmware/Build/core/core.a(Print.cpp.o)
 .text._ZN5Print5printEPK19__FlashStringHelper
                0x0000000000000000       0x5c /home/slombardo/projects/BadgersRunFirmware/Build/core/core.a(Print.cpp.o)
 .text._ZN5Print5printERK6String
                0x0000000000000000       0x48 /home/slombardo/projects/BadgersRunFirmware/Build/core/core.a(Print.cpp.o)
 .text._ZN5Print5printEPKc
                0x0000000000000000       0x5c /home/slombardo/projects/BadgersRunFirmware/Build/core/core.a(Print.cpp.o)
 .text._ZN5Print5printEc
                0x0000000000000000        0x8 /home/slombardo/projects/BadgersRunFirmware/Build/core/core.a(Print.cpp.o)
 .rodata._ZN5Print5printEdi.str1.4
                0x0000000000000000        0x5 /home/slombardo/projects/BadgersRunFirmware/Build/core/core.a(Print.cpp.o)
 .text._ZN5Print5printEdi
                0x0000000000000000       0x60 /home/slombardo/projects/BadgersRunFirmware/Build/core/core.a(Print.cpp.o)
 .text._ZN5Print7printlnEPK19__FlashStringHelper
                0x0000000000000000       0xa0 /home/slombardo/projects/BadgersRunFirmware/Build/core/core.a(Print.cpp.o)
 .text._ZN5Print5printERK9Printable
                0x0000000000000000        0xc /home/slombardo/projects/BadgersRunFirmware/Build/core/core.a(Print.cpp.o)
 .text._ZN5Print7printlnEv
                0x0000000000000000       0x40 /home/slombardo/projects/BadgersRunFirmware/Build/core/core.a(Print.cpp.o)
 .text._ZN5Print7printlnERK6String
                0x0000000000000000       0x8c /home/slombardo/projects/BadgersRunFirmware/Build/core/core.a(Print.cpp.o)
 .text._ZN5Print7printlnEPKc
                0x0000000000000000       0xa0 /home/slombardo/projects/BadgersRunFirmware/Build/core/core.a(Print.cpp.o)
 .text._ZN5Print7printlnEc
                0x0000000000000000       0x4c /home/slombardo/projects/BadgersRunFirmware/Build/core/core.a(Print.cpp.o)
 .text._ZN5Print7printlnEdi
                0x0000000000000000       0xa0 /home/slombardo/projects/BadgersRunFirmware/Build/core/core.a(Print.cpp.o)
 .text._ZN5Print7printlnERK9Printable
                0x0000000000000000       0x50 /home/slombardo/projects/BadgersRunFirmware/Build/core/core.a(Print.cpp.o)
 .text._ZN5Print6printfEPKcz
                0x0000000000000000       0x5c /home/slombardo/projects/BadgersRunFirmware/Build/core/core.a(Print.cpp.o)
 .text._ZN5Print7printlnEli
                0x0000000000000000       0x4c /home/slombardo/projects/BadgersRunFirmware/Build/core/core.a(Print.cpp.o)
 .text._ZN5Print5printEmi
                0x0000000000000000       0x18 /home/slombardo/projects/BadgersRunFirmware/Build/core/core.a(Print.cpp.o)
 .text._ZN5Print5printEji
                0x0000000000000000       0x18 /home/slombardo/projects/BadgersRunFirmware/Build/core/core.a(Print.cpp.o)
 .text._ZN5Print5printEhi
                0x0000000000000000       0x10 /home/slombardo/projects/BadgersRunFirmware/Build/core/core.a(Print.cpp.o)
 .text._ZN5Print7printlnEmi
                0x0000000000000000       0x64 /home/slombardo/projects/BadgersRunFirmware/Build/core/core.a(Print.cpp.o)
 .text._ZN5Print7printlnEhi
                0x0000000000000000       0x60 /home/slombardo/projects/BadgersRunFirmware/Build/core/core.a(Print.cpp.o)
 .text._ZN5Print7printlnEji
                0x0000000000000000       0x64 /home/slombardo/projects/BadgersRunFirmware/Build/core/core.a(Print.cpp.o)
 .text._ZN5Print5printEii
                0x0000000000000000       0x44 /home/slombardo/projects/BadgersRunFirmware/Build/core/core.a(Print.cpp.o)
 .text._ZN5Print10printFloatEdh
                0x0000000000000000       0x60 /home/slombardo/projects/BadgersRunFirmware/Build/core/core.a(Print.cpp.o)
 .rodata._ZN5Print11printBufferEPKhici.str1.4
                0x0000000000000000        0x5 /home/slombardo/projects/BadgersRunFirmware/Build/core/core.a(Print.cpp.o)
 .text._ZN5Print11printBufferEPKhici
                0x0000000000000000       0xa8 /home/slombardo/projects/BadgersRunFirmware/Build/core/core.a(Print.cpp.o)
 .text._ZN5Print18printBufferReverseEPKhici
                0x0000000000000000       0xb0 /home/slombardo/projects/BadgersRunFirmware/Build/core/core.a(Print.cpp.o)
 .rodata._ZTV5Print
                0x0000000000000000       0x14 /home/slombardo/projects/BadgersRunFirmware/Build/core/core.a(Print.cpp.o)
 .group         0x0000000000000000        0x8 /home/slombardo/projects/BadgersRunFirmware/Build/core/core.a(Uart.cpp.o)
 .group         0x0000000000000000        0x8 /home/slombardo/projects/BadgersRunFirmware/Build/core/core.a(Uart.cpp.o)
 .text          0x0000000000000000        0x0 /home/slombardo/projects/BadgersRunFirmware/Build/core/core.a(Uart.cpp.o)
 .data          0x0000000000000000        0x0 /home/slombardo/projects/BadgersRunFirmware/Build/core/core.a(Uart.cpp.o)
 .bss           0x0000000000000000        0x0 /home/slombardo/projects/BadgersRunFirmware/Build/core/core.a(Uart.cpp.o)
 .text._ZN5Print17availableForWriteEv
                0x0000000000000000        0x4 /home/slombardo/projects/BadgersRunFirmware/Build/core/core.a(Uart.cpp.o)
 .text._ZN4UartC2EP14NRF_UARTE_Type9IRQn_Typehh
                0x0000000000000000       0x54 /home/slombardo/projects/BadgersRunFirmware/Build/core/core.a(Uart.cpp.o)
 .text._ZN4UartC2EP14NRF_UARTE_Type9IRQn_Typehhhh
                0x0000000000000000       0x74 /home/slombardo/projects/BadgersRunFirmware/Build/core/core.a(Uart.cpp.o)
 .text._ZN4Uart7setPinsEhh
                0x0000000000000000       0x18 /home/slombardo/projects/BadgersRunFirmware/Build/core/core.a(Uart.cpp.o)
 .text._ZN4Uart10IrqHandlerEv
                0x0000000000000000       0x44 /home/slombardo/projects/BadgersRunFirmware/Build/core/core.a(Uart.cpp.o)
 .text          0x0000000000000000        0x0 /home/slombardo/projects/BadgersRunFirmware/Build/core/core.a(abi.cpp.o)
 .data          0x0000000000000000        0x0 /home/slombardo/projects/BadgersRunFirmware/Build/core/core.a(abi.cpp.o)
 .bss           0x0000000000000000        0x0 /home/slombardo/projects/BadgersRunFirmware/Build/core/core.a(abi.cpp.o)
 .text.__cxa_pure_virtual
                0x0000000000000000        0x4 /home/slombardo/projects/BadgersRunFirmware/Build/core/core.a(abi.cpp.o)
 .text.__cxa_deleted_virtual
                0x0000000000000000        0x4 /home/slombardo/projects/BadgersRunFirmware/Build/core/core.a(abi.cpp.o)
 .debug_info    0x0000000000000000     0x1033 /home/slombardo/projects/BadgersRunFirmware/Build/core/core.a(abi.cpp.o)
 .debug_abbrev  0x0000000000000000      0x2af /home/slombardo/projects/BadgersRunFirmware/Build/core/core.a(abi.cpp.o)
 .debug_aranges
                0x0000000000000000       0x28 /home/slombardo/projects/BadgersRunFirmware/Build/core/core.a(abi.cpp.o)
 .debug_ranges  0x0000000000000000       0x18 /home/slombardo/projects/BadgersRunFirmware/Build/core/core.a(abi.cpp.o)
 .debug_line    0x0000000000000000      0x3de /home/slombardo/projects/BadgersRunFirmware/Build/core/core.a(abi.cpp.o)
 .debug_str     0x0000000000000000      0x7f6 /home/slombardo/projects/BadgersRunFirmware/Build/core/core.a(abi.cpp.o)
 .comment       0x0000000000000000       0x7a /home/slombardo/projects/BadgersRunFirmware/Build/core/core.a(abi.cpp.o)
 .debug_frame   0x0000000000000000       0x30 /home/slombardo/projects/BadgersRunFirmware/Build/core/core.a(abi.cpp.o)
 .ARM.attributes
                0x0000000000000000       0x30 /home/slombardo/projects/BadgersRunFirmware/Build/core/core.a(abi.cpp.o)
 .text          0x0000000000000000        0x0 /home/slombardo/projects/BadgersRunFirmware/Build/core/core.a(main.cpp.o)
 .data          0x0000000000000000        0x0 /home/slombardo/projects/BadgersRunFirmware/Build/core/core.a(main.cpp.o)
 .bss           0x0000000000000000        0x0 /home/slombardo/projects/BadgersRunFirmware/Build/core/core.a(main.cpp.o)
 .text._Z11initVariantv
                0x0000000000000000        0x4 /home/slombardo/projects/BadgersRunFirmware/Build/core/core.a(main.cpp.o)
 .text.suspendLoop
                0x0000000000000000        0xc /home/slombardo/projects/BadgersRunFirmware/Build/core/core.a(main.cpp.o)
 .text.resumeLoop
                0x0000000000000000       0x24 /home/slombardo/projects/BadgersRunFirmware/Build/core/core.a(main.cpp.o)
 .text          0x0000000000000000        0x0 /home/slombardo/projects/BadgersRunFirmware/Build/core/core.a(rtos.cpp.o)
 .data          0x0000000000000000        0x0 /home/slombardo/projects/BadgersRunFirmware/Build/core/core.a(rtos.cpp.o)
 .bss           0x0000000000000000        0x0 /home/slombardo/projects/BadgersRunFirmware/Build/core/core.a(rtos.cpp.o)
 .text._ZL14_redirect_taskPv
                0x0000000000000000       0x20 /home/slombardo/projects/BadgersRunFirmware/Build/core/core.a(rtos.cpp.o)
 .text._ZN13SchedulerRTOSC2Ev
                0x0000000000000000        0x4 /home/slombardo/projects/BadgersRunFirmware/Build/core/core.a(rtos.cpp.o)
 .rodata._ZN13SchedulerRTOS9startLoopEPFvvEmmPKc.str1.4
                0x0000000000000000        0xd /home/slombardo/projects/BadgersRunFirmware/Build/core/core.a(rtos.cpp.o)
 .text._ZN13SchedulerRTOS9startLoopEPFvvEmmPKc
                0x0000000000000000       0x38 /home/slombardo/projects/BadgersRunFirmware/Build/core/core.a(rtos.cpp.o)
 .bss.Scheduler
                0x0000000000000000        0x1 /home/slombardo/projects/BadgersRunFirmware/Build/core/core.a(rtos.cpp.o)
 .text          0x0000000000000000        0x0 /home/slombardo/projects/BadgersRunFirmware/Build/core/core.a(debug.cpp.o)
 .data          0x0000000000000000        0x0 /home/slombardo/projects/BadgersRunFirmware/Build/core/core.a(debug.cpp.o)
 .bss           0x0000000000000000        0x0 /home/slombardo/projects/BadgersRunFirmware/Build/core/core.a(debug.cpp.o)
 .text.dbgHeapTotal
                0x0000000000000000       0x10 /home/slombardo/projects/BadgersRunFirmware/Build/core/core.a(debug.cpp.o)
 .text.dbgHeapUsed
                0x0000000000000000       0x14 /home/slombardo/projects/BadgersRunFirmware/Build/core/core.a(debug.cpp.o)
 .text.dbgStackTotal
                0x0000000000000000       0x10 /home/slombardo/projects/BadgersRunFirmware/Build/core/core.a(debug.cpp.o)
 .text.dbgStackUsed
                0x0000000000000000       0x34 /home/slombardo/projects/BadgersRunFirmware/Build/core/core.a(debug.cpp.o)
 .rodata.dbgMemInfo.str1.4
                0x0000000000000000      0x16c /home/slombardo/projects/BadgersRunFirmware/Build/core/core.a(debug.cpp.o)
 .text.dbgMemInfo
                0x0000000000000000      0x1c4 /home/slombardo/projects/BadgersRunFirmware/Build/core/core.a(debug.cpp.o)
 .rodata.dbgDumpMemory.str1.4
                0x0000000000000000       0x22 /home/slombardo/projects/BadgersRunFirmware/Build/core/core.a(debug.cpp.o)
 .text.dbgDumpMemory
                0x0000000000000000      0x164 /home/slombardo/projects/BadgersRunFirmware/Build/core/core.a(debug.cpp.o)
 .rodata.dbgDumpMemoryCFormat.str1.4
                0x0000000000000000       0x24 /home/slombardo/projects/BadgersRunFirmware/Build/core/core.a(debug.cpp.o)
 .text.dbgDumpMemoryCFormat
                0x0000000000000000       0x70 /home/slombardo/projects/BadgersRunFirmware/Build/core/core.a(debug.cpp.o)
 .rodata.dbg_ble_event_str.str1.4
                0x0000000000000000        0x7 /home/slombardo/projects/BadgersRunFirmware/Build/core/core.a(debug.cpp.o)
 .text.dbg_ble_event_str
                0x0000000000000000       0x2c /home/slombardo/projects/BadgersRunFirmware/Build/core/core.a(debug.cpp.o)
 .text.dbg_hci_str
                0x0000000000000000        0xc /home/slombardo/projects/BadgersRunFirmware/Build/core/core.a(debug.cpp.o)
 .bss._ZZ17dbg_ble_event_strE11unknown_str
                0x0000000000000000        0x7 /home/slombardo/projects/BadgersRunFirmware/Build/core/core.a(debug.cpp.o)
 .rodata._ZL13_strevt_table
                0x0000000000000000        0x8 /home/slombardo/projects/BadgersRunFirmware/Build/core/core.a(debug.cpp.o)
 .rodata._ZL13_strhci_table
                0x0000000000000000        0x8 /home/slombardo/projects/BadgersRunFirmware/Build/core/core.a(debug.cpp.o)
 .rodata._ZL14_strevt_lookup
                0x0000000000000000      0x170 /home/slombardo/projects/BadgersRunFirmware/Build/core/core.a(debug.cpp.o)
 .rodata._ZL14_strhci_lookup
                0x0000000000000000       0xe0 /home/slombardo/projects/BadgersRunFirmware/Build/core/core.a(debug.cpp.o)
 .text          0x0000000000000000        0x0 /home/slombardo/projects/BadgersRunFirmware/Build/core/core.a(list.c.o)
 .data          0x0000000000000000        0x0 /home/slombardo/projects/BadgersRunFirmware/Build/core/core.a(list.c.o)
 .bss           0x0000000000000000        0x0 /home/slombardo/projects/BadgersRunFirmware/Build/core/core.a(list.c.o)
 .text          0x0000000000000000        0x0 /home/slombardo/projects/BadgersRunFirmware/Build/core/core.a(heap_3.c.o)
 .data          0x0000000000000000        0x0 /home/slombardo/projects/BadgersRunFirmware/Build/core/core.a(heap_3.c.o)
 .bss           0x0000000000000000        0x0 /home/slombardo/projects/BadgersRunFirmware/Build/core/core.a(heap_3.c.o)
 .text          0x0000000000000000        0x0 /home/slombardo/projects/BadgersRunFirmware/Build/core/core.a(queue.c.o)
 .data          0x0000000000000000        0x0 /home/slombardo/projects/BadgersRunFirmware/Build/core/core.a(queue.c.o)
 .bss           0x0000000000000000        0x0 /home/slombardo/projects/BadgersRunFirmware/Build/core/core.a(queue.c.o)
 .text.xQueueGenericReset
                0x0000000000000000       0x80 /home/slombardo/projects/BadgersRunFirmware/Build/core/core.a(queue.c.o)
 .text.xQueueCreateCountingSemaphoreStatic
                0x0000000000000000       0x5c /home/slombardo/projects/BadgersRunFirmware/Build/core/core.a(queue.c.o)
 .text.xQueueCreateCountingSemaphore
                0x0000000000000000       0x64 /home/slombardo/projects/BadgersRunFirmware/Build/core/core.a(queue.c.o)
 .text.xQueueCreateMutexStatic
                0x0000000000000000       0x6c /home/slombardo/projects/BadgersRunFirmware/Build/core/core.a(queue.c.o)
 .text.xQueueGiveMutexRecursive
                0x0000000000000000       0x2c /home/slombardo/projects/BadgersRunFirmware/Build/core/core.a(queue.c.o)
 .text.xQueueGenericSendFromISR
                0x0000000000000000       0xfc /home/slombardo/projects/BadgersRunFirmware/Build/core/core.a(queue.c.o)
 .text.xQueueTakeMutexRecursive
                0x0000000000000000       0x2c /home/slombardo/projects/BadgersRunFirmware/Build/core/core.a(queue.c.o)
 .text.xQueuePeek
                0x0000000000000000      0x2b0 /home/slombardo/projects/BadgersRunFirmware/Build/core/core.a(queue.c.o)
 .text.xQueueReceiveFromISR
                0x0000000000000000       0x80 /home/slombardo/projects/BadgersRunFirmware/Build/core/core.a(queue.c.o)
 .text.xQueuePeekFromISR
                0x0000000000000000       0x40 /home/slombardo/projects/BadgersRunFirmware/Build/core/core.a(queue.c.o)
 .text.uxQueueMessagesWaiting
                0x0000000000000000       0x18 /home/slombardo/projects/BadgersRunFirmware/Build/core/core.a(queue.c.o)
 .text.uxQueueSpacesAvailable
                0x0000000000000000       0x1c /home/slombardo/projects/BadgersRunFirmware/Build/core/core.a(queue.c.o)
 .text.uxQueueMessagesWaitingFromISR
                0x0000000000000000        0x4 /home/slombardo/projects/BadgersRunFirmware/Build/core/core.a(queue.c.o)
 .text.uxQueueGetQueueNumber
                0x0000000000000000        0x4 /home/slombardo/projects/BadgersRunFirmware/Build/core/core.a(queue.c.o)
 .text.vQueueSetQueueNumber
                0x0000000000000000        0x4 /home/slombardo/projects/BadgersRunFirmware/Build/core/core.a(queue.c.o)
 .text.ucQueueGetQueueType
                0x0000000000000000        0x8 /home/slombardo/projects/BadgersRunFirmware/Build/core/core.a(queue.c.o)
 .text.xQueueIsQueueEmptyFromISR
                0x0000000000000000        0xc /home/slombardo/projects/BadgersRunFirmware/Build/core/core.a(queue.c.o)
 .text.xQueueIsQueueFullFromISR
                0x0000000000000000       0x10 /home/slombardo/projects/BadgersRunFirmware/Build/core/core.a(queue.c.o)
 .text.pcQueueGetName
                0x0000000000000000       0x24 /home/slombardo/projects/BadgersRunFirmware/Build/core/core.a(queue.c.o)
 .text.vQueueUnregisterQueue
                0x0000000000000000       0x28 /home/slombardo/projects/BadgersRunFirmware/Build/core/core.a(queue.c.o)
 .text          0x0000000000000000        0x0 /home/slombardo/projects/BadgersRunFirmware/Build/core/core.a(AdaCallback.c.o)
 .data          0x0000000000000000        0x0 /home/slombardo/projects/BadgersRunFirmware/Build/core/core.a(AdaCallback.c.o)
 .bss           0x0000000000000000        0x0 /home/slombardo/projects/BadgersRunFirmware/Build/core/core.a(AdaCallback.c.o)
 .rodata.ada_callback_queue_resize.str1.4
                0x0000000000000000       0x38 /home/slombardo/projects/BadgersRunFirmware/Build/core/core.a(AdaCallback.c.o)
 .text.ada_callback_queue_resize
                0x0000000000000000       0x80 /home/slombardo/projects/BadgersRunFirmware/Build/core/core.a(AdaCallback.c.o)
 .rodata.ada_callback_queue.str1.4
                0x0000000000000000       0x24 /home/slombardo/projects/BadgersRunFirmware/Build/core/core.a(AdaCallback.c.o)
 .text.ada_callback_queue
                0x0000000000000000       0xa0 /home/slombardo/projects/BadgersRunFirmware/Build/core/core.a(AdaCallback.c.o)
 .text.ada_callback_invoke
                0x0000000000000000       0xd4 /home/slombardo/projects/BadgersRunFirmware/Build/core/core.a(AdaCallback.c.o)
 .text          0x0000000000000000        0x0 /home/slombardo/projects/BadgersRunFirmware/Build/core/core.a(utilities.c.o)
 .data          0x0000000000000000        0x0 /home/slombardo/projects/BadgersRunFirmware/Build/core/core.a(utilities.c.o)
 .bss           0x0000000000000000        0x0 /home/slombardo/projects/BadgersRunFirmware/Build/core/core.a(utilities.c.o)
 .text          0x0000000000000000        0x0 /home/slombardo/projects/BadgersRunFirmware/Build/core/core.a(RingBuffer.cpp.o)
 .data          0x0000000000000000        0x0 /home/slombardo/projects/BadgersRunFirmware/Build/core/core.a(RingBuffer.cpp.o)
 .bss           0x0000000000000000        0x0 /home/slombardo/projects/BadgersRunFirmware/Build/core/core.a(RingBuffer.cpp.o)
 .text._ZN10RingBuffer9nextIndexEi
                0x0000000000000000        0x8 /home/slombardo/projects/BadgersRunFirmware/Build/core/core.a(RingBuffer.cpp.o)
 .text._ZN10RingBuffer6isFullEv
                0x0000000000000000       0x14 /home/slombardo/projects/BadgersRunFirmware/Build/core/core.a(RingBuffer.cpp.o)
 .text          0x0000000000000000        0x0 /home/slombardo/.arduino15/packages/adafruit/tools/arm-none-eabi-gcc/9-2019q4/bin/../lib/gcc/arm-none-eabi/9.2.1/../../../../arm-none-eabi/lib/thumb/v7e-m+fp/hard/libc_nano.a(lib_a-exit.o)
 .data          0x0000000000000000        0x0 /home/slombardo/.arduino15/packages/adafruit/tools/arm-none-eabi-gcc/9-2019q4/bin/../lib/gcc/arm-none-eabi/9.2.1/../../../../arm-none-eabi/lib/thumb/v7e-m+fp/hard/libc_nano.a(lib_a-exit.o)
 .bss           0x0000000000000000        0x0 /home/slombardo/.arduino15/packages/adafruit/tools/arm-none-eabi-gcc/9-2019q4/bin/../lib/gcc/arm-none-eabi/9.2.1/../../../../arm-none-eabi/lib/thumb/v7e-m+fp/hard/libc_nano.a(lib_a-exit.o)
 .text          0x0000000000000000        0x0 /home/slombardo/.arduino15/packages/adafruit/tools/arm-none-eabi-gcc/9-2019q4/bin/../lib/gcc/arm-none-eabi/9.2.1/../../../../arm-none-eabi/lib/thumb/v7e-m+fp/hard/libc_nano.a(lib_a-impure.o)
 .data          0x0000000000000000        0x0 /home/slombardo/.arduino15/packages/adafruit/tools/arm-none-eabi-gcc/9-2019q4/bin/../lib/gcc/arm-none-eabi/9.2.1/../../../../arm-none-eabi/lib/thumb/v7e-m+fp/hard/libc_nano.a(lib_a-impure.o)
 .bss           0x0000000000000000        0x0 /home/slombardo/.arduino15/packages/adafruit/tools/arm-none-eabi-gcc/9-2019q4/bin/../lib/gcc/arm-none-eabi/9.2.1/../../../../arm-none-eabi/lib/thumb/v7e-m+fp/hard/libc_nano.a(lib_a-impure.o)
 .text          0x0000000000000000        0x0 /home/slombardo/.arduino15/packages/adafruit/tools/arm-none-eabi-gcc/9-2019q4/bin/../lib/gcc/arm-none-eabi/9.2.1/../../../../arm-none-eabi/lib/thumb/v7e-m+fp/hard/libc_nano.a(lib_a-init.o)
 .data          0x0000000000000000        0x0 /home/slombardo/.arduino15/packages/adafruit/tools/arm-none-eabi-gcc/9-2019q4/bin/../lib/gcc/arm-none-eabi/9.2.1/../../../../arm-none-eabi/lib/thumb/v7e-m+fp/hard/libc_nano.a(lib_a-init.o)
 .bss           0x0000000000000000        0x0 /home/slombardo/.arduino15/packages/adafruit/tools/arm-none-eabi-gcc/9-2019q4/bin/../lib/gcc/arm-none-eabi/9.2.1/../../../../arm-none-eabi/lib/thumb/v7e-m+fp/hard/libc_nano.a(lib_a-init.o)
 .text          0x0000000000000000        0x0 /home/slombardo/.arduino15/packages/adafruit/tools/arm-none-eabi-gcc/9-2019q4/bin/../lib/gcc/arm-none-eabi/9.2.1/../../../../arm-none-eabi/lib/thumb/v7e-m+fp/hard/libc_nano.a(lib_a-isprint.o)
 .data          0x0000000000000000        0x0 /home/slombardo/.arduino15/packages/adafruit/tools/arm-none-eabi-gcc/9-2019q4/bin/../lib/gcc/arm-none-eabi/9.2.1/../../../../arm-none-eabi/lib/thumb/v7e-m+fp/hard/libc_nano.a(lib_a-isprint.o)
 .bss           0x0000000000000000        0x0 /home/slombardo/.arduino15/packages/adafruit/tools/arm-none-eabi-gcc/9-2019q4/bin/../lib/gcc/arm-none-eabi/9.2.1/../../../../arm-none-eabi/lib/thumb/v7e-m+fp/hard/libc_nano.a(lib_a-isprint.o)
 .text.isgraph  0x0000000000000000       0x10 /home/slombardo/.arduino15/packages/adafruit/tools/arm-none-eabi-gcc/9-2019q4/bin/../lib/gcc/arm-none-eabi/9.2.1/../../../../arm-none-eabi/lib/thumb/v7e-m+fp/hard/libc_nano.a(lib_a-isprint.o)
 .text.isprint  0x0000000000000000       0x10 /home/slombardo/.arduino15/packages/adafruit/tools/arm-none-eabi-gcc/9-2019q4/bin/../lib/gcc/arm-none-eabi/9.2.1/../../../../arm-none-eabi/lib/thumb/v7e-m+fp/hard/libc_nano.a(lib_a-isprint.o)
 .debug_frame   0x0000000000000000       0x30 /home/slombardo/.arduino15/packages/adafruit/tools/arm-none-eabi-gcc/9-2019q4/bin/../lib/gcc/arm-none-eabi/9.2.1/../../../../arm-none-eabi/lib/thumb/v7e-m+fp/hard/libc_nano.a(lib_a-isprint.o)
 .ARM.attributes
                0x0000000000000000       0x34 /home/slombardo/.arduino15/packages/adafruit/tools/arm-none-eabi-gcc/9-2019q4/bin/../lib/gcc/arm-none-eabi/9.2.1/../../../../arm-none-eabi/lib/thumb/v7e-m+fp/hard/libc_nano.a(lib_a-isprint.o)
 .text          0x0000000000000000        0x0 /home/slombardo/.arduino15/packages/adafruit/tools/arm-none-eabi-gcc/9-2019q4/bin/../lib/gcc/arm-none-eabi/9.2.1/../../../../arm-none-eabi/lib/thumb/v7e-m+fp/hard/libc_nano.a(lib_a-malloc.o)
 .data          0x0000000000000000        0x0 /home/slombardo/.arduino15/packages/adafruit/tools/arm-none-eabi-gcc/9-2019q4/bin/../lib/gcc/arm-none-eabi/9.2.1/../../../../arm-none-eabi/lib/thumb/v7e-m+fp/hard/libc_nano.a(lib_a-malloc.o)
 .bss           0x0000000000000000        0x0 /home/slombardo/.arduino15/packages/adafruit/tools/arm-none-eabi-gcc/9-2019q4/bin/../lib/gcc/arm-none-eabi/9.2.1/../../../../arm-none-eabi/lib/thumb/v7e-m+fp/hard/libc_nano.a(lib_a-malloc.o)
 .text          0x0000000000000000        0x0 /home/slombardo/.arduino15/packages/adafruit/tools/arm-none-eabi-gcc/9-2019q4/bin/../lib/gcc/arm-none-eabi/9.2.1/../../../../arm-none-eabi/lib/thumb/v7e-m+fp/hard/libc_nano.a(lib_a-memcpy-stub.o)
 .data          0x0000000000000000        0x0 /home/slombardo/.arduino15/packages/adafruit/tools/arm-none-eabi-gcc/9-2019q4/bin/../lib/gcc/arm-none-eabi/9.2.1/../../../../arm-none-eabi/lib/thumb/v7e-m+fp/hard/libc_nano.a(lib_a-memcpy-stub.o)
 .bss           0x0000000000000000        0x0 /home/slombardo/.arduino15/packages/adafruit/tools/arm-none-eabi-gcc/9-2019q4/bin/../lib/gcc/arm-none-eabi/9.2.1/../../../../arm-none-eabi/lib/thumb/v7e-m+fp/hard/libc_nano.a(lib_a-memcpy-stub.o)
 .text          0x0000000000000000        0x0 /home/slombardo/.arduino15/packages/adafruit/tools/arm-none-eabi-gcc/9-2019q4/bin/../lib/gcc/arm-none-eabi/9.2.1/../../../../arm-none-eabi/lib/thumb/v7e-m+fp/hard/libc_nano.a(lib_a-memset.o)
 .data          0x0000000000000000        0x0 /home/slombardo/.arduino15/packages/adafruit/tools/arm-none-eabi-gcc/9-2019q4/bin/../lib/gcc/arm-none-eabi/9.2.1/../../../../arm-none-eabi/lib/thumb/v7e-m+fp/hard/libc_nano.a(lib_a-memset.o)
 .bss           0x0000000000000000        0x0 /home/slombardo/.arduino15/packages/adafruit/tools/arm-none-eabi-gcc/9-2019q4/bin/../lib/gcc/arm-none-eabi/9.2.1/../../../../arm-none-eabi/lib/thumb/v7e-m+fp/hard/libc_nano.a(lib_a-memset.o)
 .text          0x0000000000000000        0x0 /home/slombardo/.arduino15/packages/adafruit/tools/arm-none-eabi-gcc/9-2019q4/bin/../lib/gcc/arm-none-eabi/9.2.1/../../../../arm-none-eabi/lib/thumb/v7e-m+fp/hard/libc_nano.a(lib_a-mstats.o)
 .data          0x0000000000000000        0x0 /home/slombardo/.arduino15/packages/adafruit/tools/arm-none-eabi-gcc/9-2019q4/bin/../lib/gcc/arm-none-eabi/9.2.1/../../../../arm-none-eabi/lib/thumb/v7e-m+fp/hard/libc_nano.a(lib_a-mstats.o)
 .bss           0x0000000000000000        0x0 /home/slombardo/.arduino15/packages/adafruit/tools/arm-none-eabi-gcc/9-2019q4/bin/../lib/gcc/arm-none-eabi/9.2.1/../../../../arm-none-eabi/lib/thumb/v7e-m+fp/hard/libc_nano.a(lib_a-mstats.o)
 .text.mallinfo
                0x0000000000000000       0x14 /home/slombardo/.arduino15/packages/adafruit/tools/arm-none-eabi-gcc/9-2019q4/bin/../lib/gcc/arm-none-eabi/9.2.1/../../../../arm-none-eabi/lib/thumb/v7e-m+fp/hard/libc_nano.a(lib_a-mstats.o)
 .text.malloc_stats
                0x0000000000000000        0xc /home/slombardo/.arduino15/packages/adafruit/tools/arm-none-eabi-gcc/9-2019q4/bin/../lib/gcc/arm-none-eabi/9.2.1/../../../../arm-none-eabi/lib/thumb/v7e-m+fp/hard/libc_nano.a(lib_a-mstats.o)
 .text.mallopt  0x0000000000000000       0x10 /home/slombardo/.arduino15/packages/adafruit/tools/arm-none-eabi-gcc/9-2019q4/bin/../lib/gcc/arm-none-eabi/9.2.1/../../../../arm-none-eabi/lib/thumb/v7e-m+fp/hard/libc_nano.a(lib_a-mstats.o)
 .rodata._mstats_r.str1.1
                0x0000000000000000       0x21 /home/slombardo/.arduino15/packages/adafruit/tools/arm-none-eabi-gcc/9-2019q4/bin/../lib/gcc/arm-none-eabi/9.2.1/../../../../arm-none-eabi/lib/thumb/v7e-m+fp/hard/libc_nano.a(lib_a-mstats.o)
 .text._mstats_r
                0x0000000000000000       0x2c /home/slombardo/.arduino15/packages/adafruit/tools/arm-none-eabi-gcc/9-2019q4/bin/../lib/gcc/arm-none-eabi/9.2.1/../../../../arm-none-eabi/lib/thumb/v7e-m+fp/hard/libc_nano.a(lib_a-mstats.o)
 .text.mstats   0x0000000000000000       0x10 /home/slombardo/.arduino15/packages/adafruit/tools/arm-none-eabi-gcc/9-2019q4/bin/../lib/gcc/arm-none-eabi/9.2.1/../../../../arm-none-eabi/lib/thumb/v7e-m+fp/hard/libc_nano.a(lib_a-mstats.o)
 .debug_frame   0x0000000000000000       0x78 /home/slombardo/.arduino15/packages/adafruit/tools/arm-none-eabi-gcc/9-2019q4/bin/../lib/gcc/arm-none-eabi/9.2.1/../../../../arm-none-eabi/lib/thumb/v7e-m+fp/hard/libc_nano.a(lib_a-mstats.o)
 .ARM.attributes
                0x0000000000000000       0x34 /home/slombardo/.arduino15/packages/adafruit/tools/arm-none-eabi-gcc/9-2019q4/bin/../lib/gcc/arm-none-eabi/9.2.1/../../../../arm-none-eabi/lib/thumb/v7e-m+fp/hard/libc_nano.a(lib_a-mstats.o)
 .text          0x0000000000000000        0x0 /home/slombardo/.arduino15/packages/adafruit/tools/arm-none-eabi-gcc/9-2019q4/bin/../lib/gcc/arm-none-eabi/9.2.1/../../../../arm-none-eabi/lib/thumb/v7e-m+fp/hard/libc_nano.a(lib_a-nano-freer.o)
 .data          0x0000000000000000        0x0 /home/slombardo/.arduino15/packages/adafruit/tools/arm-none-eabi-gcc/9-2019q4/bin/../lib/gcc/arm-none-eabi/9.2.1/../../../../arm-none-eabi/lib/thumb/v7e-m+fp/hard/libc_nano.a(lib_a-nano-freer.o)
 .bss           0x0000000000000000        0x0 /home/slombardo/.arduino15/packages/adafruit/tools/arm-none-eabi-gcc/9-2019q4/bin/../lib/gcc/arm-none-eabi/9.2.1/../../../../arm-none-eabi/lib/thumb/v7e-m+fp/hard/libc_nano.a(lib_a-nano-freer.o)
 .text          0x0000000000000000        0x0 /home/slombardo/.arduino15/packages/adafruit/tools/arm-none-eabi-gcc/9-2019q4/bin/../lib/gcc/arm-none-eabi/9.2.1/../../../../arm-none-eabi/lib/thumb/v7e-m+fp/hard/libc_nano.a(lib_a-nano-mallinfor.o)
 .data          0x0000000000000000        0x0 /home/slombardo/.arduino15/packages/adafruit/tools/arm-none-eabi-gcc/9-2019q4/bin/../lib/gcc/arm-none-eabi/9.2.1/../../../../arm-none-eabi/lib/thumb/v7e-m+fp/hard/libc_nano.a(lib_a-nano-mallinfor.o)
 .bss           0x0000000000000000        0x0 /home/slombardo/.arduino15/packages/adafruit/tools/arm-none-eabi-gcc/9-2019q4/bin/../lib/gcc/arm-none-eabi/9.2.1/../../../../arm-none-eabi/lib/thumb/v7e-m+fp/hard/libc_nano.a(lib_a-nano-mallinfor.o)
 .text._mallinfo_r
                0x0000000000000000       0x68 /home/slombardo/.arduino15/packages/adafruit/tools/arm-none-eabi-gcc/9-2019q4/bin/../lib/gcc/arm-none-eabi/9.2.1/../../../../arm-none-eabi/lib/thumb/v7e-m+fp/hard/libc_nano.a(lib_a-nano-mallinfor.o)
 .bss.__malloc_current_mallinfo
                0x0000000000000000       0x28 /home/slombardo/.arduino15/packages/adafruit/tools/arm-none-eabi-gcc/9-2019q4/bin/../lib/gcc/arm-none-eabi/9.2.1/../../../../arm-none-eabi/lib/thumb/v7e-m+fp/hard/libc_nano.a(lib_a-nano-mallinfor.o)
 .debug_frame   0x0000000000000000       0x2c /home/slombardo/.arduino15/packages/adafruit/tools/arm-none-eabi-gcc/9-2019q4/bin/../lib/gcc/arm-none-eabi/9.2.1/../../../../arm-none-eabi/lib/thumb/v7e-m+fp/hard/libc_nano.a(lib_a-nano-mallinfor.o)
 .ARM.attributes
                0x0000000000000000       0x34 /home/slombardo/.arduino15/packages/adafruit/tools/arm-none-eabi-gcc/9-2019q4/bin/../lib/gcc/arm-none-eabi/9.2.1/../../../../arm-none-eabi/lib/thumb/v7e-m+fp/hard/libc_nano.a(lib_a-nano-mallinfor.o)
 .text          0x0000000000000000        0x0 /home/slombardo/.arduino15/packages/adafruit/tools/arm-none-eabi-gcc/9-2019q4/bin/../lib/gcc/arm-none-eabi/9.2.1/../../../../arm-none-eabi/lib/thumb/v7e-m+fp/hard/libc_nano.a(lib_a-nano-mallocr.o)
 .data          0x0000000000000000        0x0 /home/slombardo/.arduino15/packages/adafruit/tools/arm-none-eabi-gcc/9-2019q4/bin/../lib/gcc/arm-none-eabi/9.2.1/../../../../arm-none-eabi/lib/thumb/v7e-m+fp/hard/libc_nano.a(lib_a-nano-mallocr.o)
 .bss           0x0000000000000000        0x0 /home/slombardo/.arduino15/packages/adafruit/tools/arm-none-eabi-gcc/9-2019q4/bin/../lib/gcc/arm-none-eabi/9.2.1/../../../../arm-none-eabi/lib/thumb/v7e-m+fp/hard/libc_nano.a(lib_a-nano-mallocr.o)
 .text          0x0000000000000000        0x0 /home/slombardo/.arduino15/packages/adafruit/tools/arm-none-eabi-gcc/9-2019q4/bin/../lib/gcc/arm-none-eabi/9.2.1/../../../../arm-none-eabi/lib/thumb/v7e-m+fp/hard/libc_nano.a(lib_a-nano-malloptr.o)
 .data          0x0000000000000000        0x0 /home/slombardo/.arduino15/packages/adafruit/tools/arm-none-eabi-gcc/9-2019q4/bin/../lib/gcc/arm-none-eabi/9.2.1/../../../../arm-none-eabi/lib/thumb/v7e-m+fp/hard/libc_nano.a(lib_a-nano-malloptr.o)
 .bss           0x0000000000000000        0x0 /home/slombardo/.arduino15/packages/adafruit/tools/arm-none-eabi-gcc/9-2019q4/bin/../lib/gcc/arm-none-eabi/9.2.1/../../../../arm-none-eabi/lib/thumb/v7e-m+fp/hard/libc_nano.a(lib_a-nano-malloptr.o)
 .text._mallopt_r
                0x0000000000000000        0x4 /home/slombardo/.arduino15/packages/adafruit/tools/arm-none-eabi-gcc/9-2019q4/bin/../lib/gcc/arm-none-eabi/9.2.1/../../../../arm-none-eabi/lib/thumb/v7e-m+fp/hard/libc_nano.a(lib_a-nano-malloptr.o)
 .debug_frame   0x0000000000000000       0x20 /home/slombardo/.arduino15/packages/adafruit/tools/arm-none-eabi-gcc/9-2019q4/bin/../lib/gcc/arm-none-eabi/9.2.1/../../../../arm-none-eabi/lib/thumb/v7e-m+fp/hard/libc_nano.a(lib_a-nano-malloptr.o)
 .ARM.attributes
                0x0000000000000000       0x34 /home/slombardo/.arduino15/packages/adafruit/tools/arm-none-eabi-gcc/9-2019q4/bin/../lib/gcc/arm-none-eabi/9.2.1/../../../../arm-none-eabi/lib/thumb/v7e-m+fp/hard/libc_nano.a(lib_a-nano-malloptr.o)
 .text          0x0000000000000000        0x0 /home/slombardo/.arduino15/packages/adafruit/tools/arm-none-eabi-gcc/9-2019q4/bin/../lib/gcc/arm-none-eabi/9.2.1/../../../../arm-none-eabi/lib/thumb/v7e-m+fp/hard/libc_nano.a(lib_a-nano-mallstatsr.o)
 .data          0x0000000000000000        0x0 /home/slombardo/.arduino15/packages/adafruit/tools/arm-none-eabi-gcc/9-2019q4/bin/../lib/gcc/arm-none-eabi/9.2.1/../../../../arm-none-eabi/lib/thumb/v7e-m+fp/hard/libc_nano.a(lib_a-nano-mallstatsr.o)
 .bss           0x0000000000000000        0x0 /home/slombardo/.arduino15/packages/adafruit/tools/arm-none-eabi-gcc/9-2019q4/bin/../lib/gcc/arm-none-eabi/9.2.1/../../../../arm-none-eabi/lib/thumb/v7e-m+fp/hard/libc_nano.a(lib_a-nano-mallstatsr.o)
 .rodata._malloc_stats_r.str1.1
                0x0000000000000000       0x4b /home/slombardo/.arduino15/packages/adafruit/tools/arm-none-eabi-gcc/9-2019q4/bin/../lib/gcc/arm-none-eabi/9.2.1/../../../../arm-none-eabi/lib/thumb/v7e-m+fp/hard/libc_nano.a(lib_a-nano-mallstatsr.o)
 .text._malloc_stats_r
                0x0000000000000000       0x50 /home/slombardo/.arduino15/packages/adafruit/tools/arm-none-eabi-gcc/9-2019q4/bin/../lib/gcc/arm-none-eabi/9.2.1/../../../../arm-none-eabi/lib/thumb/v7e-m+fp/hard/libc_nano.a(lib_a-nano-mallstatsr.o)
 .debug_frame   0x0000000000000000       0x38 /home/slombardo/.arduino15/packages/adafruit/tools/arm-none-eabi-gcc/9-2019q4/bin/../lib/gcc/arm-none-eabi/9.2.1/../../../../arm-none-eabi/lib/thumb/v7e-m+fp/hard/libc_nano.a(lib_a-nano-mallstatsr.o)
 .ARM.attributes
                0x0000000000000000       0x34 /home/slombardo/.arduino15/packages/adafruit/tools/arm-none-eabi-gcc/9-2019q4/bin/../lib/gcc/arm-none-eabi/9.2.1/../../../../arm-none-eabi/lib/thumb/v7e-m+fp/hard/libc_nano.a(lib_a-nano-mallstatsr.o)
 .text          0x0000000000000000        0x0 /home/slombardo/.arduino15/packages/adafruit/tools/arm-none-eabi-gcc/9-2019q4/bin/../lib/gcc/arm-none-eabi/9.2.1/../../../../arm-none-eabi/lib/thumb/v7e-m+fp/hard/libc_nano.a(lib_a-nano-vfprintf_float.o)
 .data          0x0000000000000000        0x0 /home/slombardo/.arduino15/packages/adafruit/tools/arm-none-eabi-gcc/9-2019q4/bin/../lib/gcc/arm-none-eabi/9.2.1/../../../../arm-none-eabi/lib/thumb/v7e-m+fp/hard/libc_nano.a(lib_a-nano-vfprintf_float.o)
 .bss           0x0000000000000000        0x0 /home/slombardo/.arduino15/packages/adafruit/tools/arm-none-eabi-gcc/9-2019q4/bin/../lib/gcc/arm-none-eabi/9.2.1/../../../../arm-none-eabi/lib/thumb/v7e-m+fp/hard/libc_nano.a(lib_a-nano-vfprintf_float.o)
 .text          0x0000000000000000        0x0 /home/slombardo/.arduino15/packages/adafruit/tools/arm-none-eabi-gcc/9-2019q4/bin/../lib/gcc/arm-none-eabi/9.2.1/../../../../arm-none-eabi/lib/thumb/v7e-m+fp/hard/libc_nano.a(lib_a-nano-vfprintf_i.o)
 .data          0x0000000000000000        0x0 /home/slombardo/.arduino15/packages/adafruit/tools/arm-none-eabi-gcc/9-2019q4/bin/../lib/gcc/arm-none-eabi/9.2.1/../../../../arm-none-eabi/lib/thumb/v7e-m+fp/hard/libc_nano.a(lib_a-nano-vfprintf_i.o)
 .bss           0x0000000000000000        0x0 /home/slombardo/.arduino15/packages/adafruit/tools/arm-none-eabi-gcc/9-2019q4/bin/../lib/gcc/arm-none-eabi/9.2.1/../../../../arm-none-eabi/lib/thumb/v7e-m+fp/hard/libc_nano.a(lib_a-nano-vfprintf_i.o)
 .text          0x0000000000000000        0x0 /home/slombardo/.arduino15/packages/adafruit/tools/arm-none-eabi-gcc/9-2019q4/bin/../lib/gcc/arm-none-eabi/9.2.1/../../../../arm-none-eabi/lib/thumb/v7e-m+fp/hard/libc_nano.a(lib_a-printf.o)
 .data          0x0000000000000000        0x0 /home/slombardo/.arduino15/packages/adafruit/tools/arm-none-eabi-gcc/9-2019q4/bin/../lib/gcc/arm-none-eabi/9.2.1/../../../../arm-none-eabi/lib/thumb/v7e-m+fp/hard/libc_nano.a(lib_a-printf.o)
 .bss           0x0000000000000000        0x0 /home/slombardo/.arduino15/packages/adafruit/tools/arm-none-eabi-gcc/9-2019q4/bin/../lib/gcc/arm-none-eabi/9.2.1/../../../../arm-none-eabi/lib/thumb/v7e-m+fp/hard/libc_nano.a(lib_a-printf.o)
 .text._printf_r
                0x0000000000000000       0x28 /home/slombardo/.arduino15/packages/adafruit/tools/arm-none-eabi-gcc/9-2019q4/bin/../lib/gcc/arm-none-eabi/9.2.1/../../../../arm-none-eabi/lib/thumb/v7e-m+fp/hard/libc_nano.a(lib_a-printf.o)
 .text          0x0000000000000000        0x0 /home/slombardo/.arduino15/packages/adafruit/tools/arm-none-eabi-gcc/9-2019q4/bin/../lib/gcc/arm-none-eabi/9.2.1/../../../../arm-none-eabi/lib/thumb/v7e-m+fp/hard/libc_nano.a(lib_a-putchar.o)
 .data          0x0000000000000000        0x0 /home/slombardo/.arduino15/packages/adafruit/tools/arm-none-eabi-gcc/9-2019q4/bin/../lib/gcc/arm-none-eabi/9.2.1/../../../../arm-none-eabi/lib/thumb/v7e-m+fp/hard/libc_nano.a(lib_a-putchar.o)
 .bss           0x0000000000000000        0x0 /home/slombardo/.arduino15/packages/adafruit/tools/arm-none-eabi-gcc/9-2019q4/bin/../lib/gcc/arm-none-eabi/9.2.1/../../../../arm-none-eabi/lib/thumb/v7e-m+fp/hard/libc_nano.a(lib_a-putchar.o)
 .text._putchar_r
                0x0000000000000000       0x20 /home/slombardo/.arduino15/packages/adafruit/tools/arm-none-eabi-gcc/9-2019q4/bin/../lib/gcc/arm-none-eabi/9.2.1/../../../../arm-none-eabi/lib/thumb/v7e-m+fp/hard/libc_nano.a(lib_a-putchar.o)
 .text          0x0000000000000000        0x0 /home/slombardo/.arduino15/packages/adafruit/tools/arm-none-eabi-gcc/9-2019q4/bin/../lib/gcc/arm-none-eabi/9.2.1/../../../../arm-none-eabi/lib/thumb/v7e-m+fp/hard/libc_nano.a(lib_a-puts.o)
 .data          0x0000000000000000        0x0 /home/slombardo/.arduino15/packages/adafruit/tools/arm-none-eabi-gcc/9-2019q4/bin/../lib/gcc/arm-none-eabi/9.2.1/../../../../arm-none-eabi/lib/thumb/v7e-m+fp/hard/libc_nano.a(lib_a-puts.o)
 .bss           0x0000000000000000        0x0 /home/slombardo/.arduino15/packages/adafruit/tools/arm-none-eabi-gcc/9-2019q4/bin/../lib/gcc/arm-none-eabi/9.2.1/../../../../arm-none-eabi/lib/thumb/v7e-m+fp/hard/libc_nano.a(lib_a-puts.o)
 .text          0x0000000000000000        0x0 /home/slombardo/.arduino15/packages/adafruit/tools/arm-none-eabi-gcc/9-2019q4/bin/../lib/gcc/arm-none-eabi/9.2.1/../../../../arm-none-eabi/lib/thumb/v7e-m+fp/hard/libc_nano.a(lib_a-sbrkr.o)
 .data          0x0000000000000000        0x0 /home/slombardo/.arduino15/packages/adafruit/tools/arm-none-eabi-gcc/9-2019q4/bin/../lib/gcc/arm-none-eabi/9.2.1/../../../../arm-none-eabi/lib/thumb/v7e-m+fp/hard/libc_nano.a(lib_a-sbrkr.o)
 .bss           0x0000000000000000        0x0 /home/slombardo/.arduino15/packages/adafruit/tools/arm-none-eabi-gcc/9-2019q4/bin/../lib/gcc/arm-none-eabi/9.2.1/../../../../arm-none-eabi/lib/thumb/v7e-m+fp/hard/libc_nano.a(lib_a-sbrkr.o)
 .text          0x0000000000000000        0x0 /home/slombardo/.arduino15/packages/adafruit/tools/arm-none-eabi-gcc/9-2019q4/bin/../lib/gcc/arm-none-eabi/9.2.1/../../../../arm-none-eabi/lib/thumb/v7e-m+fp/hard/libc_nano.a(lib_a-snprintf.o)
 .data          0x0000000000000000        0x0 /home/slombardo/.arduino15/packages/adafruit/tools/arm-none-eabi-gcc/9-2019q4/bin/../lib/gcc/arm-none-eabi/9.2.1/../../../../arm-none-eabi/lib/thumb/v7e-m+fp/hard/libc_nano.a(lib_a-snprintf.o)
 .bss           0x0000000000000000        0x0 /home/slombardo/.arduino15/packages/adafruit/tools/arm-none-eabi-gcc/9-2019q4/bin/../lib/gcc/arm-none-eabi/9.2.1/../../../../arm-none-eabi/lib/thumb/v7e-m+fp/hard/libc_nano.a(lib_a-snprintf.o)
 .text._snprintf_r
                0x0000000000000000       0x5e /home/slombardo/.arduino15/packages/adafruit/tools/arm-none-eabi-gcc/9-2019q4/bin/../lib/gcc/arm-none-eabi/9.2.1/../../../../arm-none-eabi/lib/thumb/v7e-m+fp/hard/libc_nano.a(lib_a-snprintf.o)
 .text.snprintf
                0x0000000000000000       0x68 /home/slombardo/.arduino15/packages/adafruit/tools/arm-none-eabi-gcc/9-2019q4/bin/../lib/gcc/arm-none-eabi/9.2.1/../../../../arm-none-eabi/lib/thumb/v7e-m+fp/hard/libc_nano.a(lib_a-snprintf.o)
 .debug_frame   0x0000000000000000       0x7c /home/slombardo/.arduino15/packages/adafruit/tools/arm-none-eabi-gcc/9-2019q4/bin/../lib/gcc/arm-none-eabi/9.2.1/../../../../arm-none-eabi/lib/thumb/v7e-m+fp/hard/libc_nano.a(lib_a-snprintf.o)
 .ARM.attributes
                0x0000000000000000       0x34 /home/slombardo/.arduino15/packages/adafruit/tools/arm-none-eabi-gcc/9-2019q4/bin/../lib/gcc/arm-none-eabi/9.2.1/../../../../arm-none-eabi/lib/thumb/v7e-m+fp/hard/libc_nano.a(lib_a-snprintf.o)
 .text          0x0000000000000000        0x0 /home/slombardo/.arduino15/packages/adafruit/tools/arm-none-eabi-gcc/9-2019q4/bin/../lib/gcc/arm-none-eabi/9.2.1/../../../../arm-none-eabi/lib/thumb/v7e-m+fp/hard/libc_nano.a(lib_a-sprintf.o)
 .data          0x0000000000000000        0x0 /home/slombardo/.arduino15/packages/adafruit/tools/arm-none-eabi-gcc/9-2019q4/bin/../lib/gcc/arm-none-eabi/9.2.1/../../../../arm-none-eabi/lib/thumb/v7e-m+fp/hard/libc_nano.a(lib_a-sprintf.o)
 .bss           0x0000000000000000        0x0 /home/slombardo/.arduino15/packages/adafruit/tools/arm-none-eabi-gcc/9-2019q4/bin/../lib/gcc/arm-none-eabi/9.2.1/../../../../arm-none-eabi/lib/thumb/v7e-m+fp/hard/libc_nano.a(lib_a-sprintf.o)
 .text._sprintf_r
                0x0000000000000000       0x38 /home/slombardo/.arduino15/packages/adafruit/tools/arm-none-eabi-gcc/9-2019q4/bin/../lib/gcc/arm-none-eabi/9.2.1/../../../../arm-none-eabi/lib/thumb/v7e-m+fp/hard/libc_nano.a(lib_a-sprintf.o)
 .text          0x0000000000000000        0x0 /home/slombardo/.arduino15/packages/adafruit/tools/arm-none-eabi-gcc/9-2019q4/bin/../lib/gcc/arm-none-eabi/9.2.1/../../../../arm-none-eabi/lib/thumb/v7e-m+fp/hard/libc_nano.a(lib_a-stpcpy.o)
 .data          0x0000000000000000        0x0 /home/slombardo/.arduino15/packages/adafruit/tools/arm-none-eabi-gcc/9-2019q4/bin/../lib/gcc/arm-none-eabi/9.2.1/../../../../arm-none-eabi/lib/thumb/v7e-m+fp/hard/libc_nano.a(lib_a-stpcpy.o)
 .bss           0x0000000000000000        0x0 /home/slombardo/.arduino15/packages/adafruit/tools/arm-none-eabi-gcc/9-2019q4/bin/../lib/gcc/arm-none-eabi/9.2.1/../../../../arm-none-eabi/lib/thumb/v7e-m+fp/hard/libc_nano.a(lib_a-stpcpy.o)
 .text.stpcpy   0x0000000000000000       0x12 /home/slombardo/.arduino15/packages/adafruit/tools/arm-none-eabi-gcc/9-2019q4/bin/../lib/gcc/arm-none-eabi/9.2.1/../../../../arm-none-eabi/lib/thumb/v7e-m+fp/hard/libc_nano.a(lib_a-stpcpy.o)
 .debug_frame   0x0000000000000000       0x20 /home/slombardo/.arduino15/packages/adafruit/tools/arm-none-eabi-gcc/9-2019q4/bin/../lib/gcc/arm-none-eabi/9.2.1/../../../../arm-none-eabi/lib/thumb/v7e-m+fp/hard/libc_nano.a(lib_a-stpcpy.o)
 .ARM.attributes
                0x0000000000000000       0x34 /home/slombardo/.arduino15/packages/adafruit/tools/arm-none-eabi-gcc/9-2019q4/bin/../lib/gcc/arm-none-eabi/9.2.1/../../../../arm-none-eabi/lib/thumb/v7e-m+fp/hard/libc_nano.a(lib_a-stpcpy.o)
 .data          0x0000000000000000        0x0 /home/slombardo/.arduino15/packages/adafruit/tools/arm-none-eabi-gcc/9-2019q4/bin/../lib/gcc/arm-none-eabi/9.2.1/../../../../arm-none-eabi/lib/thumb/v7e-m+fp/hard/libc_nano.a(lib_a-strlen.o)
 .bss           0x0000000000000000        0x0 /home/slombardo/.arduino15/packages/adafruit/tools/arm-none-eabi-gcc/9-2019q4/bin/../lib/gcc/arm-none-eabi/9.2.1/../../../../arm-none-eabi/lib/thumb/v7e-m+fp/hard/libc_nano.a(lib_a-strlen.o)
 .text          0x0000000000000000        0x0 /home/slombardo/.arduino15/packages/adafruit/tools/arm-none-eabi-gcc/9-2019q4/bin/../lib/gcc/arm-none-eabi/9.2.1/../../../../arm-none-eabi/lib/thumb/v7e-m+fp/hard/libc_nano.a(lib_a-vsnprintf.o)
 .data          0x0000000000000000        0x0 /home/slombardo/.arduino15/packages/adafruit/tools/arm-none-eabi-gcc/9-2019q4/bin/../lib/gcc/arm-none-eabi/9.2.1/../../../../arm-none-eabi/lib/thumb/v7e-m+fp/hard/libc_nano.a(lib_a-vsnprintf.o)
 .bss           0x0000000000000000        0x0 /home/slombardo/.arduino15/packages/adafruit/tools/arm-none-eabi-gcc/9-2019q4/bin/../lib/gcc/arm-none-eabi/9.2.1/../../../../arm-none-eabi/lib/thumb/v7e-m+fp/hard/libc_nano.a(lib_a-vsnprintf.o)
 .text._vsnprintf_r
                0x0000000000000000       0x58 /home/slombardo/.arduino15/packages/adafruit/tools/arm-none-eabi-gcc/9-2019q4/bin/../lib/gcc/arm-none-eabi/9.2.1/../../../../arm-none-eabi/lib/thumb/v7e-m+fp/hard/libc_nano.a(lib_a-vsnprintf.o)
 .text.vsnprintf
                0x0000000000000000       0x1c /home/slombardo/.arduino15/packages/adafruit/tools/arm-none-eabi-gcc/9-2019q4/bin/../lib/gcc/arm-none-eabi/9.2.1/../../../../arm-none-eabi/lib/thumb/v7e-m+fp/hard/libc_nano.a(lib_a-vsnprintf.o)
 .debug_frame   0x0000000000000000       0x4c /home/slombardo/.arduino15/packages/adafruit/tools/arm-none-eabi-gcc/9-2019q4/bin/../lib/gcc/arm-none-eabi/9.2.1/../../../../arm-none-eabi/lib/thumb/v7e-m+fp/hard/libc_nano.a(lib_a-vsnprintf.o)
 .ARM.attributes
                0x0000000000000000       0x34 /home/slombardo/.arduino15/packages/adafruit/tools/arm-none-eabi-gcc/9-2019q4/bin/../lib/gcc/arm-none-eabi/9.2.1/../../../../arm-none-eabi/lib/thumb/v7e-m+fp/hard/libc_nano.a(lib_a-vsnprintf.o)
 .text          0x0000000000000000        0x0 /home/slombardo/.arduino15/packages/adafruit/tools/arm-none-eabi-gcc/9-2019q4/bin/../lib/gcc/arm-none-eabi/9.2.1/../../../../arm-none-eabi/lib/thumb/v7e-m+fp/hard/libc_nano.a(lib_a-wbuf.o)
 .data          0x0000000000000000        0x0 /home/slombardo/.arduino15/packages/adafruit/tools/arm-none-eabi-gcc/9-2019q4/bin/../lib/gcc/arm-none-eabi/9.2.1/../../../../arm-none-eabi/lib/thumb/v7e-m+fp/hard/libc_nano.a(lib_a-wbuf.o)
 .bss           0x0000000000000000        0x0 /home/slombardo/.arduino15/packages/adafruit/tools/arm-none-eabi-gcc/9-2019q4/bin/../lib/gcc/arm-none-eabi/9.2.1/../../../../arm-none-eabi/lib/thumb/v7e-m+fp/hard/libc_nano.a(lib_a-wbuf.o)
 .text.__swbuf  0x0000000000000000       0x10 /home/slombardo/.arduino15/packages/adafruit/tools/arm-none-eabi-gcc/9-2019q4/bin/../lib/gcc/arm-none-eabi/9.2.1/../../../../arm-none-eabi/lib/thumb/v7e-m+fp/hard/libc_nano.a(lib_a-wbuf.o)
 .text          0x0000000000000000        0x0 /home/slombardo/.arduino15/packages/adafruit/tools/arm-none-eabi-gcc/9-2019q4/bin/../lib/gcc/arm-none-eabi/9.2.1/../../../../arm-none-eabi/lib/thumb/v7e-m+fp/hard/libc_nano.a(lib_a-wsetup.o)
 .data          0x0000000000000000        0x0 /home/slombardo/.arduino15/packages/adafruit/tools/arm-none-eabi-gcc/9-2019q4/bin/../lib/gcc/arm-none-eabi/9.2.1/../../../../arm-none-eabi/lib/thumb/v7e-m+fp/hard/libc_nano.a(lib_a-wsetup.o)
 .bss           0x0000000000000000        0x0 /home/slombardo/.arduino15/packages/adafruit/tools/arm-none-eabi-gcc/9-2019q4/bin/../lib/gcc/arm-none-eabi/9.2.1/../../../../arm-none-eabi/lib/thumb/v7e-m+fp/hard/libc_nano.a(lib_a-wsetup.o)
 .text          0x0000000000000000        0x0 /home/slombardo/.arduino15/packages/adafruit/tools/arm-none-eabi-gcc/9-2019q4/bin/../lib/gcc/arm-none-eabi/9.2.1/../../../../arm-none-eabi/lib/thumb/v7e-m+fp/hard/libc_nano.a(lib_a-ctype_.o)
 .data          0x0000000000000000        0x0 /home/slombardo/.arduino15/packages/adafruit/tools/arm-none-eabi-gcc/9-2019q4/bin/../lib/gcc/arm-none-eabi/9.2.1/../../../../arm-none-eabi/lib/thumb/v7e-m+fp/hard/libc_nano.a(lib_a-ctype_.o)
 .bss           0x0000000000000000        0x0 /home/slombardo/.arduino15/packages/adafruit/tools/arm-none-eabi-gcc/9-2019q4/bin/../lib/gcc/arm-none-eabi/9.2.1/../../../../arm-none-eabi/lib/thumb/v7e-m+fp/hard/libc_nano.a(lib_a-ctype_.o)
 .text          0x0000000000000000        0x0 /home/slombardo/.arduino15/packages/adafruit/tools/arm-none-eabi-gcc/9-2019q4/bin/../lib/gcc/arm-none-eabi/9.2.1/../../../../arm-none-eabi/lib/thumb/v7e-m+fp/hard/libc_nano.a(lib_a-dtoa.o)
 .data          0x0000000000000000        0x0 /home/slombardo/.arduino15/packages/adafruit/tools/arm-none-eabi-gcc/9-2019q4/bin/../lib/gcc/arm-none-eabi/9.2.1/../../../../arm-none-eabi/lib/thumb/v7e-m+fp/hard/libc_nano.a(lib_a-dtoa.o)
 .bss           0x0000000000000000        0x0 /home/slombardo/.arduino15/packages/adafruit/tools/arm-none-eabi-gcc/9-2019q4/bin/../lib/gcc/arm-none-eabi/9.2.1/../../../../arm-none-eabi/lib/thumb/v7e-m+fp/hard/libc_nano.a(lib_a-dtoa.o)
 .text          0x0000000000000000        0x0 /home/slombardo/.arduino15/packages/adafruit/tools/arm-none-eabi-gcc/9-2019q4/bin/../lib/gcc/arm-none-eabi/9.2.1/../../../../arm-none-eabi/lib/thumb/v7e-m+fp/hard/libc_nano.a(lib_a-fflush.o)
 .data          0x0000000000000000        0x0 /home/slombardo/.arduino15/packages/adafruit/tools/arm-none-eabi-gcc/9-2019q4/bin/../lib/gcc/arm-none-eabi/9.2.1/../../../../arm-none-eabi/lib/thumb/v7e-m+fp/hard/libc_nano.a(lib_a-fflush.o)
 .bss           0x0000000000000000        0x0 /home/slombardo/.arduino15/packages/adafruit/tools/arm-none-eabi-gcc/9-2019q4/bin/../lib/gcc/arm-none-eabi/9.2.1/../../../../arm-none-eabi/lib/thumb/v7e-m+fp/hard/libc_nano.a(lib_a-fflush.o)
 .text.fflush   0x0000000000000000       0x24 /home/slombardo/.arduino15/packages/adafruit/tools/arm-none-eabi-gcc/9-2019q4/bin/../lib/gcc/arm-none-eabi/9.2.1/../../../../arm-none-eabi/lib/thumb/v7e-m+fp/hard/libc_nano.a(lib_a-fflush.o)
 .text          0x0000000000000000        0x0 /home/slombardo/.arduino15/packages/adafruit/tools/arm-none-eabi-gcc/9-2019q4/bin/../lib/gcc/arm-none-eabi/9.2.1/../../../../arm-none-eabi/lib/thumb/v7e-m+fp/hard/libc_nano.a(lib_a-findfp.o)
 .data          0x0000000000000000        0x0 /home/slombardo/.arduino15/packages/adafruit/tools/arm-none-eabi-gcc/9-2019q4/bin/../lib/gcc/arm-none-eabi/9.2.1/../../../../arm-none-eabi/lib/thumb/v7e-m+fp/hard/libc_nano.a(lib_a-findfp.o)
 .bss           0x0000000000000000        0x0 /home/slombardo/.arduino15/packages/adafruit/tools/arm-none-eabi-gcc/9-2019q4/bin/../lib/gcc/arm-none-eabi/9.2.1/../../../../arm-none-eabi/lib/thumb/v7e-m+fp/hard/libc_nano.a(lib_a-findfp.o)
 .text.__fp_lock
                0x0000000000000000       0x18 /home/slombardo/.arduino15/packages/adafruit/tools/arm-none-eabi-gcc/9-2019q4/bin/../lib/gcc/arm-none-eabi/9.2.1/../../../../arm-none-eabi/lib/thumb/v7e-m+fp/hard/libc_nano.a(lib_a-findfp.o)
 .text.__fp_unlock
                0x0000000000000000       0x18 /home/slombardo/.arduino15/packages/adafruit/tools/arm-none-eabi-gcc/9-2019q4/bin/../lib/gcc/arm-none-eabi/9.2.1/../../../../arm-none-eabi/lib/thumb/v7e-m+fp/hard/libc_nano.a(lib_a-findfp.o)
 .text._cleanup
                0x0000000000000000        0xc /home/slombardo/.arduino15/packages/adafruit/tools/arm-none-eabi-gcc/9-2019q4/bin/../lib/gcc/arm-none-eabi/9.2.1/../../../../arm-none-eabi/lib/thumb/v7e-m+fp/hard/libc_nano.a(lib_a-findfp.o)
 .text.__fp_lock_all
                0x0000000000000000       0x1c /home/slombardo/.arduino15/packages/adafruit/tools/arm-none-eabi-gcc/9-2019q4/bin/../lib/gcc/arm-none-eabi/9.2.1/../../../../arm-none-eabi/lib/thumb/v7e-m+fp/hard/libc_nano.a(lib_a-findfp.o)
 .text.__fp_unlock_all
                0x0000000000000000       0x1c /home/slombardo/.arduino15/packages/adafruit/tools/arm-none-eabi-gcc/9-2019q4/bin/../lib/gcc/arm-none-eabi/9.2.1/../../../../arm-none-eabi/lib/thumb/v7e-m+fp/hard/libc_nano.a(lib_a-findfp.o)
 .text          0x0000000000000000        0x0 /home/slombardo/.arduino15/packages/adafruit/tools/arm-none-eabi-gcc/9-2019q4/bin/../lib/gcc/arm-none-eabi/9.2.1/../../../../arm-none-eabi/lib/thumb/v7e-m+fp/hard/libc_nano.a(lib_a-fprintf.o)
 .data          0x0000000000000000        0x0 /home/slombardo/.arduino15/packages/adafruit/tools/arm-none-eabi-gcc/9-2019q4/bin/../lib/gcc/arm-none-eabi/9.2.1/../../../../arm-none-eabi/lib/thumb/v7e-m+fp/hard/libc_nano.a(lib_a-fprintf.o)
 .bss           0x0000000000000000        0x0 /home/slombardo/.arduino15/packages/adafruit/tools/arm-none-eabi-gcc/9-2019q4/bin/../lib/gcc/arm-none-eabi/9.2.1/../../../../arm-none-eabi/lib/thumb/v7e-m+fp/hard/libc_nano.a(lib_a-fprintf.o)
 .text._fprintf_r
                0x0000000000000000       0x1a /home/slombardo/.arduino15/packages/adafruit/tools/arm-none-eabi-gcc/9-2019q4/bin/../lib/gcc/arm-none-eabi/9.2.1/../../../../arm-none-eabi/lib/thumb/v7e-m+fp/hard/libc_nano.a(lib_a-fprintf.o)
 .text.fprintf  0x0000000000000000       0x24 /home/slombardo/.arduino15/packages/adafruit/tools/arm-none-eabi-gcc/9-2019q4/bin/../lib/gcc/arm-none-eabi/9.2.1/../../../../arm-none-eabi/lib/thumb/v7e-m+fp/hard/libc_nano.a(lib_a-fprintf.o)
 .debug_frame   0x0000000000000000       0x64 /home/slombardo/.arduino15/packages/adafruit/tools/arm-none-eabi-gcc/9-2019q4/bin/../lib/gcc/arm-none-eabi/9.2.1/../../../../arm-none-eabi/lib/thumb/v7e-m+fp/hard/libc_nano.a(lib_a-fprintf.o)
 .ARM.attributes
                0x0000000000000000       0x34 /home/slombardo/.arduino15/packages/adafruit/tools/arm-none-eabi-gcc/9-2019q4/bin/../lib/gcc/arm-none-eabi/9.2.1/../../../../arm-none-eabi/lib/thumb/v7e-m+fp/hard/libc_nano.a(lib_a-fprintf.o)
 .text          0x0000000000000000        0x0 /home/slombardo/.arduino15/packages/adafruit/tools/arm-none-eabi-gcc/9-2019q4/bin/../lib/gcc/arm-none-eabi/9.2.1/../../../../arm-none-eabi/lib/thumb/v7e-m+fp/hard/libc_nano.a(lib_a-fwalk.o)
 .data          0x0000000000000000        0x0 /home/slombardo/.arduino15/packages/adafruit/tools/arm-none-eabi-gcc/9-2019q4/bin/../lib/gcc/arm-none-eabi/9.2.1/../../../../arm-none-eabi/lib/thumb/v7e-m+fp/hard/libc_nano.a(lib_a-fwalk.o)
 .bss           0x0000000000000000        0x0 /home/slombardo/.arduino15/packages/adafruit/tools/arm-none-eabi-gcc/9-2019q4/bin/../lib/gcc/arm-none-eabi/9.2.1/../../../../arm-none-eabi/lib/thumb/v7e-m+fp/hard/libc_nano.a(lib_a-fwalk.o)
 .text._fwalk   0x0000000000000000       0x3a /home/slombardo/.arduino15/packages/adafruit/tools/arm-none-eabi-gcc/9-2019q4/bin/../lib/gcc/arm-none-eabi/9.2.1/../../../../arm-none-eabi/lib/thumb/v7e-m+fp/hard/libc_nano.a(lib_a-fwalk.o)
 .text          0x0000000000000000        0x0 /home/slombardo/.arduino15/packages/adafruit/tools/arm-none-eabi-gcc/9-2019q4/bin/../lib/gcc/arm-none-eabi/9.2.1/../../../../arm-none-eabi/lib/thumb/v7e-m+fp/hard/libc_nano.a(lib_a-localeconv.o)
 .data          0x0000000000000000        0x0 /home/slombardo/.arduino15/packages/adafruit/tools/arm-none-eabi-gcc/9-2019q4/bin/../lib/gcc/arm-none-eabi/9.2.1/../../../../arm-none-eabi/lib/thumb/v7e-m+fp/hard/libc_nano.a(lib_a-localeconv.o)
 .bss           0x0000000000000000        0x0 /home/slombardo/.arduino15/packages/adafruit/tools/arm-none-eabi-gcc/9-2019q4/bin/../lib/gcc/arm-none-eabi/9.2.1/../../../../arm-none-eabi/lib/thumb/v7e-m+fp/hard/libc_nano.a(lib_a-localeconv.o)
 .text.__localeconv_l
                0x0000000000000000        0x4 /home/slombardo/.arduino15/packages/adafruit/tools/arm-none-eabi-gcc/9-2019q4/bin/../lib/gcc/arm-none-eabi/9.2.1/../../../../arm-none-eabi/lib/thumb/v7e-m+fp/hard/libc_nano.a(lib_a-localeconv.o)
 .text.localeconv
                0x0000000000000000        0x8 /home/slombardo/.arduino15/packages/adafruit/tools/arm-none-eabi-gcc/9-2019q4/bin/../lib/gcc/arm-none-eabi/9.2.1/../../../../arm-none-eabi/lib/thumb/v7e-m+fp/hard/libc_nano.a(lib_a-localeconv.o)
 .text          0x0000000000000000        0x0 /home/slombardo/.arduino15/packages/adafruit/tools/arm-none-eabi-gcc/9-2019q4/bin/../lib/gcc/arm-none-eabi/9.2.1/../../../../arm-none-eabi/lib/thumb/v7e-m+fp/hard/libc_nano.a(lib_a-lock.o)
 .data          0x0000000000000000        0x0 /home/slombardo/.arduino15/packages/adafruit/tools/arm-none-eabi-gcc/9-2019q4/bin/../lib/gcc/arm-none-eabi/9.2.1/../../../../arm-none-eabi/lib/thumb/v7e-m+fp/hard/libc_nano.a(lib_a-lock.o)
 .bss           0x0000000000000000        0x0 /home/slombardo/.arduino15/packages/adafruit/tools/arm-none-eabi-gcc/9-2019q4/bin/../lib/gcc/arm-none-eabi/9.2.1/../../../../arm-none-eabi/lib/thumb/v7e-m+fp/hard/libc_nano.a(lib_a-lock.o)
 .text.__retarget_lock_init
                0x0000000000000000        0x2 /home/slombardo/.arduino15/packages/adafruit/tools/arm-none-eabi-gcc/9-2019q4/bin/../lib/gcc/arm-none-eabi/9.2.1/../../../../arm-none-eabi/lib/thumb/v7e-m+fp/hard/libc_nano.a(lib_a-lock.o)
 .text.__retarget_lock_close
                0x0000000000000000        0x2 /home/slombardo/.arduino15/packages/adafruit/tools/arm-none-eabi-gcc/9-2019q4/bin/../lib/gcc/arm-none-eabi/9.2.1/../../../../arm-none-eabi/lib/thumb/v7e-m+fp/hard/libc_nano.a(lib_a-lock.o)
 .text.__retarget_lock_close_recursive
                0x0000000000000000        0x2 /home/slombardo/.arduino15/packages/adafruit/tools/arm-none-eabi-gcc/9-2019q4/bin/../lib/gcc/arm-none-eabi/9.2.1/../../../../arm-none-eabi/lib/thumb/v7e-m+fp/hard/libc_nano.a(lib_a-lock.o)
 .text.__retarget_lock_acquire
                0x0000000000000000        0x2 /home/slombardo/.arduino15/packages/adafruit/tools/arm-none-eabi-gcc/9-2019q4/bin/../lib/gcc/arm-none-eabi/9.2.1/../../../../arm-none-eabi/lib/thumb/v7e-m+fp/hard/libc_nano.a(lib_a-lock.o)
 .text.__retarget_lock_try_acquire
                0x0000000000000000        0x4 /home/slombardo/.arduino15/packages/adafruit/tools/arm-none-eabi-gcc/9-2019q4/bin/../lib/gcc/arm-none-eabi/9.2.1/../../../../arm-none-eabi/lib/thumb/v7e-m+fp/hard/libc_nano.a(lib_a-lock.o)
 .text.__retarget_lock_try_acquire_recursive
                0x0000000000000000        0x4 /home/slombardo/.arduino15/packages/adafruit/tools/arm-none-eabi-gcc/9-2019q4/bin/../lib/gcc/arm-none-eabi/9.2.1/../../../../arm-none-eabi/lib/thumb/v7e-m+fp/hard/libc_nano.a(lib_a-lock.o)
 .text.__retarget_lock_release
                0x0000000000000000        0x2 /home/slombardo/.arduino15/packages/adafruit/tools/arm-none-eabi-gcc/9-2019q4/bin/../lib/gcc/arm-none-eabi/9.2.1/../../../../arm-none-eabi/lib/thumb/v7e-m+fp/hard/libc_nano.a(lib_a-lock.o)
 .text          0x0000000000000000        0x0 /home/slombardo/.arduino15/packages/adafruit/tools/arm-none-eabi-gcc/9-2019q4/bin/../lib/gcc/arm-none-eabi/9.2.1/../../../../arm-none-eabi/lib/thumb/v7e-m+fp/hard/libc_nano.a(lib_a-makebuf.o)
 .data          0x0000000000000000        0x0 /home/slombardo/.arduino15/packages/adafruit/tools/arm-none-eabi-gcc/9-2019q4/bin/../lib/gcc/arm-none-eabi/9.2.1/../../../../arm-none-eabi/lib/thumb/v7e-m+fp/hard/libc_nano.a(lib_a-makebuf.o)
 .bss           0x0000000000000000        0x0 /home/slombardo/.arduino15/packages/adafruit/tools/arm-none-eabi-gcc/9-2019q4/bin/../lib/gcc/arm-none-eabi/9.2.1/../../../../arm-none-eabi/lib/thumb/v7e-m+fp/hard/libc_nano.a(lib_a-makebuf.o)
 .data          0x0000000000000000        0x0 /home/slombardo/.arduino15/packages/adafruit/tools/arm-none-eabi-gcc/9-2019q4/bin/../lib/gcc/arm-none-eabi/9.2.1/../../../../arm-none-eabi/lib/thumb/v7e-m+fp/hard/libc_nano.a(lib_a-memchr.o)
 .bss           0x0000000000000000        0x0 /home/slombardo/.arduino15/packages/adafruit/tools/arm-none-eabi-gcc/9-2019q4/bin/../lib/gcc/arm-none-eabi/9.2.1/../../../../arm-none-eabi/lib/thumb/v7e-m+fp/hard/libc_nano.a(lib_a-memchr.o)
 .text          0x0000000000000000        0x0 /home/slombardo/.arduino15/packages/adafruit/tools/arm-none-eabi-gcc/9-2019q4/bin/../lib/gcc/arm-none-eabi/9.2.1/../../../../arm-none-eabi/lib/thumb/v7e-m+fp/hard/libc_nano.a(lib_a-mlock.o)
 .data          0x0000000000000000        0x0 /home/slombardo/.arduino15/packages/adafruit/tools/arm-none-eabi-gcc/9-2019q4/bin/../lib/gcc/arm-none-eabi/9.2.1/../../../../arm-none-eabi/lib/thumb/v7e-m+fp/hard/libc_nano.a(lib_a-mlock.o)
 .bss           0x0000000000000000        0x0 /home/slombardo/.arduino15/packages/adafruit/tools/arm-none-eabi-gcc/9-2019q4/bin/../lib/gcc/arm-none-eabi/9.2.1/../../../../arm-none-eabi/lib/thumb/v7e-m+fp/hard/libc_nano.a(lib_a-mlock.o)
 .text          0x0000000000000000        0x0 /home/slombardo/.arduino15/packages/adafruit/tools/arm-none-eabi-gcc/9-2019q4/bin/../lib/gcc/arm-none-eabi/9.2.1/../../../../arm-none-eabi/lib/thumb/v7e-m+fp/hard/libc_nano.a(lib_a-mprec.o)
 .data          0x0000000000000000        0x0 /home/slombardo/.arduino15/packages/adafruit/tools/arm-none-eabi-gcc/9-2019q4/bin/../lib/gcc/arm-none-eabi/9.2.1/../../../../arm-none-eabi/lib/thumb/v7e-m+fp/hard/libc_nano.a(lib_a-mprec.o)
 .bss           0x0000000000000000        0x0 /home/slombardo/.arduino15/packages/adafruit/tools/arm-none-eabi-gcc/9-2019q4/bin/../lib/gcc/arm-none-eabi/9.2.1/../../../../arm-none-eabi/lib/thumb/v7e-m+fp/hard/libc_nano.a(lib_a-mprec.o)
 .text.__s2b    0x0000000000000000       0x7c /home/slombardo/.arduino15/packages/adafruit/tools/arm-none-eabi-gcc/9-2019q4/bin/../lib/gcc/arm-none-eabi/9.2.1/../../../../arm-none-eabi/lib/thumb/v7e-m+fp/hard/libc_nano.a(lib_a-mprec.o)
 .text.__ulp    0x0000000000000000       0x58 /home/slombardo/.arduino15/packages/adafruit/tools/arm-none-eabi-gcc/9-2019q4/bin/../lib/gcc/arm-none-eabi/9.2.1/../../../../arm-none-eabi/lib/thumb/v7e-m+fp/hard/libc_nano.a(lib_a-mprec.o)
 .text.__b2d    0x0000000000000000       0xa0 /home/slombardo/.arduino15/packages/adafruit/tools/arm-none-eabi-gcc/9-2019q4/bin/../lib/gcc/arm-none-eabi/9.2.1/../../../../arm-none-eabi/lib/thumb/v7e-m+fp/hard/libc_nano.a(lib_a-mprec.o)
 .text.__ratio  0x0000000000000000       0x66 /home/slombardo/.arduino15/packages/adafruit/tools/arm-none-eabi-gcc/9-2019q4/bin/../lib/gcc/arm-none-eabi/9.2.1/../../../../arm-none-eabi/lib/thumb/v7e-m+fp/hard/libc_nano.a(lib_a-mprec.o)
 .text._mprec_log10
                0x0000000000000000       0x3c /home/slombardo/.arduino15/packages/adafruit/tools/arm-none-eabi-gcc/9-2019q4/bin/../lib/gcc/arm-none-eabi/9.2.1/../../../../arm-none-eabi/lib/thumb/v7e-m+fp/hard/libc_nano.a(lib_a-mprec.o)
 .text.__copybits
                0x0000000000000000       0x46 /home/slombardo/.arduino15/packages/adafruit/tools/arm-none-eabi-gcc/9-2019q4/bin/../lib/gcc/arm-none-eabi/9.2.1/../../../../arm-none-eabi/lib/thumb/v7e-m+fp/hard/libc_nano.a(lib_a-mprec.o)
 .text.__any_on
                0x0000000000000000       0x42 /home/slombardo/.arduino15/packages/adafruit/tools/arm-none-eabi-gcc/9-2019q4/bin/../lib/gcc/arm-none-eabi/9.2.1/../../../../arm-none-eabi/lib/thumb/v7e-m+fp/hard/libc_nano.a(lib_a-mprec.o)
 .rodata.__mprec_tinytens
                0x0000000000000000       0x28 /home/slombardo/.arduino15/packages/adafruit/tools/arm-none-eabi-gcc/9-2019q4/bin/../lib/gcc/arm-none-eabi/9.2.1/../../../../arm-none-eabi/lib/thumb/v7e-m+fp/hard/libc_nano.a(lib_a-mprec.o)
 .text          0x0000000000000000        0x0 /home/slombardo/.arduino15/packages/adafruit/tools/arm-none-eabi-gcc/9-2019q4/bin/../lib/gcc/arm-none-eabi/9.2.1/../../../../arm-none-eabi/lib/thumb/v7e-m+fp/hard/libc_nano.a(lib_a-nano-callocr.o)
 .data          0x0000000000000000        0x0 /home/slombardo/.arduino15/packages/adafruit/tools/arm-none-eabi-gcc/9-2019q4/bin/../lib/gcc/arm-none-eabi/9.2.1/../../../../arm-none-eabi/lib/thumb/v7e-m+fp/hard/libc_nano.a(lib_a-nano-callocr.o)
 .bss           0x0000000000000000        0x0 /home/slombardo/.arduino15/packages/adafruit/tools/arm-none-eabi-gcc/9-2019q4/bin/../lib/gcc/arm-none-eabi/9.2.1/../../../../arm-none-eabi/lib/thumb/v7e-m+fp/hard/libc_nano.a(lib_a-nano-callocr.o)
 .text          0x0000000000000000        0x0 /home/slombardo/.arduino15/packages/adafruit/tools/arm-none-eabi-gcc/9-2019q4/bin/../lib/gcc/arm-none-eabi/9.2.1/../../../../arm-none-eabi/lib/thumb/v7e-m+fp/hard/libc_nano.a(lib_a-nano-svfprintf.o)
 .data          0x0000000000000000        0x0 /home/slombardo/.arduino15/packages/adafruit/tools/arm-none-eabi-gcc/9-2019q4/bin/../lib/gcc/arm-none-eabi/9.2.1/../../../../arm-none-eabi/lib/thumb/v7e-m+fp/hard/libc_nano.a(lib_a-nano-svfprintf.o)
 .bss           0x0000000000000000        0x0 /home/slombardo/.arduino15/packages/adafruit/tools/arm-none-eabi-gcc/9-2019q4/bin/../lib/gcc/arm-none-eabi/9.2.1/../../../../arm-none-eabi/lib/thumb/v7e-m+fp/hard/libc_nano.a(lib_a-nano-svfprintf.o)
 .text.__ssprint_r
                0x0000000000000000       0xf6 /home/slombardo/.arduino15/packages/adafruit/tools/arm-none-eabi-gcc/9-2019q4/bin/../lib/gcc/arm-none-eabi/9.2.1/../../../../arm-none-eabi/lib/thumb/v7e-m+fp/hard/libc_nano.a(lib_a-nano-svfprintf.o)
 .text          0x0000000000000000        0x0 /home/slombardo/.arduino15/packages/adafruit/tools/arm-none-eabi-gcc/9-2019q4/bin/../lib/gcc/arm-none-eabi/9.2.1/../../../../arm-none-eabi/lib/thumb/v7e-m+fp/hard/libc_nano.a(lib_a-nano-vfprintf.o)
 .data          0x0000000000000000        0x0 /home/slombardo/.arduino15/packages/adafruit/tools/arm-none-eabi-gcc/9-2019q4/bin/../lib/gcc/arm-none-eabi/9.2.1/../../../../arm-none-eabi/lib/thumb/v7e-m+fp/hard/libc_nano.a(lib_a-nano-vfprintf.o)
 .bss           0x0000000000000000        0x0 /home/slombardo/.arduino15/packages/adafruit/tools/arm-none-eabi-gcc/9-2019q4/bin/../lib/gcc/arm-none-eabi/9.2.1/../../../../arm-none-eabi/lib/thumb/v7e-m+fp/hard/libc_nano.a(lib_a-nano-vfprintf.o)
 .text.__sprint_r
                0x0000000000000000       0x1a /home/slombardo/.arduino15/packages/adafruit/tools/arm-none-eabi-gcc/9-2019q4/bin/../lib/gcc/arm-none-eabi/9.2.1/../../../../arm-none-eabi/lib/thumb/v7e-m+fp/hard/libc_nano.a(lib_a-nano-vfprintf.o)
 .text.vfprintf
                0x0000000000000000       0x14 /home/slombardo/.arduino15/packages/adafruit/tools/arm-none-eabi-gcc/9-2019q4/bin/../lib/gcc/arm-none-eabi/9.2.1/../../../../arm-none-eabi/lib/thumb/v7e-m+fp/hard/libc_nano.a(lib_a-nano-vfprintf.o)
 .text          0x0000000000000000        0x0 /home/slombardo/.arduino15/packages/adafruit/tools/arm-none-eabi-gcc/9-2019q4/bin/../lib/gcc/arm-none-eabi/9.2.1/../../../../arm-none-eabi/lib/thumb/v7e-m+fp/hard/libc_nano.a(lib_a-putc.o)
 .data          0x0000000000000000        0x0 /home/slombardo/.arduino15/packages/adafruit/tools/arm-none-eabi-gcc/9-2019q4/bin/../lib/gcc/arm-none-eabi/9.2.1/../../../../arm-none-eabi/lib/thumb/v7e-m+fp/hard/libc_nano.a(lib_a-putc.o)
 .bss           0x0000000000000000        0x0 /home/slombardo/.arduino15/packages/adafruit/tools/arm-none-eabi-gcc/9-2019q4/bin/../lib/gcc/arm-none-eabi/9.2.1/../../../../arm-none-eabi/lib/thumb/v7e-m+fp/hard/libc_nano.a(lib_a-putc.o)
 .text.putc     0x0000000000000000       0x10 /home/slombardo/.arduino15/packages/adafruit/tools/arm-none-eabi-gcc/9-2019q4/bin/../lib/gcc/arm-none-eabi/9.2.1/../../../../arm-none-eabi/lib/thumb/v7e-m+fp/hard/libc_nano.a(lib_a-putc.o)
 .text          0x0000000000000000        0x0 /home/slombardo/.arduino15/packages/adafruit/tools/arm-none-eabi-gcc/9-2019q4/bin/../lib/gcc/arm-none-eabi/9.2.1/../../../../arm-none-eabi/lib/thumb/v7e-m+fp/hard/libc_nano.a(lib_a-reent.o)
 .data          0x0000000000000000        0x0 /home/slombardo/.arduino15/packages/adafruit/tools/arm-none-eabi-gcc/9-2019q4/bin/../lib/gcc/arm-none-eabi/9.2.1/../../../../arm-none-eabi/lib/thumb/v7e-m+fp/hard/libc_nano.a(lib_a-reent.o)
 .bss           0x0000000000000000        0x0 /home/slombardo/.arduino15/packages/adafruit/tools/arm-none-eabi-gcc/9-2019q4/bin/../lib/gcc/arm-none-eabi/9.2.1/../../../../arm-none-eabi/lib/thumb/v7e-m+fp/hard/libc_nano.a(lib_a-reent.o)
 .text.cleanup_glue
                0x0000000000000000       0x1a /home/slombardo/.arduino15/packages/adafruit/tools/arm-none-eabi-gcc/9-2019q4/bin/../lib/gcc/arm-none-eabi/9.2.1/../../../../arm-none-eabi/lib/thumb/v7e-m+fp/hard/libc_nano.a(lib_a-reent.o)
 .text._reclaim_reent
                0x0000000000000000       0xb8 /home/slombardo/.arduino15/packages/adafruit/tools/arm-none-eabi-gcc/9-2019q4/bin/../lib/gcc/arm-none-eabi/9.2.1/../../../../arm-none-eabi/lib/thumb/v7e-m+fp/hard/libc_nano.a(lib_a-reent.o)
 .text          0x0000000000000000        0x0 /home/slombardo/.arduino15/packages/adafruit/tools/arm-none-eabi-gcc/9-2019q4/bin/../lib/gcc/arm-none-eabi/9.2.1/../../../../arm-none-eabi/lib/thumb/v7e-m+fp/hard/libc_nano.a(lib_a-stdio.o)
 .data          0x0000000000000000        0x0 /home/slombardo/.arduino15/packages/adafruit/tools/arm-none-eabi-gcc/9-2019q4/bin/../lib/gcc/arm-none-eabi/9.2.1/../../../../arm-none-eabi/lib/thumb/v7e-m+fp/hard/libc_nano.a(lib_a-stdio.o)
 .bss           0x0000000000000000        0x0 /home/slombardo/.arduino15/packages/adafruit/tools/arm-none-eabi-gcc/9-2019q4/bin/../lib/gcc/arm-none-eabi/9.2.1/../../../../arm-none-eabi/lib/thumb/v7e-m+fp/hard/libc_nano.a(lib_a-stdio.o)
 .text.__seofread
                0x0000000000000000        0x4 /home/slombardo/.arduino15/packages/adafruit/tools/arm-none-eabi-gcc/9-2019q4/bin/../lib/gcc/arm-none-eabi/9.2.1/../../../../arm-none-eabi/lib/thumb/v7e-m+fp/hard/libc_nano.a(lib_a-stdio.o)
 .text          0x0000000000000000        0x0 /home/slombardo/.arduino15/packages/adafruit/tools/arm-none-eabi-gcc/9-2019q4/bin/../lib/gcc/arm-none-eabi/9.2.1/../../../../arm-none-eabi/lib/thumb/v7e-m+fp/hard/libc_nano.a(lib_a-writer.o)
 .data          0x0000000000000000        0x0 /home/slombardo/.arduino15/packages/adafruit/tools/arm-none-eabi-gcc/9-2019q4/bin/../lib/gcc/arm-none-eabi/9.2.1/../../../../arm-none-eabi/lib/thumb/v7e-m+fp/hard/libc_nano.a(lib_a-writer.o)
 .bss           0x0000000000000000        0x0 /home/slombardo/.arduino15/packages/adafruit/tools/arm-none-eabi-gcc/9-2019q4/bin/../lib/gcc/arm-none-eabi/9.2.1/../../../../arm-none-eabi/lib/thumb/v7e-m+fp/hard/libc_nano.a(lib_a-writer.o)
 .text          0x0000000000000000        0x0 /home/slombardo/.arduino15/packages/adafruit/tools/arm-none-eabi-gcc/9-2019q4/bin/../lib/gcc/arm-none-eabi/9.2.1/../../../../arm-none-eabi/lib/thumb/v7e-m+fp/hard/libc_nano.a(lib_a-closer.o)
 .data          0x0000000000000000        0x0 /home/slombardo/.arduino15/packages/adafruit/tools/arm-none-eabi-gcc/9-2019q4/bin/../lib/gcc/arm-none-eabi/9.2.1/../../../../arm-none-eabi/lib/thumb/v7e-m+fp/hard/libc_nano.a(lib_a-closer.o)
 .bss           0x0000000000000000        0x0 /home/slombardo/.arduino15/packages/adafruit/tools/arm-none-eabi-gcc/9-2019q4/bin/../lib/gcc/arm-none-eabi/9.2.1/../../../../arm-none-eabi/lib/thumb/v7e-m+fp/hard/libc_nano.a(lib_a-closer.o)
 .text          0x0000000000000000        0x0 /home/slombardo/.arduino15/packages/adafruit/tools/arm-none-eabi-gcc/9-2019q4/bin/../lib/gcc/arm-none-eabi/9.2.1/../../../../arm-none-eabi/lib/thumb/v7e-m+fp/hard/libc_nano.a(lib_a-fstatr.o)
 .data          0x0000000000000000        0x0 /home/slombardo/.arduino15/packages/adafruit/tools/arm-none-eabi-gcc/9-2019q4/bin/../lib/gcc/arm-none-eabi/9.2.1/../../../../arm-none-eabi/lib/thumb/v7e-m+fp/hard/libc_nano.a(lib_a-fstatr.o)
 .bss           0x0000000000000000        0x0 /home/slombardo/.arduino15/packages/adafruit/tools/arm-none-eabi-gcc/9-2019q4/bin/../lib/gcc/arm-none-eabi/9.2.1/../../../../arm-none-eabi/lib/thumb/v7e-m+fp/hard/libc_nano.a(lib_a-fstatr.o)
 .text          0x0000000000000000        0x0 /home/slombardo/.arduino15/packages/adafruit/tools/arm-none-eabi-gcc/9-2019q4/bin/../lib/gcc/arm-none-eabi/9.2.1/../../../../arm-none-eabi/lib/thumb/v7e-m+fp/hard/libc_nano.a(lib_a-fvwrite.o)
 .data          0x0000000000000000        0x0 /home/slombardo/.arduino15/packages/adafruit/tools/arm-none-eabi-gcc/9-2019q4/bin/../lib/gcc/arm-none-eabi/9.2.1/../../../../arm-none-eabi/lib/thumb/v7e-m+fp/hard/libc_nano.a(lib_a-fvwrite.o)
 .bss           0x0000000000000000        0x0 /home/slombardo/.arduino15/packages/adafruit/tools/arm-none-eabi-gcc/9-2019q4/bin/../lib/gcc/arm-none-eabi/9.2.1/../../../../arm-none-eabi/lib/thumb/v7e-m+fp/hard/libc_nano.a(lib_a-fvwrite.o)
 .text.__sfvwrite_r
                0x0000000000000000      0x294 /home/slombardo/.arduino15/packages/adafruit/tools/arm-none-eabi-gcc/9-2019q4/bin/../lib/gcc/arm-none-eabi/9.2.1/../../../../arm-none-eabi/lib/thumb/v7e-m+fp/hard/libc_nano.a(lib_a-fvwrite.o)
 .debug_frame   0x0000000000000000       0x3c /home/slombardo/.arduino15/packages/adafruit/tools/arm-none-eabi-gcc/9-2019q4/bin/../lib/gcc/arm-none-eabi/9.2.1/../../../../arm-none-eabi/lib/thumb/v7e-m+fp/hard/libc_nano.a(lib_a-fvwrite.o)
 .ARM.attributes
                0x0000000000000000       0x34 /home/slombardo/.arduino15/packages/adafruit/tools/arm-none-eabi-gcc/9-2019q4/bin/../lib/gcc/arm-none-eabi/9.2.1/../../../../arm-none-eabi/lib/thumb/v7e-m+fp/hard/libc_nano.a(lib_a-fvwrite.o)
 .text          0x0000000000000000        0x0 /home/slombardo/.arduino15/packages/adafruit/tools/arm-none-eabi-gcc/9-2019q4/bin/../lib/gcc/arm-none-eabi/9.2.1/../../../../arm-none-eabi/lib/thumb/v7e-m+fp/hard/libc_nano.a(lib_a-isattyr.o)
 .data          0x0000000000000000        0x0 /home/slombardo/.arduino15/packages/adafruit/tools/arm-none-eabi-gcc/9-2019q4/bin/../lib/gcc/arm-none-eabi/9.2.1/../../../../arm-none-eabi/lib/thumb/v7e-m+fp/hard/libc_nano.a(lib_a-isattyr.o)
 .bss           0x0000000000000000        0x0 /home/slombardo/.arduino15/packages/adafruit/tools/arm-none-eabi-gcc/9-2019q4/bin/../lib/gcc/arm-none-eabi/9.2.1/../../../../arm-none-eabi/lib/thumb/v7e-m+fp/hard/libc_nano.a(lib_a-isattyr.o)
 .text          0x0000000000000000        0x0 /home/slombardo/.arduino15/packages/adafruit/tools/arm-none-eabi-gcc/9-2019q4/bin/../lib/gcc/arm-none-eabi/9.2.1/../../../../arm-none-eabi/lib/thumb/v7e-m+fp/hard/libc_nano.a(lib_a-locale.o)
 .data          0x0000000000000000        0x0 /home/slombardo/.arduino15/packages/adafruit/tools/arm-none-eabi-gcc/9-2019q4/bin/../lib/gcc/arm-none-eabi/9.2.1/../../../../arm-none-eabi/lib/thumb/v7e-m+fp/hard/libc_nano.a(lib_a-locale.o)
 .bss           0x0000000000000000        0x0 /home/slombardo/.arduino15/packages/adafruit/tools/arm-none-eabi-gcc/9-2019q4/bin/../lib/gcc/arm-none-eabi/9.2.1/../../../../arm-none-eabi/lib/thumb/v7e-m+fp/hard/libc_nano.a(lib_a-locale.o)
 .text._setlocale_r
                0x0000000000000000       0x40 /home/slombardo/.arduino15/packages/adafruit/tools/arm-none-eabi-gcc/9-2019q4/bin/../lib/gcc/arm-none-eabi/9.2.1/../../../../arm-none-eabi/lib/thumb/v7e-m+fp/hard/libc_nano.a(lib_a-locale.o)
 .text.__locale_mb_cur_max
                0x0000000000000000        0xc /home/slombardo/.arduino15/packages/adafruit/tools/arm-none-eabi-gcc/9-2019q4/bin/../lib/gcc/arm-none-eabi/9.2.1/../../../../arm-none-eabi/lib/thumb/v7e-m+fp/hard/libc_nano.a(lib_a-locale.o)
 .text.setlocale
                0x0000000000000000       0x10 /home/slombardo/.arduino15/packages/adafruit/tools/arm-none-eabi-gcc/9-2019q4/bin/../lib/gcc/arm-none-eabi/9.2.1/../../../../arm-none-eabi/lib/thumb/v7e-m+fp/hard/libc_nano.a(lib_a-locale.o)
 .bss._PathLocale
                0x0000000000000000        0x4 /home/slombardo/.arduino15/packages/adafruit/tools/arm-none-eabi-gcc/9-2019q4/bin/../lib/gcc/arm-none-eabi/9.2.1/../../../../arm-none-eabi/lib/thumb/v7e-m+fp/hard/libc_nano.a(lib_a-locale.o)
 .text          0x0000000000000000        0x0 /home/slombardo/.arduino15/packages/adafruit/tools/arm-none-eabi-gcc/9-2019q4/bin/../lib/gcc/arm-none-eabi/9.2.1/../../../../arm-none-eabi/lib/thumb/v7e-m+fp/hard/libc_nano.a(lib_a-lseekr.o)
 .data          0x0000000000000000        0x0 /home/slombardo/.arduino15/packages/adafruit/tools/arm-none-eabi-gcc/9-2019q4/bin/../lib/gcc/arm-none-eabi/9.2.1/../../../../arm-none-eabi/lib/thumb/v7e-m+fp/hard/libc_nano.a(lib_a-lseekr.o)
 .bss           0x0000000000000000        0x0 /home/slombardo/.arduino15/packages/adafruit/tools/arm-none-eabi-gcc/9-2019q4/bin/../lib/gcc/arm-none-eabi/9.2.1/../../../../arm-none-eabi/lib/thumb/v7e-m+fp/hard/libc_nano.a(lib_a-lseekr.o)
 .text          0x0000000000000000        0x0 /home/slombardo/.arduino15/packages/adafruit/tools/arm-none-eabi-gcc/9-2019q4/bin/../lib/gcc/arm-none-eabi/9.2.1/../../../../arm-none-eabi/lib/thumb/v7e-m+fp/hard/libc_nano.a(lib_a-mbtowc_r.o)
 .data          0x0000000000000000        0x0 /home/slombardo/.arduino15/packages/adafruit/tools/arm-none-eabi-gcc/9-2019q4/bin/../lib/gcc/arm-none-eabi/9.2.1/../../../../arm-none-eabi/lib/thumb/v7e-m+fp/hard/libc_nano.a(lib_a-mbtowc_r.o)
 .bss           0x0000000000000000        0x0 /home/slombardo/.arduino15/packages/adafruit/tools/arm-none-eabi-gcc/9-2019q4/bin/../lib/gcc/arm-none-eabi/9.2.1/../../../../arm-none-eabi/lib/thumb/v7e-m+fp/hard/libc_nano.a(lib_a-mbtowc_r.o)
 .text._mbtowc_r
                0x0000000000000000       0x14 /home/slombardo/.arduino15/packages/adafruit/tools/arm-none-eabi-gcc/9-2019q4/bin/../lib/gcc/arm-none-eabi/9.2.1/../../../../arm-none-eabi/lib/thumb/v7e-m+fp/hard/libc_nano.a(lib_a-mbtowc_r.o)
 .text          0x0000000000000000        0x0 /home/slombardo/.arduino15/packages/adafruit/tools/arm-none-eabi-gcc/9-2019q4/bin/../lib/gcc/arm-none-eabi/9.2.1/../../../../arm-none-eabi/lib/thumb/v7e-m+fp/hard/libc_nano.a(lib_a-memmove.o)
 .data          0x0000000000000000        0x0 /home/slombardo/.arduino15/packages/adafruit/tools/arm-none-eabi-gcc/9-2019q4/bin/../lib/gcc/arm-none-eabi/9.2.1/../../../../arm-none-eabi/lib/thumb/v7e-m+fp/hard/libc_nano.a(lib_a-memmove.o)
 .bss           0x0000000000000000        0x0 /home/slombardo/.arduino15/packages/adafruit/tools/arm-none-eabi-gcc/9-2019q4/bin/../lib/gcc/arm-none-eabi/9.2.1/../../../../arm-none-eabi/lib/thumb/v7e-m+fp/hard/libc_nano.a(lib_a-memmove.o)
 .text          0x0000000000000000        0x0 /home/slombardo/.arduino15/packages/adafruit/tools/arm-none-eabi-gcc/9-2019q4/bin/../lib/gcc/arm-none-eabi/9.2.1/../../../../arm-none-eabi/lib/thumb/v7e-m+fp/hard/libc_nano.a(lib_a-nano-reallocr.o)
 .data          0x0000000000000000        0x0 /home/slombardo/.arduino15/packages/adafruit/tools/arm-none-eabi-gcc/9-2019q4/bin/../lib/gcc/arm-none-eabi/9.2.1/../../../../arm-none-eabi/lib/thumb/v7e-m+fp/hard/libc_nano.a(lib_a-nano-reallocr.o)
 .bss           0x0000000000000000        0x0 /home/slombardo/.arduino15/packages/adafruit/tools/arm-none-eabi-gcc/9-2019q4/bin/../lib/gcc/arm-none-eabi/9.2.1/../../../../arm-none-eabi/lib/thumb/v7e-m+fp/hard/libc_nano.a(lib_a-nano-reallocr.o)
 .text          0x0000000000000000        0x0 /home/slombardo/.arduino15/packages/adafruit/tools/arm-none-eabi-gcc/9-2019q4/bin/../lib/gcc/arm-none-eabi/9.2.1/../../../../arm-none-eabi/lib/thumb/v7e-m+fp/hard/libc_nano.a(lib_a-readr.o)
 .data          0x0000000000000000        0x0 /home/slombardo/.arduino15/packages/adafruit/tools/arm-none-eabi-gcc/9-2019q4/bin/../lib/gcc/arm-none-eabi/9.2.1/../../../../arm-none-eabi/lib/thumb/v7e-m+fp/hard/libc_nano.a(lib_a-readr.o)
 .bss           0x0000000000000000        0x0 /home/slombardo/.arduino15/packages/adafruit/tools/arm-none-eabi-gcc/9-2019q4/bin/../lib/gcc/arm-none-eabi/9.2.1/../../../../arm-none-eabi/lib/thumb/v7e-m+fp/hard/libc_nano.a(lib_a-readr.o)
 .text          0x0000000000000000       0x14 /home/slombardo/.arduino15/packages/adafruit/tools/arm-none-eabi-gcc/9-2019q4/bin/../lib/gcc/arm-none-eabi/9.2.1/../../../../arm-none-eabi/lib/thumb/v7e-m+fp/hard/libc_nano.a(lib_a-strcmp.o)
 .data          0x0000000000000000        0x0 /home/slombardo/.arduino15/packages/adafruit/tools/arm-none-eabi-gcc/9-2019q4/bin/../lib/gcc/arm-none-eabi/9.2.1/../../../../arm-none-eabi/lib/thumb/v7e-m+fp/hard/libc_nano.a(lib_a-strcmp.o)
 .bss           0x0000000000000000        0x0 /home/slombardo/.arduino15/packages/adafruit/tools/arm-none-eabi-gcc/9-2019q4/bin/../lib/gcc/arm-none-eabi/9.2.1/../../../../arm-none-eabi/lib/thumb/v7e-m+fp/hard/libc_nano.a(lib_a-strcmp.o)
 .debug_frame   0x0000000000000000       0x20 /home/slombardo/.arduino15/packages/adafruit/tools/arm-none-eabi-gcc/9-2019q4/bin/../lib/gcc/arm-none-eabi/9.2.1/../../../../arm-none-eabi/lib/thumb/v7e-m+fp/hard/libc_nano.a(lib_a-strcmp.o)
 .ARM.attributes
                0x0000000000000000       0x1c /home/slombardo/.arduino15/packages/adafruit/tools/arm-none-eabi-gcc/9-2019q4/bin/../lib/gcc/arm-none-eabi/9.2.1/../../../../arm-none-eabi/lib/thumb/v7e-m+fp/hard/libc_nano.a(lib_a-strcmp.o)
 .text          0x0000000000000000        0x0 /home/slombardo/.arduino15/packages/adafruit/tools/arm-none-eabi-gcc/9-2019q4/bin/../lib/gcc/arm-none-eabi/9.2.1/../../../../arm-none-eabi/lib/thumb/v7e-m+fp/hard/libc_nano.a(lib_a-wctomb_r.o)
 .data          0x0000000000000000        0x0 /home/slombardo/.arduino15/packages/adafruit/tools/arm-none-eabi-gcc/9-2019q4/bin/../lib/gcc/arm-none-eabi/9.2.1/../../../../arm-none-eabi/lib/thumb/v7e-m+fp/hard/libc_nano.a(lib_a-wctomb_r.o)
 .bss           0x0000000000000000        0x0 /home/slombardo/.arduino15/packages/adafruit/tools/arm-none-eabi-gcc/9-2019q4/bin/../lib/gcc/arm-none-eabi/9.2.1/../../../../arm-none-eabi/lib/thumb/v7e-m+fp/hard/libc_nano.a(lib_a-wctomb_r.o)
 .text._wctomb_r
                0x0000000000000000       0x14 /home/slombardo/.arduino15/packages/adafruit/tools/arm-none-eabi-gcc/9-2019q4/bin/../lib/gcc/arm-none-eabi/9.2.1/../../../../arm-none-eabi/lib/thumb/v7e-m+fp/hard/libc_nano.a(lib_a-wctomb_r.o)
 .text          0x0000000000000000        0x0 /home/slombardo/.arduino15/packages/adafruit/tools/arm-none-eabi-gcc/9-2019q4/bin/../lib/gcc/arm-none-eabi/9.2.1/../../../../arm-none-eabi/lib/thumb/v7e-m+fp/hard/libc_nano.a(lib_a-nano-msizer.o)
 .data          0x0000000000000000        0x0 /home/slombardo/.arduino15/packages/adafruit/tools/arm-none-eabi-gcc/9-2019q4/bin/../lib/gcc/arm-none-eabi/9.2.1/../../../../arm-none-eabi/lib/thumb/v7e-m+fp/hard/libc_nano.a(lib_a-nano-msizer.o)
 .bss           0x0000000000000000        0x0 /home/slombardo/.arduino15/packages/adafruit/tools/arm-none-eabi-gcc/9-2019q4/bin/../lib/gcc/arm-none-eabi/9.2.1/../../../../arm-none-eabi/lib/thumb/v7e-m+fp/hard/libc_nano.a(lib_a-nano-msizer.o)
 .text          0x0000000000000000      0x254 /home/slombardo/.arduino15/packages/adafruit/tools/arm-none-eabi-gcc/9-2019q4/bin/../lib/gcc/arm-none-eabi/9.2.1/thumb/v7e-m+fp/hard/libgcc.a(_arm_muldf3.o)
 .data          0x0000000000000000        0x0 /home/slombardo/.arduino15/packages/adafruit/tools/arm-none-eabi-gcc/9-2019q4/bin/../lib/gcc/arm-none-eabi/9.2.1/thumb/v7e-m+fp/hard/libgcc.a(_arm_muldf3.o)
 .bss           0x0000000000000000        0x0 /home/slombardo/.arduino15/packages/adafruit/tools/arm-none-eabi-gcc/9-2019q4/bin/../lib/gcc/arm-none-eabi/9.2.1/thumb/v7e-m+fp/hard/libgcc.a(_arm_muldf3.o)
 .debug_frame   0x0000000000000000       0x30 /home/slombardo/.arduino15/packages/adafruit/tools/arm-none-eabi-gcc/9-2019q4/bin/../lib/gcc/arm-none-eabi/9.2.1/thumb/v7e-m+fp/hard/libgcc.a(_arm_muldf3.o)
 .ARM.attributes
                0x0000000000000000       0x1e /home/slombardo/.arduino15/packages/adafruit/tools/arm-none-eabi-gcc/9-2019q4/bin/../lib/gcc/arm-none-eabi/9.2.1/thumb/v7e-m+fp/hard/libgcc.a(_arm_muldf3.o)
 .data          0x0000000000000000        0x0 /home/slombardo/.arduino15/packages/adafruit/tools/arm-none-eabi-gcc/9-2019q4/bin/../lib/gcc/arm-none-eabi/9.2.1/thumb/v7e-m+fp/hard/libgcc.a(_arm_addsubdf3.o)
 .bss           0x0000000000000000        0x0 /home/slombardo/.arduino15/packages/adafruit/tools/arm-none-eabi-gcc/9-2019q4/bin/../lib/gcc/arm-none-eabi/9.2.1/thumb/v7e-m+fp/hard/libgcc.a(_arm_addsubdf3.o)
 .data          0x0000000000000000        0x0 /home/slombardo/.arduino15/packages/adafruit/tools/arm-none-eabi-gcc/9-2019q4/bin/../lib/gcc/arm-none-eabi/9.2.1/thumb/v7e-m+fp/hard/libgcc.a(_arm_muldivdf3.o)
 .bss           0x0000000000000000        0x0 /home/slombardo/.arduino15/packages/adafruit/tools/arm-none-eabi-gcc/9-2019q4/bin/../lib/gcc/arm-none-eabi/9.2.1/thumb/v7e-m+fp/hard/libgcc.a(_arm_muldivdf3.o)
 .data          0x0000000000000000        0x0 /home/slombardo/.arduino15/packages/adafruit/tools/arm-none-eabi-gcc/9-2019q4/bin/../lib/gcc/arm-none-eabi/9.2.1/thumb/v7e-m+fp/hard/libgcc.a(_arm_cmpdf2.o)
 .bss           0x0000000000000000        0x0 /home/slombardo/.arduino15/packages/adafruit/tools/arm-none-eabi-gcc/9-2019q4/bin/../lib/gcc/arm-none-eabi/9.2.1/thumb/v7e-m+fp/hard/libgcc.a(_arm_cmpdf2.o)
 .data          0x0000000000000000        0x0 /home/slombardo/.arduino15/packages/adafruit/tools/arm-none-eabi-gcc/9-2019q4/bin/../lib/gcc/arm-none-eabi/9.2.1/thumb/v7e-m+fp/hard/libgcc.a(_arm_unorddf2.o)
 .bss           0x0000000000000000        0x0 /home/slombardo/.arduino15/packages/adafruit/tools/arm-none-eabi-gcc/9-2019q4/bin/../lib/gcc/arm-none-eabi/9.2.1/thumb/v7e-m+fp/hard/libgcc.a(_arm_unorddf2.o)
 .data          0x0000000000000000        0x0 /home/slombardo/.arduino15/packages/adafruit/tools/arm-none-eabi-gcc/9-2019q4/bin/../lib/gcc/arm-none-eabi/9.2.1/thumb/v7e-m+fp/hard/libgcc.a(_arm_fixdfsi.o)
 .bss           0x0000000000000000        0x0 /home/slombardo/.arduino15/packages/adafruit/tools/arm-none-eabi-gcc/9-2019q4/bin/../lib/gcc/arm-none-eabi/9.2.1/thumb/v7e-m+fp/hard/libgcc.a(_arm_fixdfsi.o)
 .text          0x0000000000000000        0x0 /home/slombardo/.arduino15/packages/adafruit/tools/arm-none-eabi-gcc/9-2019q4/bin/../lib/gcc/arm-none-eabi/9.2.1/../../../../arm-none-eabi/lib/thumb/v7e-m+fp/hard/libnosys.a(close.o)
 .data          0x0000000000000000        0x0 /home/slombardo/.arduino15/packages/adafruit/tools/arm-none-eabi-gcc/9-2019q4/bin/../lib/gcc/arm-none-eabi/9.2.1/../../../../arm-none-eabi/lib/thumb/v7e-m+fp/hard/libnosys.a(close.o)
 .bss           0x0000000000000000        0x0 /home/slombardo/.arduino15/packages/adafruit/tools/arm-none-eabi-gcc/9-2019q4/bin/../lib/gcc/arm-none-eabi/9.2.1/../../../../arm-none-eabi/lib/thumb/v7e-m+fp/hard/libnosys.a(close.o)
 .text          0x0000000000000000        0x0 /home/slombardo/.arduino15/packages/adafruit/tools/arm-none-eabi-gcc/9-2019q4/bin/../lib/gcc/arm-none-eabi/9.2.1/../../../../arm-none-eabi/lib/thumb/v7e-m+fp/hard/libnosys.a(fstat.o)
 .data          0x0000000000000000        0x0 /home/slombardo/.arduino15/packages/adafruit/tools/arm-none-eabi-gcc/9-2019q4/bin/../lib/gcc/arm-none-eabi/9.2.1/../../../../arm-none-eabi/lib/thumb/v7e-m+fp/hard/libnosys.a(fstat.o)
 .bss           0x0000000000000000        0x0 /home/slombardo/.arduino15/packages/adafruit/tools/arm-none-eabi-gcc/9-2019q4/bin/../lib/gcc/arm-none-eabi/9.2.1/../../../../arm-none-eabi/lib/thumb/v7e-m+fp/hard/libnosys.a(fstat.o)
 .text          0x0000000000000000        0x0 /home/slombardo/.arduino15/packages/adafruit/tools/arm-none-eabi-gcc/9-2019q4/bin/../lib/gcc/arm-none-eabi/9.2.1/../../../../arm-none-eabi/lib/thumb/v7e-m+fp/hard/libnosys.a(isatty.o)
 .data          0x0000000000000000        0x0 /home/slombardo/.arduino15/packages/adafruit/tools/arm-none-eabi-gcc/9-2019q4/bin/../lib/gcc/arm-none-eabi/9.2.1/../../../../arm-none-eabi/lib/thumb/v7e-m+fp/hard/libnosys.a(isatty.o)
 .bss           0x0000000000000000        0x0 /home/slombardo/.arduino15/packages/adafruit/tools/arm-none-eabi-gcc/9-2019q4/bin/../lib/gcc/arm-none-eabi/9.2.1/../../../../arm-none-eabi/lib/thumb/v7e-m+fp/hard/libnosys.a(isatty.o)
 .text          0x0000000000000000        0x0 /home/slombardo/.arduino15/packages/adafruit/tools/arm-none-eabi-gcc/9-2019q4/bin/../lib/gcc/arm-none-eabi/9.2.1/../../../../arm-none-eabi/lib/thumb/v7e-m+fp/hard/libnosys.a(lseek.o)
 .data          0x0000000000000000        0x0 /home/slombardo/.arduino15/packages/adafruit/tools/arm-none-eabi-gcc/9-2019q4/bin/../lib/gcc/arm-none-eabi/9.2.1/../../../../arm-none-eabi/lib/thumb/v7e-m+fp/hard/libnosys.a(lseek.o)
 .bss           0x0000000000000000        0x0 /home/slombardo/.arduino15/packages/adafruit/tools/arm-none-eabi-gcc/9-2019q4/bin/../lib/gcc/arm-none-eabi/9.2.1/../../../../arm-none-eabi/lib/thumb/v7e-m+fp/hard/libnosys.a(lseek.o)
 .text          0x0000000000000000        0x0 /home/slombardo/.arduino15/packages/adafruit/tools/arm-none-eabi-gcc/9-2019q4/bin/../lib/gcc/arm-none-eabi/9.2.1/../../../../arm-none-eabi/lib/thumb/v7e-m+fp/hard/libnosys.a(read.o)
 .data          0x0000000000000000        0x0 /home/slombardo/.arduino15/packages/adafruit/tools/arm-none-eabi-gcc/9-2019q4/bin/../lib/gcc/arm-none-eabi/9.2.1/../../../../arm-none-eabi/lib/thumb/v7e-m+fp/hard/libnosys.a(read.o)
 .bss           0x0000000000000000        0x0 /home/slombardo/.arduino15/packages/adafruit/tools/arm-none-eabi-gcc/9-2019q4/bin/../lib/gcc/arm-none-eabi/9.2.1/../../../../arm-none-eabi/lib/thumb/v7e-m+fp/hard/libnosys.a(read.o)
 .text          0x0000000000000000        0x0 /home/slombardo/.arduino15/packages/adafruit/tools/arm-none-eabi-gcc/9-2019q4/bin/../lib/gcc/arm-none-eabi/9.2.1/../../../../arm-none-eabi/lib/thumb/v7e-m+fp/hard/libnosys.a(sbrk.o)
 .data          0x0000000000000000        0x0 /home/slombardo/.arduino15/packages/adafruit/tools/arm-none-eabi-gcc/9-2019q4/bin/../lib/gcc/arm-none-eabi/9.2.1/../../../../arm-none-eabi/lib/thumb/v7e-m+fp/hard/libnosys.a(sbrk.o)
 .bss           0x0000000000000000        0x0 /home/slombardo/.arduino15/packages/adafruit/tools/arm-none-eabi-gcc/9-2019q4/bin/../lib/gcc/arm-none-eabi/9.2.1/../../../../arm-none-eabi/lib/thumb/v7e-m+fp/hard/libnosys.a(sbrk.o)
 .text          0x0000000000000000        0x0 /home/slombardo/.arduino15/packages/adafruit/tools/arm-none-eabi-gcc/9-2019q4/bin/../lib/gcc/arm-none-eabi/9.2.1/../../../../arm-none-eabi/lib/thumb/v7e-m+fp/hard/libnosys.a(_exit.o)
 .data          0x0000000000000000        0x0 /home/slombardo/.arduino15/packages/adafruit/tools/arm-none-eabi-gcc/9-2019q4/bin/../lib/gcc/arm-none-eabi/9.2.1/../../../../arm-none-eabi/lib/thumb/v7e-m+fp/hard/libnosys.a(_exit.o)
 .bss           0x0000000000000000        0x0 /home/slombardo/.arduino15/packages/adafruit/tools/arm-none-eabi-gcc/9-2019q4/bin/../lib/gcc/arm-none-eabi/9.2.1/../../../../arm-none-eabi/lib/thumb/v7e-m+fp/hard/libnosys.a(_exit.o)
 .text          0x0000000000000000        0x0 /home/slombardo/.arduino15/packages/adafruit/tools/arm-none-eabi-gcc/9-2019q4/bin/../lib/gcc/arm-none-eabi/9.2.1/thumb/v7e-m+fp/hard/crtend.o
 .data          0x0000000000000000        0x0 /home/slombardo/.arduino15/packages/adafruit/tools/arm-none-eabi-gcc/9-2019q4/bin/../lib/gcc/arm-none-eabi/9.2.1/thumb/v7e-m+fp/hard/crtend.o
 .bss           0x0000000000000000        0x0 /home/slombardo/.arduino15/packages/adafruit/tools/arm-none-eabi-gcc/9-2019q4/bin/../lib/gcc/arm-none-eabi/9.2.1/thumb/v7e-m+fp/hard/crtend.o
 .text          0x0000000000000000        0x0 /home/slombardo/.arduino15/packages/adafruit/tools/arm-none-eabi-gcc/9-2019q4/bin/../lib/gcc/arm-none-eabi/9.2.1/thumb/v7e-m+fp/hard/crtn.o
 .data          0x0000000000000000        0x0 /home/slombardo/.arduino15/packages/adafruit/tools/arm-none-eabi-gcc/9-2019q4/bin/../lib/gcc/arm-none-eabi/9.2.1/thumb/v7e-m+fp/hard/crtn.o
 .bss           0x0000000000000000        0x0 /home/slombardo/.arduino15/packages/adafruit/tools/arm-none-eabi-gcc/9-2019q4/bin/../lib/gcc/arm-none-eabi/9.2.1/thumb/v7e-m+fp/hard/crtn.o

Memory Configuration

Name             Origin             Length             Attributes
FLASH            0x0000000000026000 0x0000000000047000 xr
RAM              0x0000000020003600 0x000000000000ca00 xrw
*default*        0x0000000000000000 0xffffffffffffffff

Linker script and memory map

                0x0000000000000800                __StackSize = 0x800
                0x0000000020010000                PROVIDE (__StackTop = (ORIGIN (RAM) + LENGTH (RAM)))
                0x000000002000f800                PROVIDE (__StackLimit = (__StackTop - __StackSize))
                0x0000000020010000                PROVIDE (__stack = __StackTop)
                0x0000000000026000                __flash_arduino_start = ORIGIN (FLASH)
                0x000000000006d000                __flash_arduino_end = (ORIGIN (FLASH) + LENGTH (FLASH))

.text           0x0000000000026000     0x818c
 *(.isr_vector)
 .isr_vector    0x0000000000026000      0x200 /home/slombardo/projects/BadgersRunFirmware/Build/core/core.a(gcc_startup_nrf52.S.o)
                0x0000000000026000                __isr_vector
 *(.text*)
 .text.startup  0x0000000000026200       0x10 /home/slombardo/.arduino15/packages/adafruit/tools/arm-none-eabi-gcc/9-2019q4/bin/../lib/gcc/arm-none-eabi/9.2.1/thumb/v7e-m+fp/hard/crtfastmath.o
 .text          0x0000000000026210       0x40 /home/slombardo/.arduino15/packages/adafruit/tools/arm-none-eabi-gcc/9-2019q4/bin/../lib/gcc/arm-none-eabi/9.2.1/thumb/v7e-m+fp/hard/crtbegin.o
 .text          0x0000000000026250       0x74 /home/slombardo/.arduino15/packages/adafruit/tools/arm-none-eabi-gcc/9-2019q4/bin/../lib/gcc/arm-none-eabi/9.2.1/../../../../arm-none-eabi/lib/thumb/v7e-m+fp/hard/crt0.o
                0x0000000000026250                _mainCRTStartup
                0x0000000000026250                _start
 .text.loop     0x00000000000262c4       0x3c /home/slombardo/projects/BadgersRunFirmware/Build/sketch/keyboard.ino.cpp.o
                0x00000000000262c4                loop
 .text.setup    0x0000000000026300       0x4c /home/slombardo/projects/BadgersRunFirmware/Build/sketch/keyboard.ino.cpp.o
                0x0000000000026300                setup
 .text._Z11initVariantv
                0x000000000002634c       0x24 /home/slombardo/projects/BadgersRunFirmware/Build/core/variant.cpp.o
                0x000000000002634c                initVariant()
 .text          0x0000000000026370       0x54 /home/slombardo/projects/BadgersRunFirmware/Build/core/core.a(gcc_startup_nrf52.S.o)
                0x0000000000026370                Reset_Handler
                0x00000000000263b0                NMI_Handler
                0x00000000000263b4                MemoryManagement_Handler
                0x00000000000263b6                BusFault_Handler
                0x00000000000263b8                UsageFault_Handler
                0x00000000000263bc                DebugMon_Handler
                0x00000000000263c0                SysTick_Handler
                0x00000000000263c2                TIMER2_IRQHandler
                0x00000000000263c2                RTC0_IRQHandler
                0x00000000000263c2                SWI0_EGU0_IRQHandler
                0x00000000000263c2                SWI2_EGU2_IRQHandler
                0x00000000000263c2                GPIOTE_IRQHandler
                0x00000000000263c2                PWM1_IRQHandler
                0x00000000000263c2                POWER_CLOCK_IRQHandler
                0x00000000000263c2                RADIO_IRQHandler
                0x00000000000263c2                PDM_IRQHandler
                0x00000000000263c2                TEMP_IRQHandler
                0x00000000000263c2                QDEC_IRQHandler
                0x00000000000263c2                TIMER3_IRQHandler
                0x00000000000263c2                FPU_IRQHandler
                0x00000000000263c2                SPIM0_SPIS0_TWIM0_TWIS0_SPI0_TWI0_IRQHandler
                0x00000000000263c2                TIMER4_IRQHandler
                0x00000000000263c2                I2S_IRQHandler
                0x00000000000263c2                SWI4_EGU4_IRQHandler
                0x00000000000263c2                TIMER0_IRQHandler
                0x00000000000263c2                TIMER1_IRQHandler
                0x00000000000263c2                PWM2_IRQHandler
                0x00000000000263c2                ECB_IRQHandler
                0x00000000000263c2                SPIM1_SPIS1_TWIM1_TWIS1_SPI1_TWI1_IRQHandler
                0x00000000000263c2                Default_Handler
                0x00000000000263c2                SAADC_IRQHandler
                0x00000000000263c2                CCM_AAR_IRQHandler
                0x00000000000263c2                WDT_IRQHandler
                0x00000000000263c2                SWI5_EGU5_IRQHandler
                0x00000000000263c2                RNG_IRQHandler
                0x00000000000263c2                RTC2_IRQHandler
                0x00000000000263c2                PWM0_IRQHandler
                0x00000000000263c2                SWI3_EGU3_IRQHandler
                0x00000000000263c2                SWI1_EGU1_IRQHandler
                0x00000000000263c2                SPIM2_SPIS2_SPI2_IRQHandler
                0x00000000000263c2                NFCT_IRQHandler
                0x00000000000263c2                MWU_IRQHandler
                0x00000000000263c2                COMP_LPCOMP_IRQHandler
 .text.delay    0x00000000000263c4       0x14 /home/slombardo/projects/BadgersRunFirmware/Build/core/core.a(delay.c.o)
                0x00000000000263c4                delay
 .text.prvAddNewTaskToReadyList
                0x00000000000263d8      0x124 /home/slombardo/projects/BadgersRunFirmware/Build/core/core.a(tasks.c.o)
 .text.xTaskCreateStatic
                0x00000000000264fc       0xe0 /home/slombardo/projects/BadgersRunFirmware/Build/core/core.a(tasks.c.o)
                0x00000000000264fc                xTaskCreateStatic
 .text.xTaskCreate
                0x00000000000265dc       0xf0 /home/slombardo/projects/BadgersRunFirmware/Build/core/core.a(tasks.c.o)
                0x00000000000265dc                xTaskCreate
 .text.vTaskStartScheduler
                0x00000000000266cc       0xcc /home/slombardo/projects/BadgersRunFirmware/Build/core/core.a(tasks.c.o)
                0x00000000000266cc                vTaskStartScheduler
 .text.vTaskSuspendAll
                0x0000000000026798       0x10 /home/slombardo/projects/BadgersRunFirmware/Build/core/core.a(tasks.c.o)
                0x0000000000026798                vTaskSuspendAll
 .text.xTaskGetTickCount
                0x00000000000267a8        0xc /home/slombardo/projects/BadgersRunFirmware/Build/core/core.a(tasks.c.o)
                0x00000000000267a8                xTaskGetTickCount
 .text.pcTaskGetName
                0x00000000000267b4       0x14 /home/slombardo/projects/BadgersRunFirmware/Build/core/core.a(tasks.c.o)
                0x00000000000267b4                pcTaskGetName
 .text.vTaskStepTick
                0x00000000000267c8       0x10 /home/slombardo/projects/BadgersRunFirmware/Build/core/core.a(tasks.c.o)
                0x00000000000267c8                vTaskStepTick
 .text.xTaskIncrementTick
                0x00000000000267d8      0x134 /home/slombardo/projects/BadgersRunFirmware/Build/core/core.a(tasks.c.o)
                0x00000000000267d8                xTaskIncrementTick
 .text.xTaskResumeAll
                0x000000000002690c      0x120 /home/slombardo/projects/BadgersRunFirmware/Build/core/core.a(tasks.c.o)
                0x000000000002690c                xTaskResumeAll
 .text.vTaskDelay
                0x0000000000026a2c       0x84 /home/slombardo/projects/BadgersRunFirmware/Build/core/core.a(tasks.c.o)
                0x0000000000026a2c                vTaskDelay
 .text.prvIdleTask
                0x0000000000026ab0      0x118 /home/slombardo/projects/BadgersRunFirmware/Build/core/core.a(tasks.c.o)
 .text.vTaskSwitchContext
                0x0000000000026bc8       0xbc /home/slombardo/projects/BadgersRunFirmware/Build/core/core.a(tasks.c.o)
                0x0000000000026bc8                vTaskSwitchContext
 .text.vTaskPlaceOnEventList
                0x0000000000026c84       0x78 /home/slombardo/projects/BadgersRunFirmware/Build/core/core.a(tasks.c.o)
                0x0000000000026c84                vTaskPlaceOnEventList
 .text.vTaskPlaceOnEventListRestricted
                0x0000000000026cfc       0x80 /home/slombardo/projects/BadgersRunFirmware/Build/core/core.a(tasks.c.o)
                0x0000000000026cfc                vTaskPlaceOnEventListRestricted
 .text.xTaskRemoveFromEventList
                0x0000000000026d7c       0xa4 /home/slombardo/projects/BadgersRunFirmware/Build/core/core.a(tasks.c.o)
                0x0000000000026d7c                xTaskRemoveFromEventList
 .text.vTaskInternalSetTimeOutState
                0x0000000000026e20       0x18 /home/slombardo/projects/BadgersRunFirmware/Build/core/core.a(tasks.c.o)
                0x0000000000026e20                vTaskInternalSetTimeOutState
 .text.xTaskCheckForTimeOut
                0x0000000000026e38       0x68 /home/slombardo/projects/BadgersRunFirmware/Build/core/core.a(tasks.c.o)
                0x0000000000026e38                xTaskCheckForTimeOut
 .text.vTaskMissedYield
                0x0000000000026ea0        0xc /home/slombardo/projects/BadgersRunFirmware/Build/core/core.a(tasks.c.o)
                0x0000000000026ea0                vTaskMissedYield
 .text.eTaskConfirmSleepModeStatus
                0x0000000000026eac       0x38 /home/slombardo/projects/BadgersRunFirmware/Build/core/core.a(tasks.c.o)
                0x0000000000026eac                eTaskConfirmSleepModeStatus
 .text.xTaskGetCurrentTaskHandle
                0x0000000000026ee4        0xc /home/slombardo/projects/BadgersRunFirmware/Build/core/core.a(tasks.c.o)
                0x0000000000026ee4                xTaskGetCurrentTaskHandle
 .text.xTaskGetSchedulerState
                0x0000000000026ef0       0x20 /home/slombardo/projects/BadgersRunFirmware/Build/core/core.a(tasks.c.o)
                0x0000000000026ef0                xTaskGetSchedulerState
 .text.xTaskPriorityInherit
                0x0000000000026f10       0x8c /home/slombardo/projects/BadgersRunFirmware/Build/core/core.a(tasks.c.o)
                0x0000000000026f10                xTaskPriorityInherit
 .text.xTaskPriorityDisinherit
                0x0000000000026f9c       0x60 /home/slombardo/projects/BadgersRunFirmware/Build/core/core.a(tasks.c.o)
                0x0000000000026f9c                xTaskPriorityDisinherit
 .text.vTaskPriorityDisinheritAfterTimeout
                0x0000000000026ffc       0x74 /home/slombardo/projects/BadgersRunFirmware/Build/core/core.a(tasks.c.o)
                0x0000000000026ffc                vTaskPriorityDisinheritAfterTimeout
 .text.pvTaskIncrementMutexHeldCount
                0x0000000000027070       0x18 /home/slombardo/projects/BadgersRunFirmware/Build/core/core.a(tasks.c.o)
                0x0000000000027070                pvTaskIncrementMutexHeldCount
 .text.prvSwitchTimerLists
                0x0000000000027088       0x88 /home/slombardo/projects/BadgersRunFirmware/Build/core/core.a(timers.c.o)
 .text.prvTimerTask
                0x0000000000027110      0x240 /home/slombardo/projects/BadgersRunFirmware/Build/core/core.a(timers.c.o)
 .text.xTimerCreateTimerTask
                0x0000000000027350       0xac /home/slombardo/projects/BadgersRunFirmware/Build/core/core.a(timers.c.o)
                0x0000000000027350                xTimerCreateTimerTask
 .text.prvTaskExitError
                0x00000000000273fc        0x8 /home/slombardo/projects/BadgersRunFirmware/Build/core/core.a(port_cmsis.c.o)
 .text.pxPortInitialiseStack
                0x0000000000027404       0x2c /home/slombardo/projects/BadgersRunFirmware/Build/core/core.a(port_cmsis.c.o)
                0x0000000000027404                pxPortInitialiseStack
 .text.xPortStartScheduler
                0x0000000000027430       0x4c /home/slombardo/projects/BadgersRunFirmware/Build/core/core.a(port_cmsis.c.o)
                0x0000000000027430                xPortStartScheduler
 .text.vPortEnterCritical
                0x000000000002747c       0x14 /home/slombardo/projects/BadgersRunFirmware/Build/core/core.a(port_cmsis.c.o)
                0x000000000002747c                vPortEnterCritical
 .text.vPortExitCritical
                0x0000000000027490       0x14 /home/slombardo/projects/BadgersRunFirmware/Build/core/core.a(port_cmsis.c.o)
                0x0000000000027490                vPortExitCritical
 .text.sd_app_evt_wait
                0x00000000000274a4        0x4 /home/slombardo/projects/BadgersRunFirmware/Build/core/core.a(port_cmsis_systick.c.o)
 .text.sd_softdevice_is_enabled
                0x00000000000274a8        0x4 /home/slombardo/projects/BadgersRunFirmware/Build/core/core.a(port_cmsis_systick.c.o)
 .text.RTC1_IRQHandler
                0x00000000000274ac       0x88 /home/slombardo/projects/BadgersRunFirmware/Build/core/core.a(port_cmsis_systick.c.o)
                0x00000000000274ac                RTC1_IRQHandler
 .text.vPortSetupTimerInterrupt
                0x0000000000027534       0x3c /home/slombardo/projects/BadgersRunFirmware/Build/core/core.a(port_cmsis_systick.c.o)
                0x0000000000027534                vPortSetupTimerInterrupt
 .text.vPortSuppressTicksAndSleep
                0x0000000000027570      0x1c0 /home/slombardo/projects/BadgersRunFirmware/Build/core/core.a(port_cmsis_systick.c.o)
                0x0000000000027570                vPortSuppressTicksAndSleep
 .text.vPortStartFirstTask
                0x0000000000027730       0x24 /home/slombardo/projects/BadgersRunFirmware/Build/core/core.a(port.c.o)
                0x0000000000027730                vPortStartFirstTask
 .text.SVC_Handler
                0x0000000000027754       0x20 /home/slombardo/projects/BadgersRunFirmware/Build/core/core.a(port.c.o)
                0x0000000000027754                SVC_Handler
 .text.PendSV_Handler
                0x0000000000027774       0x60 /home/slombardo/projects/BadgersRunFirmware/Build/core/core.a(port.c.o)
                0x0000000000027774                PendSV_Handler
 .text.__empty  0x00000000000277d4        0x4 /home/slombardo/projects/BadgersRunFirmware/Build/core/core.a(hooks.c.o)
                0x00000000000277d4                vApplicationIdleHook
 .text.SystemInit
                0x00000000000277d8      0x388 /home/slombardo/projects/BadgersRunFirmware/Build/core/core.a(system_nrf52.c.o)
                0x00000000000277d8                SystemInit
 .text.init     0x0000000000027b60       0x5c /home/slombardo/projects/BadgersRunFirmware/Build/core/core.a(wiring.c.o)
                0x0000000000027b60                init
 .text.pinMode  0x0000000000027bbc       0x84 /home/slombardo/projects/BadgersRunFirmware/Build/core/core.a(wiring_digital.c.o)
                0x0000000000027bbc                pinMode
 .text.digitalWrite
                0x0000000000027c40       0x2c /home/slombardo/projects/BadgersRunFirmware/Build/core/core.a(wiring_digital.c.o)
                0x0000000000027c40                digitalWrite
 .text.digitalRead
                0x0000000000027c6c       0x34 /home/slombardo/projects/BadgersRunFirmware/Build/core/core.a(wiring_digital.c.o)
                0x0000000000027c6c                digitalRead
 .text.ledOff   0x0000000000027ca0       0x1c /home/slombardo/projects/BadgersRunFirmware/Build/core/core.a(wiring_digital.c.o)
                0x0000000000027ca0                ledOff
 .text._ZN5Print17availableForWriteEv
                0x0000000000027cbc        0x4 /home/slombardo/projects/BadgersRunFirmware/Build/core/core.a(Print.cpp.o)
                0x0000000000027cbc                Print::availableForWrite()
 .text._ZN5Print5writeEPKhj
                0x0000000000027cc0       0x2c /home/slombardo/projects/BadgersRunFirmware/Build/core/core.a(Print.cpp.o)
                0x0000000000027cc0                Print::write(unsigned char const*, unsigned int)
 .text._ZN5Print11printNumberEmh
                0x0000000000027cec       0x88 /home/slombardo/projects/BadgersRunFirmware/Build/core/core.a(Print.cpp.o)
                0x0000000000027cec                Print::printNumber(unsigned long, unsigned char)
 .text._ZN5Print5printEli
                0x0000000000027d74       0x44 /home/slombardo/projects/BadgersRunFirmware/Build/core/core.a(Print.cpp.o)
                0x0000000000027d74                Print::print(long, int)
 .text._ZN5Print7printlnEii
                0x0000000000027db8       0x4c /home/slombardo/projects/BadgersRunFirmware/Build/core/core.a(Print.cpp.o)
                0x0000000000027db8                Print::println(int, int)
 .text._ZN4UartcvbEv
                0x0000000000027e04        0x8 /home/slombardo/projects/BadgersRunFirmware/Build/core/core.a(Uart.cpp.o)
                0x0000000000027e04                Uart::operator bool()
 .text._ZN4Uart3endEv
                0x0000000000027e0c       0x70 /home/slombardo/projects/BadgersRunFirmware/Build/core/core.a(Uart.cpp.o)
                0x0000000000027e0c                Uart::end()
 .text._ZN4Uart9availableEv
                0x0000000000027e7c        0x8 /home/slombardo/projects/BadgersRunFirmware/Build/core/core.a(Uart.cpp.o)
                0x0000000000027e7c                Uart::available()
 .text._ZN4Uart4peekEv
                0x0000000000027e84        0x8 /home/slombardo/projects/BadgersRunFirmware/Build/core/core.a(Uart.cpp.o)
                0x0000000000027e84                Uart::peek()
 .text._ZN4Uart4readEv
                0x0000000000027e8c        0x8 /home/slombardo/projects/BadgersRunFirmware/Build/core/core.a(Uart.cpp.o)
                0x0000000000027e8c                Uart::read()
 .text._ZN4Uart5flushEv
                0x0000000000027e94       0x2c /home/slombardo/projects/BadgersRunFirmware/Build/core/core.a(Uart.cpp.o)
                0x0000000000027e94                Uart::flush()
 .text._ZN4Uart5writeEh
                0x0000000000027ec0       0x48 /home/slombardo/projects/BadgersRunFirmware/Build/core/core.a(Uart.cpp.o)
                0x0000000000027ec0                Uart::write(unsigned char)
 .text._ZN4Uart5writeEPKhj
                0x0000000000027f08       0x54 /home/slombardo/projects/BadgersRunFirmware/Build/core/core.a(Uart.cpp.o)
                0x0000000000027f08                Uart::write(unsigned char const*, unsigned int)
 .text._ZN4Uart5beginEm
                0x0000000000027f5c      0x1bc /home/slombardo/projects/BadgersRunFirmware/Build/core/core.a(Uart.cpp.o)
                0x0000000000027f5c                Uart::begin(unsigned long)
 .text._ZN4Uart5beginEmt
                0x0000000000028118      0x1a0 /home/slombardo/projects/BadgersRunFirmware/Build/core/core.a(Uart.cpp.o)
                0x0000000000028118                Uart::begin(unsigned long, unsigned short)
 .text._Z14serialEventRunv
                0x00000000000282b8       0x20 /home/slombardo/projects/BadgersRunFirmware/Build/core/core.a(Uart.cpp.o)
                0x00000000000282b8                serialEventRun()
 .text.UARTE0_UART0_IRQHandler
                0x00000000000282d8       0x4c /home/slombardo/projects/BadgersRunFirmware/Build/core/core.a(Uart.cpp.o)
                0x00000000000282d8                UARTE0_UART0_IRQHandler
 .text.startup._GLOBAL__sub_I__ZN4UartC2EP14NRF_UARTE_Type9IRQn_Typehh
                0x0000000000028324       0x4c /home/slombardo/projects/BadgersRunFirmware/Build/core/core.a(Uart.cpp.o)
 .text._Z19Bluefruit_printInfov
                0x0000000000028370        0x4 /home/slombardo/projects/BadgersRunFirmware/Build/core/core.a(main.cpp.o)
                0x0000000000028370                Bluefruit_printInfo()
 .text.startup.main
                0x0000000000028374       0x5c /home/slombardo/projects/BadgersRunFirmware/Build/core/core.a(main.cpp.o)
                0x0000000000028374                main
 .text._ZL9loop_taskPv
                0x00000000000283d0       0x74 /home/slombardo/projects/BadgersRunFirmware/Build/core/core.a(main.cpp.o)
 .text._write   0x0000000000028444       0x14 /home/slombardo/projects/BadgersRunFirmware/Build/core/core.a(main.cpp.o)
                0x0000000000028444                _write
 .text.yield    0x0000000000028458       0x18 /home/slombardo/projects/BadgersRunFirmware/Build/core/core.a(rtos.cpp.o)
                0x0000000000028458                yield
 .text.vApplicationStackOverflowHook
                0x0000000000028470       0x40 /home/slombardo/projects/BadgersRunFirmware/Build/core/core.a(rtos.cpp.o)
                0x0000000000028470                vApplicationStackOverflowHook
 .text.vApplicationMallocFailedHook
                0x00000000000284b0       0x44 /home/slombardo/projects/BadgersRunFirmware/Build/core/core.a(rtos.cpp.o)
                0x00000000000284b0                vApplicationMallocFailedHook
 .text.vApplicationGetIdleTaskMemory
                0x00000000000284f4       0x1c /home/slombardo/projects/BadgersRunFirmware/Build/core/core.a(rtos.cpp.o)
                0x00000000000284f4                vApplicationGetIdleTaskMemory
 .text.vApplicationGetTimerTaskMemory
                0x0000000000028510       0x20 /home/slombardo/projects/BadgersRunFirmware/Build/core/core.a(rtos.cpp.o)
                0x0000000000028510                vApplicationGetTimerTaskMemory
 .text.HardFault_Handler
                0x0000000000028530       0x24 /home/slombardo/projects/BadgersRunFirmware/Build/core/core.a(debug.cpp.o)
                0x0000000000028530                HardFault_Handler
 .text.dbgPrintVersion
                0x0000000000028554       0x3c /home/slombardo/projects/BadgersRunFirmware/Build/core/core.a(debug.cpp.o)
                0x0000000000028554                dbgPrintVersion
 .text.dbg_err_str
                0x0000000000028590       0x2c /home/slombardo/projects/BadgersRunFirmware/Build/core/core.a(debug.cpp.o)
                0x0000000000028590                dbg_err_str
 .text.vListInitialise
                0x00000000000285bc       0x18 /home/slombardo/projects/BadgersRunFirmware/Build/core/core.a(list.c.o)
                0x00000000000285bc                vListInitialise
 .text.vListInitialiseItem
                0x00000000000285d4        0x8 /home/slombardo/projects/BadgersRunFirmware/Build/core/core.a(list.c.o)
                0x00000000000285d4                vListInitialiseItem
 .text.vListInsertEnd
                0x00000000000285dc       0x20 /home/slombardo/projects/BadgersRunFirmware/Build/core/core.a(list.c.o)
                0x00000000000285dc                vListInsertEnd
 .text.vListInsert
                0x00000000000285fc       0x30 /home/slombardo/projects/BadgersRunFirmware/Build/core/core.a(list.c.o)
                0x00000000000285fc                vListInsert
 .text.uxListRemove
                0x000000000002862c       0x28 /home/slombardo/projects/BadgersRunFirmware/Build/core/core.a(list.c.o)
                0x000000000002862c                uxListRemove
 .text.pvPortMalloc
                0x0000000000028654       0x24 /home/slombardo/projects/BadgersRunFirmware/Build/core/core.a(heap_3.c.o)
                0x0000000000028654                pvPortMalloc
 .text.vPortFree
                0x0000000000028678       0x1c /home/slombardo/projects/BadgersRunFirmware/Build/core/core.a(heap_3.c.o)
                0x0000000000028678                vPortFree
 .text.xQueueGenericCreateStatic
                0x0000000000028694       0x60 /home/slombardo/projects/BadgersRunFirmware/Build/core/core.a(queue.c.o)
                0x0000000000028694                xQueueGenericCreateStatic
 .text.xQueueGenericCreate
                0x00000000000286f4       0x84 /home/slombardo/projects/BadgersRunFirmware/Build/core/core.a(queue.c.o)
                0x00000000000286f4                xQueueGenericCreate
 .text.xQueueGenericSend
                0x0000000000028778      0x360 /home/slombardo/projects/BadgersRunFirmware/Build/core/core.a(queue.c.o)
                0x0000000000028778                xQueueGenericSend
 .text.xQueueCreateMutex
                0x0000000000028ad8       0x70 /home/slombardo/projects/BadgersRunFirmware/Build/core/core.a(queue.c.o)
                0x0000000000028ad8                xQueueCreateMutex
 .text.xQueueGiveFromISR
                0x0000000000028b48       0x60 /home/slombardo/projects/BadgersRunFirmware/Build/core/core.a(queue.c.o)
                0x0000000000028b48                xQueueGiveFromISR
 .text.xQueueReceive
                0x0000000000028ba8      0x2b8 /home/slombardo/projects/BadgersRunFirmware/Build/core/core.a(queue.c.o)
                0x0000000000028ba8                xQueueReceive
 .text.xQueueSemaphoreTake
                0x0000000000028e60      0x2f8 /home/slombardo/projects/BadgersRunFirmware/Build/core/core.a(queue.c.o)
                0x0000000000028e60                xQueueSemaphoreTake
 .text.vQueueDelete
                0x0000000000029158       0x48 /home/slombardo/projects/BadgersRunFirmware/Build/core/core.a(queue.c.o)
                0x0000000000029158                vQueueDelete
 .text.vQueueAddToRegistry
                0x00000000000291a0       0x24 /home/slombardo/projects/BadgersRunFirmware/Build/core/core.a(queue.c.o)
                0x00000000000291a0                vQueueAddToRegistry
 .text.vQueueWaitForMessageRestricted
                0x00000000000291c4       0xcc /home/slombardo/projects/BadgersRunFirmware/Build/core/core.a(queue.c.o)
                0x00000000000291c4                vQueueWaitForMessageRestricted
 .text.adafruit_callback_task
                0x0000000000029290       0xc4 /home/slombardo/projects/BadgersRunFirmware/Build/core/core.a(AdaCallback.c.o)
                0x0000000000029290                adafruit_callback_task
 .text.ada_callback_init
                0x0000000000029354       0x48 /home/slombardo/projects/BadgersRunFirmware/Build/core/core.a(AdaCallback.c.o)
                0x0000000000029354                ada_callback_init
 .text.lookup_find
                0x000000000002939c       0x28 /home/slombardo/projects/BadgersRunFirmware/Build/core/core.a(utilities.c.o)
                0x000000000002939c                lookup_find
 .text.getBootloaderVersion
                0x00000000000293c4       0x80 /home/slombardo/projects/BadgersRunFirmware/Build/core/core.a(utilities.c.o)
                0x00000000000293c4                getBootloaderVersion
 .text.getMcuUniqueID
                0x0000000000029444       0x28 /home/slombardo/projects/BadgersRunFirmware/Build/core/core.a(utilities.c.o)
                0x0000000000029444                getMcuUniqueID
 .text._ZN10RingBufferC2Ev
                0x000000000002946c       0x18 /home/slombardo/projects/BadgersRunFirmware/Build/core/core.a(RingBuffer.cpp.o)
                0x000000000002946c                RingBuffer::RingBuffer()
                0x000000000002946c                RingBuffer::RingBuffer()
 .text._ZN10RingBuffer10store_charEh
                0x0000000000029484       0x1c /home/slombardo/projects/BadgersRunFirmware/Build/core/core.a(RingBuffer.cpp.o)
                0x0000000000029484                RingBuffer::store_char(unsigned char)
 .text._ZN10RingBuffer5clearEv
                0x00000000000294a0        0x8 /home/slombardo/projects/BadgersRunFirmware/Build/core/core.a(RingBuffer.cpp.o)
                0x00000000000294a0                RingBuffer::clear()
 .text._ZN10RingBuffer9read_charEv
                0x00000000000294a8       0x1c /home/slombardo/projects/BadgersRunFirmware/Build/core/core.a(RingBuffer.cpp.o)
                0x00000000000294a8                RingBuffer::read_char()
 .text._ZN10RingBuffer9availableEv
                0x00000000000294c4        0xc /home/slombardo/projects/BadgersRunFirmware/Build/core/core.a(RingBuffer.cpp.o)
                0x00000000000294c4                RingBuffer::available()
 .text._ZN10RingBuffer4peekEv
                0x00000000000294d0       0x10 /home/slombardo/projects/BadgersRunFirmware/Build/core/core.a(RingBuffer.cpp.o)
                0x00000000000294d0                RingBuffer::peek()
 .text.exit     0x00000000000294e0       0x28 /home/slombardo/.arduino15/packages/adafruit/tools/arm-none-eabi-gcc/9-2019q4/bin/../lib/gcc/arm-none-eabi/9.2.1/../../../../arm-none-eabi/lib/thumb/v7e-m+fp/hard/libc_nano.a(lib_a-exit.o)
                0x00000000000294e0                exit
 .text.__libc_init_array
                0x0000000000029508       0x48 /home/slombardo/.arduino15/packages/adafruit/tools/arm-none-eabi-gcc/9-2019q4/bin/../lib/gcc/arm-none-eabi/9.2.1/../../../../arm-none-eabi/lib/thumb/v7e-m+fp/hard/libc_nano.a(lib_a-init.o)
                0x0000000000029508                __libc_init_array
 .text.malloc   0x0000000000029550       0x10 /home/slombardo/.arduino15/packages/adafruit/tools/arm-none-eabi-gcc/9-2019q4/bin/../lib/gcc/arm-none-eabi/9.2.1/../../../../arm-none-eabi/lib/thumb/v7e-m+fp/hard/libc_nano.a(lib_a-malloc.o)
                0x0000000000029550                malloc
 .text.free     0x0000000000029560       0x10 /home/slombardo/.arduino15/packages/adafruit/tools/arm-none-eabi-gcc/9-2019q4/bin/../lib/gcc/arm-none-eabi/9.2.1/../../../../arm-none-eabi/lib/thumb/v7e-m+fp/hard/libc_nano.a(lib_a-malloc.o)
                0x0000000000029560                free
 .text.memcpy   0x0000000000029570       0x1c /home/slombardo/.arduino15/packages/adafruit/tools/arm-none-eabi-gcc/9-2019q4/bin/../lib/gcc/arm-none-eabi/9.2.1/../../../../arm-none-eabi/lib/thumb/v7e-m+fp/hard/libc_nano.a(lib_a-memcpy-stub.o)
                0x0000000000029570                memcpy
 .text.memset   0x000000000002958c       0x10 /home/slombardo/.arduino15/packages/adafruit/tools/arm-none-eabi-gcc/9-2019q4/bin/../lib/gcc/arm-none-eabi/9.2.1/../../../../arm-none-eabi/lib/thumb/v7e-m+fp/hard/libc_nano.a(lib_a-memset.o)
                0x000000000002958c                memset
 .text._free_r  0x000000000002959c       0xa0 /home/slombardo/.arduino15/packages/adafruit/tools/arm-none-eabi-gcc/9-2019q4/bin/../lib/gcc/arm-none-eabi/9.2.1/../../../../arm-none-eabi/lib/thumb/v7e-m+fp/hard/libc_nano.a(lib_a-nano-freer.o)
                0x000000000002959c                _free_r
 .text._malloc_r
                0x000000000002963c       0xb4 /home/slombardo/.arduino15/packages/adafruit/tools/arm-none-eabi-gcc/9-2019q4/bin/../lib/gcc/arm-none-eabi/9.2.1/../../../../arm-none-eabi/lib/thumb/v7e-m+fp/hard/libc_nano.a(lib_a-nano-mallocr.o)
                0x000000000002963c                _malloc_r
 .text.__cvt    0x00000000000296f0       0xc4 /home/slombardo/.arduino15/packages/adafruit/tools/arm-none-eabi-gcc/9-2019q4/bin/../lib/gcc/arm-none-eabi/9.2.1/../../../../arm-none-eabi/lib/thumb/v7e-m+fp/hard/libc_nano.a(lib_a-nano-vfprintf_float.o)
                0x00000000000296f0                __cvt
 .text.__exponent
                0x00000000000297b4       0x7c /home/slombardo/.arduino15/packages/adafruit/tools/arm-none-eabi-gcc/9-2019q4/bin/../lib/gcc/arm-none-eabi/9.2.1/../../../../arm-none-eabi/lib/thumb/v7e-m+fp/hard/libc_nano.a(lib_a-nano-vfprintf_float.o)
                0x00000000000297b4                __exponent
 .text._printf_float
                0x0000000000029830      0x46c /home/slombardo/.arduino15/packages/adafruit/tools/arm-none-eabi-gcc/9-2019q4/bin/../lib/gcc/arm-none-eabi/9.2.1/../../../../arm-none-eabi/lib/thumb/v7e-m+fp/hard/libc_nano.a(lib_a-nano-vfprintf_float.o)
                0x0000000000029830                _printf_float
 .text._printf_common
                0x0000000000029c9c       0xda /home/slombardo/.arduino15/packages/adafruit/tools/arm-none-eabi-gcc/9-2019q4/bin/../lib/gcc/arm-none-eabi/9.2.1/../../../../arm-none-eabi/lib/thumb/v7e-m+fp/hard/libc_nano.a(lib_a-nano-vfprintf_i.o)
                0x0000000000029c9c                _printf_common
 *fill*         0x0000000000029d76        0x2 
 .text._printf_i
                0x0000000000029d78      0x24c /home/slombardo/.arduino15/packages/adafruit/tools/arm-none-eabi-gcc/9-2019q4/bin/../lib/gcc/arm-none-eabi/9.2.1/../../../../arm-none-eabi/lib/thumb/v7e-m+fp/hard/libc_nano.a(lib_a-nano-vfprintf_i.o)
                0x0000000000029d78                _printf_i
 .text.printf   0x0000000000029fc4       0x30 /home/slombardo/.arduino15/packages/adafruit/tools/arm-none-eabi-gcc/9-2019q4/bin/../lib/gcc/arm-none-eabi/9.2.1/../../../../arm-none-eabi/lib/thumb/v7e-m+fp/hard/libc_nano.a(lib_a-printf.o)
                0x0000000000029fc4                printf
                0x0000000000029fc4                iprintf
 .text.putchar  0x0000000000029ff4       0x2c /home/slombardo/.arduino15/packages/adafruit/tools/arm-none-eabi-gcc/9-2019q4/bin/../lib/gcc/arm-none-eabi/9.2.1/../../../../arm-none-eabi/lib/thumb/v7e-m+fp/hard/libc_nano.a(lib_a-putchar.o)
                0x0000000000029ff4                putchar
 .text._puts_r  0x000000000002a020       0xdc /home/slombardo/.arduino15/packages/adafruit/tools/arm-none-eabi-gcc/9-2019q4/bin/../lib/gcc/arm-none-eabi/9.2.1/../../../../arm-none-eabi/lib/thumb/v7e-m+fp/hard/libc_nano.a(lib_a-puts.o)
                0x000000000002a020                _puts_r
 .text.puts     0x000000000002a0fc       0x10 /home/slombardo/.arduino15/packages/adafruit/tools/arm-none-eabi-gcc/9-2019q4/bin/../lib/gcc/arm-none-eabi/9.2.1/../../../../arm-none-eabi/lib/thumb/v7e-m+fp/hard/libc_nano.a(lib_a-puts.o)
                0x000000000002a0fc                puts
 .text._sbrk_r  0x000000000002a10c       0x20 /home/slombardo/.arduino15/packages/adafruit/tools/arm-none-eabi-gcc/9-2019q4/bin/../lib/gcc/arm-none-eabi/9.2.1/../../../../arm-none-eabi/lib/thumb/v7e-m+fp/hard/libc_nano.a(lib_a-sbrkr.o)
                0x000000000002a10c                _sbrk_r
 .text.sprintf  0x000000000002a12c       0x40 /home/slombardo/.arduino15/packages/adafruit/tools/arm-none-eabi-gcc/9-2019q4/bin/../lib/gcc/arm-none-eabi/9.2.1/../../../../arm-none-eabi/lib/thumb/v7e-m+fp/hard/libc_nano.a(lib_a-sprintf.o)
                0x000000000002a12c                sprintf
                0x000000000002a12c                siprintf
 .text          0x000000000002a16c       0x10 /home/slombardo/.arduino15/packages/adafruit/tools/arm-none-eabi-gcc/9-2019q4/bin/../lib/gcc/arm-none-eabi/9.2.1/../../../../arm-none-eabi/lib/thumb/v7e-m+fp/hard/libc_nano.a(lib_a-strlen.o)
                0x000000000002a16c                strlen
 .text.__swbuf_r
                0x000000000002a17c       0xa4 /home/slombardo/.arduino15/packages/adafruit/tools/arm-none-eabi-gcc/9-2019q4/bin/../lib/gcc/arm-none-eabi/9.2.1/../../../../arm-none-eabi/lib/thumb/v7e-m+fp/hard/libc_nano.a(lib_a-wbuf.o)
                0x000000000002a17c                __swbuf_r
 .text.__swsetup_r
                0x000000000002a220       0xdc /home/slombardo/.arduino15/packages/adafruit/tools/arm-none-eabi-gcc/9-2019q4/bin/../lib/gcc/arm-none-eabi/9.2.1/../../../../arm-none-eabi/lib/thumb/v7e-m+fp/hard/libc_nano.a(lib_a-wsetup.o)
                0x000000000002a220                __swsetup_r
 .text.quorem   0x000000000002a2fc      0x116 /home/slombardo/.arduino15/packages/adafruit/tools/arm-none-eabi-gcc/9-2019q4/bin/../lib/gcc/arm-none-eabi/9.2.1/../../../../arm-none-eabi/lib/thumb/v7e-m+fp/hard/libc_nano.a(lib_a-dtoa.o)
 *fill*         0x000000000002a412        0x6 
 .text._dtoa_r  0x000000000002a418      0xbbc /home/slombardo/.arduino15/packages/adafruit/tools/arm-none-eabi-gcc/9-2019q4/bin/../lib/gcc/arm-none-eabi/9.2.1/../../../../arm-none-eabi/lib/thumb/v7e-m+fp/hard/libc_nano.a(lib_a-dtoa.o)
                0x000000000002a418                _dtoa_r
 .text.__sflush_r
                0x000000000002afd4      0x10c /home/slombardo/.arduino15/packages/adafruit/tools/arm-none-eabi-gcc/9-2019q4/bin/../lib/gcc/arm-none-eabi/9.2.1/../../../../arm-none-eabi/lib/thumb/v7e-m+fp/hard/libc_nano.a(lib_a-fflush.o)
                0x000000000002afd4                __sflush_r
 .text._fflush_r
                0x000000000002b0e0       0x78 /home/slombardo/.arduino15/packages/adafruit/tools/arm-none-eabi-gcc/9-2019q4/bin/../lib/gcc/arm-none-eabi/9.2.1/../../../../arm-none-eabi/lib/thumb/v7e-m+fp/hard/libc_nano.a(lib_a-fflush.o)
                0x000000000002b0e0                _fflush_r
 .text.std      0x000000000002b158       0x48 /home/slombardo/.arduino15/packages/adafruit/tools/arm-none-eabi-gcc/9-2019q4/bin/../lib/gcc/arm-none-eabi/9.2.1/../../../../arm-none-eabi/lib/thumb/v7e-m+fp/hard/libc_nano.a(lib_a-findfp.o)
 .text._cleanup_r
                0x000000000002b1a0        0xc /home/slombardo/.arduino15/packages/adafruit/tools/arm-none-eabi-gcc/9-2019q4/bin/../lib/gcc/arm-none-eabi/9.2.1/../../../../arm-none-eabi/lib/thumb/v7e-m+fp/hard/libc_nano.a(lib_a-findfp.o)
                0x000000000002b1a0                _cleanup_r
 .text.__sfmoreglue
                0x000000000002b1ac       0x2c /home/slombardo/.arduino15/packages/adafruit/tools/arm-none-eabi-gcc/9-2019q4/bin/../lib/gcc/arm-none-eabi/9.2.1/../../../../arm-none-eabi/lib/thumb/v7e-m+fp/hard/libc_nano.a(lib_a-findfp.o)
                0x000000000002b1ac                __sfmoreglue
 .text.__sfp_lock_acquire
                0x000000000002b1d8        0xc /home/slombardo/.arduino15/packages/adafruit/tools/arm-none-eabi-gcc/9-2019q4/bin/../lib/gcc/arm-none-eabi/9.2.1/../../../../arm-none-eabi/lib/thumb/v7e-m+fp/hard/libc_nano.a(lib_a-findfp.o)
                0x000000000002b1d8                __sfp_lock_acquire
 .text.__sfp_lock_release
                0x000000000002b1e4        0xc /home/slombardo/.arduino15/packages/adafruit/tools/arm-none-eabi-gcc/9-2019q4/bin/../lib/gcc/arm-none-eabi/9.2.1/../../../../arm-none-eabi/lib/thumb/v7e-m+fp/hard/libc_nano.a(lib_a-findfp.o)
                0x000000000002b1e4                __sfp_lock_release
 .text.__sinit_lock_acquire
                0x000000000002b1f0        0xc /home/slombardo/.arduino15/packages/adafruit/tools/arm-none-eabi-gcc/9-2019q4/bin/../lib/gcc/arm-none-eabi/9.2.1/../../../../arm-none-eabi/lib/thumb/v7e-m+fp/hard/libc_nano.a(lib_a-findfp.o)
                0x000000000002b1f0                __sinit_lock_acquire
 .text.__sinit_lock_release
                0x000000000002b1fc        0xc /home/slombardo/.arduino15/packages/adafruit/tools/arm-none-eabi-gcc/9-2019q4/bin/../lib/gcc/arm-none-eabi/9.2.1/../../../../arm-none-eabi/lib/thumb/v7e-m+fp/hard/libc_nano.a(lib_a-findfp.o)
                0x000000000002b1fc                __sinit_lock_release
 .text.__sinit  0x000000000002b208       0x70 /home/slombardo/.arduino15/packages/adafruit/tools/arm-none-eabi-gcc/9-2019q4/bin/../lib/gcc/arm-none-eabi/9.2.1/../../../../arm-none-eabi/lib/thumb/v7e-m+fp/hard/libc_nano.a(lib_a-findfp.o)
                0x000000000002b208                __sinit
 .text.__sfp    0x000000000002b278       0x8c /home/slombardo/.arduino15/packages/adafruit/tools/arm-none-eabi-gcc/9-2019q4/bin/../lib/gcc/arm-none-eabi/9.2.1/../../../../arm-none-eabi/lib/thumb/v7e-m+fp/hard/libc_nano.a(lib_a-findfp.o)
                0x000000000002b278                __sfp
 .text._fwalk_reent
                0x000000000002b304       0x3e /home/slombardo/.arduino15/packages/adafruit/tools/arm-none-eabi-gcc/9-2019q4/bin/../lib/gcc/arm-none-eabi/9.2.1/../../../../arm-none-eabi/lib/thumb/v7e-m+fp/hard/libc_nano.a(lib_a-fwalk.o)
                0x000000000002b304                _fwalk_reent
 *fill*         0x000000000002b342        0x2 
 .text._localeconv_r
                0x000000000002b344        0x8 /home/slombardo/.arduino15/packages/adafruit/tools/arm-none-eabi-gcc/9-2019q4/bin/../lib/gcc/arm-none-eabi/9.2.1/../../../../arm-none-eabi/lib/thumb/v7e-m+fp/hard/libc_nano.a(lib_a-localeconv.o)
                0x000000000002b344                _localeconv_r
 .text.__retarget_lock_init_recursive
                0x000000000002b34c        0x2 /home/slombardo/.arduino15/packages/adafruit/tools/arm-none-eabi-gcc/9-2019q4/bin/../lib/gcc/arm-none-eabi/9.2.1/../../../../arm-none-eabi/lib/thumb/v7e-m+fp/hard/libc_nano.a(lib_a-lock.o)
                0x000000000002b34c                __retarget_lock_init_recursive
 .text.__retarget_lock_acquire_recursive
                0x000000000002b34e        0x2 /home/slombardo/.arduino15/packages/adafruit/tools/arm-none-eabi-gcc/9-2019q4/bin/../lib/gcc/arm-none-eabi/9.2.1/../../../../arm-none-eabi/lib/thumb/v7e-m+fp/hard/libc_nano.a(lib_a-lock.o)
                0x000000000002b34e                __retarget_lock_acquire_recursive
 .text.__retarget_lock_release_recursive
                0x000000000002b350        0x2 /home/slombardo/.arduino15/packages/adafruit/tools/arm-none-eabi-gcc/9-2019q4/bin/../lib/gcc/arm-none-eabi/9.2.1/../../../../arm-none-eabi/lib/thumb/v7e-m+fp/hard/libc_nano.a(lib_a-lock.o)
                0x000000000002b350                __retarget_lock_release_recursive
 .text.__swhatbuf_r
                0x000000000002b352       0x48 /home/slombardo/.arduino15/packages/adafruit/tools/arm-none-eabi-gcc/9-2019q4/bin/../lib/gcc/arm-none-eabi/9.2.1/../../../../arm-none-eabi/lib/thumb/v7e-m+fp/hard/libc_nano.a(lib_a-makebuf.o)
                0x000000000002b352                __swhatbuf_r
 *fill*         0x000000000002b39a        0x2 
 .text.__smakebuf_r
                0x000000000002b39c       0x80 /home/slombardo/.arduino15/packages/adafruit/tools/arm-none-eabi-gcc/9-2019q4/bin/../lib/gcc/arm-none-eabi/9.2.1/../../../../arm-none-eabi/lib/thumb/v7e-m+fp/hard/libc_nano.a(lib_a-makebuf.o)
                0x000000000002b39c                __smakebuf_r
 *fill*         0x000000000002b41c        0x4 
 .text          0x000000000002b420       0xa0 /home/slombardo/.arduino15/packages/adafruit/tools/arm-none-eabi-gcc/9-2019q4/bin/../lib/gcc/arm-none-eabi/9.2.1/../../../../arm-none-eabi/lib/thumb/v7e-m+fp/hard/libc_nano.a(lib_a-memchr.o)
                0x000000000002b420                memchr
 .text.__malloc_lock
                0x000000000002b4c0        0xc /home/slombardo/.arduino15/packages/adafruit/tools/arm-none-eabi-gcc/9-2019q4/bin/../lib/gcc/arm-none-eabi/9.2.1/../../../../arm-none-eabi/lib/thumb/v7e-m+fp/hard/libc_nano.a(lib_a-mlock.o)
                0x000000000002b4c0                __malloc_lock
 .text.__malloc_unlock
                0x000000000002b4cc        0xc /home/slombardo/.arduino15/packages/adafruit/tools/arm-none-eabi-gcc/9-2019q4/bin/../lib/gcc/arm-none-eabi/9.2.1/../../../../arm-none-eabi/lib/thumb/v7e-m+fp/hard/libc_nano.a(lib_a-mlock.o)
                0x000000000002b4cc                __malloc_unlock
 .text._Balloc  0x000000000002b4d8       0x68 /home/slombardo/.arduino15/packages/adafruit/tools/arm-none-eabi-gcc/9-2019q4/bin/../lib/gcc/arm-none-eabi/9.2.1/../../../../arm-none-eabi/lib/thumb/v7e-m+fp/hard/libc_nano.a(lib_a-mprec.o)
                0x000000000002b4d8                _Balloc
 .text._Bfree   0x000000000002b540       0x2e /home/slombardo/.arduino15/packages/adafruit/tools/arm-none-eabi-gcc/9-2019q4/bin/../lib/gcc/arm-none-eabi/9.2.1/../../../../arm-none-eabi/lib/thumb/v7e-m+fp/hard/libc_nano.a(lib_a-mprec.o)
                0x000000000002b540                _Bfree
 .text.__multadd
                0x000000000002b56e       0x7c /home/slombardo/.arduino15/packages/adafruit/tools/arm-none-eabi-gcc/9-2019q4/bin/../lib/gcc/arm-none-eabi/9.2.1/../../../../arm-none-eabi/lib/thumb/v7e-m+fp/hard/libc_nano.a(lib_a-mprec.o)
                0x000000000002b56e                __multadd
 .text.__hi0bits
                0x000000000002b5ea       0x40 /home/slombardo/.arduino15/packages/adafruit/tools/arm-none-eabi-gcc/9-2019q4/bin/../lib/gcc/arm-none-eabi/9.2.1/../../../../arm-none-eabi/lib/thumb/v7e-m+fp/hard/libc_nano.a(lib_a-mprec.o)
                0x000000000002b5ea                __hi0bits
 .text.__lo0bits
                0x000000000002b62a       0x60 /home/slombardo/.arduino15/packages/adafruit/tools/arm-none-eabi-gcc/9-2019q4/bin/../lib/gcc/arm-none-eabi/9.2.1/../../../../arm-none-eabi/lib/thumb/v7e-m+fp/hard/libc_nano.a(lib_a-mprec.o)
                0x000000000002b62a                __lo0bits
 .text.__i2b    0x000000000002b68a       0x12 /home/slombardo/.arduino15/packages/adafruit/tools/arm-none-eabi-gcc/9-2019q4/bin/../lib/gcc/arm-none-eabi/9.2.1/../../../../arm-none-eabi/lib/thumb/v7e-m+fp/hard/libc_nano.a(lib_a-mprec.o)
                0x000000000002b68a                __i2b
 .text.__multiply
                0x000000000002b69c      0x138 /home/slombardo/.arduino15/packages/adafruit/tools/arm-none-eabi-gcc/9-2019q4/bin/../lib/gcc/arm-none-eabi/9.2.1/../../../../arm-none-eabi/lib/thumb/v7e-m+fp/hard/libc_nano.a(lib_a-mprec.o)
                0x000000000002b69c                __multiply
 .text.__pow5mult
                0x000000000002b7d4       0x9c /home/slombardo/.arduino15/packages/adafruit/tools/arm-none-eabi-gcc/9-2019q4/bin/../lib/gcc/arm-none-eabi/9.2.1/../../../../arm-none-eabi/lib/thumb/v7e-m+fp/hard/libc_nano.a(lib_a-mprec.o)
                0x000000000002b7d4                __pow5mult
 .text.__lshift
                0x000000000002b870       0xbe /home/slombardo/.arduino15/packages/adafruit/tools/arm-none-eabi-gcc/9-2019q4/bin/../lib/gcc/arm-none-eabi/9.2.1/../../../../arm-none-eabi/lib/thumb/v7e-m+fp/hard/libc_nano.a(lib_a-mprec.o)
                0x000000000002b870                __lshift
 .text.__mcmp   0x000000000002b92e       0x38 /home/slombardo/.arduino15/packages/adafruit/tools/arm-none-eabi-gcc/9-2019q4/bin/../lib/gcc/arm-none-eabi/9.2.1/../../../../arm-none-eabi/lib/thumb/v7e-m+fp/hard/libc_nano.a(lib_a-mprec.o)
                0x000000000002b92e                __mcmp
 .text.__mdiff  0x000000000002b966       0xec /home/slombardo/.arduino15/packages/adafruit/tools/arm-none-eabi-gcc/9-2019q4/bin/../lib/gcc/arm-none-eabi/9.2.1/../../../../arm-none-eabi/lib/thumb/v7e-m+fp/hard/libc_nano.a(lib_a-mprec.o)
                0x000000000002b966                __mdiff
 .text.__d2b    0x000000000002ba52       0xa0 /home/slombardo/.arduino15/packages/adafruit/tools/arm-none-eabi-gcc/9-2019q4/bin/../lib/gcc/arm-none-eabi/9.2.1/../../../../arm-none-eabi/lib/thumb/v7e-m+fp/hard/libc_nano.a(lib_a-mprec.o)
                0x000000000002ba52                __d2b
 .text._calloc_r
                0x000000000002baf2       0x1e /home/slombardo/.arduino15/packages/adafruit/tools/arm-none-eabi-gcc/9-2019q4/bin/../lib/gcc/arm-none-eabi/9.2.1/../../../../arm-none-eabi/lib/thumb/v7e-m+fp/hard/libc_nano.a(lib_a-nano-callocr.o)
                0x000000000002baf2                _calloc_r
 .text.__ssputs_r
                0x000000000002bb10       0xb6 /home/slombardo/.arduino15/packages/adafruit/tools/arm-none-eabi-gcc/9-2019q4/bin/../lib/gcc/arm-none-eabi/9.2.1/../../../../arm-none-eabi/lib/thumb/v7e-m+fp/hard/libc_nano.a(lib_a-nano-svfprintf.o)
                0x000000000002bb10                __ssputs_r
 *fill*         0x000000000002bbc6        0x2 
 .text._svfprintf_r
                0x000000000002bbc8      0x200 /home/slombardo/.arduino15/packages/adafruit/tools/arm-none-eabi-gcc/9-2019q4/bin/../lib/gcc/arm-none-eabi/9.2.1/../../../../arm-none-eabi/lib/thumb/v7e-m+fp/hard/libc_nano.a(lib_a-nano-svfprintf.o)
                0x000000000002bbc8                _svfprintf_r
                0x000000000002bbc8                _svfiprintf_r
 .text.__sfputc_r
                0x000000000002bdc8       0x2e /home/slombardo/.arduino15/packages/adafruit/tools/arm-none-eabi-gcc/9-2019q4/bin/../lib/gcc/arm-none-eabi/9.2.1/../../../../arm-none-eabi/lib/thumb/v7e-m+fp/hard/libc_nano.a(lib_a-nano-vfprintf.o)
 .text.__sfputs_r
                0x000000000002bdf6       0x24 /home/slombardo/.arduino15/packages/adafruit/tools/arm-none-eabi-gcc/9-2019q4/bin/../lib/gcc/arm-none-eabi/9.2.1/../../../../arm-none-eabi/lib/thumb/v7e-m+fp/hard/libc_nano.a(lib_a-nano-vfprintf.o)
                0x000000000002bdf6                __sfputs_r
 *fill*         0x000000000002be1a        0x2 
 .text._vfprintf_r
                0x000000000002be1c      0x260 /home/slombardo/.arduino15/packages/adafruit/tools/arm-none-eabi-gcc/9-2019q4/bin/../lib/gcc/arm-none-eabi/9.2.1/../../../../arm-none-eabi/lib/thumb/v7e-m+fp/hard/libc_nano.a(lib_a-nano-vfprintf.o)
                0x000000000002be1c                _vfiprintf_r
                0x000000000002be1c                _vfprintf_r
 .text._putc_r  0x000000000002c07c       0x90 /home/slombardo/.arduino15/packages/adafruit/tools/arm-none-eabi-gcc/9-2019q4/bin/../lib/gcc/arm-none-eabi/9.2.1/../../../../arm-none-eabi/lib/thumb/v7e-m+fp/hard/libc_nano.a(lib_a-putc.o)
                0x000000000002c07c                _putc_r
 .text.__sread  0x000000000002c10c       0x22 /home/slombardo/.arduino15/packages/adafruit/tools/arm-none-eabi-gcc/9-2019q4/bin/../lib/gcc/arm-none-eabi/9.2.1/../../../../arm-none-eabi/lib/thumb/v7e-m+fp/hard/libc_nano.a(lib_a-stdio.o)
                0x000000000002c10c                __sread
 .text.__swrite
                0x000000000002c12e       0x38 /home/slombardo/.arduino15/packages/adafruit/tools/arm-none-eabi-gcc/9-2019q4/bin/../lib/gcc/arm-none-eabi/9.2.1/../../../../arm-none-eabi/lib/thumb/v7e-m+fp/hard/libc_nano.a(lib_a-stdio.o)
                0x000000000002c12e                __swrite
 .text.__sseek  0x000000000002c166       0x24 /home/slombardo/.arduino15/packages/adafruit/tools/arm-none-eabi-gcc/9-2019q4/bin/../lib/gcc/arm-none-eabi/9.2.1/../../../../arm-none-eabi/lib/thumb/v7e-m+fp/hard/libc_nano.a(lib_a-stdio.o)
                0x000000000002c166                __sseek
 .text.__sclose
                0x000000000002c18a        0x8 /home/slombardo/.arduino15/packages/adafruit/tools/arm-none-eabi-gcc/9-2019q4/bin/../lib/gcc/arm-none-eabi/9.2.1/../../../../arm-none-eabi/lib/thumb/v7e-m+fp/hard/libc_nano.a(lib_a-stdio.o)
                0x000000000002c18a                __sclose
 *fill*         0x000000000002c192        0x2 
 .text._write_r
                0x000000000002c194       0x24 /home/slombardo/.arduino15/packages/adafruit/tools/arm-none-eabi-gcc/9-2019q4/bin/../lib/gcc/arm-none-eabi/9.2.1/../../../../arm-none-eabi/lib/thumb/v7e-m+fp/hard/libc_nano.a(lib_a-writer.o)
                0x000000000002c194                _write_r
 .text._close_r
                0x000000000002c1b8       0x20 /home/slombardo/.arduino15/packages/adafruit/tools/arm-none-eabi-gcc/9-2019q4/bin/../lib/gcc/arm-none-eabi/9.2.1/../../../../arm-none-eabi/lib/thumb/v7e-m+fp/hard/libc_nano.a(lib_a-closer.o)
                0x000000000002c1b8                _close_r
 .text._fstat_r
                0x000000000002c1d8       0x24 /home/slombardo/.arduino15/packages/adafruit/tools/arm-none-eabi-gcc/9-2019q4/bin/../lib/gcc/arm-none-eabi/9.2.1/../../../../arm-none-eabi/lib/thumb/v7e-m+fp/hard/libc_nano.a(lib_a-fstatr.o)
                0x000000000002c1d8                _fstat_r
 .text._isatty_r
                0x000000000002c1fc       0x20 /home/slombardo/.arduino15/packages/adafruit/tools/arm-none-eabi-gcc/9-2019q4/bin/../lib/gcc/arm-none-eabi/9.2.1/../../../../arm-none-eabi/lib/thumb/v7e-m+fp/hard/libc_nano.a(lib_a-isattyr.o)
                0x000000000002c1fc                _isatty_r
 .text._lseek_r
                0x000000000002c21c       0x24 /home/slombardo/.arduino15/packages/adafruit/tools/arm-none-eabi-gcc/9-2019q4/bin/../lib/gcc/arm-none-eabi/9.2.1/../../../../arm-none-eabi/lib/thumb/v7e-m+fp/hard/libc_nano.a(lib_a-lseekr.o)
                0x000000000002c21c                _lseek_r
 .text.__ascii_mbtowc
                0x000000000002c240       0x24 /home/slombardo/.arduino15/packages/adafruit/tools/arm-none-eabi-gcc/9-2019q4/bin/../lib/gcc/arm-none-eabi/9.2.1/../../../../arm-none-eabi/lib/thumb/v7e-m+fp/hard/libc_nano.a(lib_a-mbtowc_r.o)
                0x000000000002c240                __ascii_mbtowc
 .text.memmove  0x000000000002c264       0x34 /home/slombardo/.arduino15/packages/adafruit/tools/arm-none-eabi-gcc/9-2019q4/bin/../lib/gcc/arm-none-eabi/9.2.1/../../../../arm-none-eabi/lib/thumb/v7e-m+fp/hard/libc_nano.a(lib_a-memmove.o)
                0x000000000002c264                memmove
 .text._realloc_r
                0x000000000002c298       0x4c /home/slombardo/.arduino15/packages/adafruit/tools/arm-none-eabi-gcc/9-2019q4/bin/../lib/gcc/arm-none-eabi/9.2.1/../../../../arm-none-eabi/lib/thumb/v7e-m+fp/hard/libc_nano.a(lib_a-nano-reallocr.o)
                0x000000000002c298                _realloc_r
 .text._read_r  0x000000000002c2e4       0x24 /home/slombardo/.arduino15/packages/adafruit/tools/arm-none-eabi-gcc/9-2019q4/bin/../lib/gcc/arm-none-eabi/9.2.1/../../../../arm-none-eabi/lib/thumb/v7e-m+fp/hard/libc_nano.a(lib_a-readr.o)
                0x000000000002c2e4                _read_r
 .text.__ascii_wctomb
                0x000000000002c308       0x1a /home/slombardo/.arduino15/packages/adafruit/tools/arm-none-eabi-gcc/9-2019q4/bin/../lib/gcc/arm-none-eabi/9.2.1/../../../../arm-none-eabi/lib/thumb/v7e-m+fp/hard/libc_nano.a(lib_a-wctomb_r.o)
                0x000000000002c308                __ascii_wctomb
 .text._malloc_usable_size_r
                0x000000000002c322       0x10 /home/slombardo/.arduino15/packages/adafruit/tools/arm-none-eabi-gcc/9-2019q4/bin/../lib/gcc/arm-none-eabi/9.2.1/../../../../arm-none-eabi/lib/thumb/v7e-m+fp/hard/libc_nano.a(lib_a-nano-msizer.o)
                0x000000000002c322                _malloc_usable_size_r
 *fill*         0x000000000002c332        0x2 
 .text          0x000000000002c334      0x378 /home/slombardo/.arduino15/packages/adafruit/tools/arm-none-eabi-gcc/9-2019q4/bin/../lib/gcc/arm-none-eabi/9.2.1/thumb/v7e-m+fp/hard/libgcc.a(_arm_addsubdf3.o)
                0x000000000002c334                __aeabi_drsub
                0x000000000002c33c                __aeabi_dsub
                0x000000000002c33c                __subdf3
                0x000000000002c340                __adddf3
                0x000000000002c340                __aeabi_dadd
                0x000000000002c5b8                __aeabi_ui2d
                0x000000000002c5b8                __floatunsidf
                0x000000000002c5d8                __floatsidf
                0x000000000002c5d8                __aeabi_i2d
                0x000000000002c5fc                __extendsfdf2
                0x000000000002c5fc                __aeabi_f2d
                0x000000000002c640                __aeabi_ul2d
                0x000000000002c640                __floatundidf
                0x000000000002c650                __floatdidf
                0x000000000002c650                __aeabi_l2d
 .text          0x000000000002c6ac      0x424 /home/slombardo/.arduino15/packages/adafruit/tools/arm-none-eabi-gcc/9-2019q4/bin/../lib/gcc/arm-none-eabi/9.2.1/thumb/v7e-m+fp/hard/libgcc.a(_arm_muldivdf3.o)
                0x000000000002c6ac                __aeabi_dmul
                0x000000000002c6ac                __muldf3
                0x000000000002c900                __aeabi_ddiv
                0x000000000002c900                __divdf3
 .text          0x000000000002cad0      0x110 /home/slombardo/.arduino15/packages/adafruit/tools/arm-none-eabi-gcc/9-2019q4/bin/../lib/gcc/arm-none-eabi/9.2.1/thumb/v7e-m+fp/hard/libgcc.a(_arm_cmpdf2.o)
                0x000000000002cad0                __gtdf2
                0x000000000002cad0                __gedf2
                0x000000000002cad8                __ltdf2
                0x000000000002cad8                __ledf2
                0x000000000002cae0                __cmpdf2
                0x000000000002cae0                __eqdf2
                0x000000000002cae0                __nedf2
                0x000000000002cb5c                __aeabi_cdrcmple
                0x000000000002cb6c                __aeabi_cdcmple
                0x000000000002cb6c                __aeabi_cdcmpeq
                0x000000000002cb7c                __aeabi_dcmpeq
                0x000000000002cb90                __aeabi_dcmplt
                0x000000000002cba4                __aeabi_dcmple
                0x000000000002cbb8                __aeabi_dcmpge
                0x000000000002cbcc                __aeabi_dcmpgt
 .text          0x000000000002cbe0       0x2c /home/slombardo/.arduino15/packages/adafruit/tools/arm-none-eabi-gcc/9-2019q4/bin/../lib/gcc/arm-none-eabi/9.2.1/thumb/v7e-m+fp/hard/libgcc.a(_arm_unorddf2.o)
                0x000000000002cbe0                __aeabi_dcmpun
                0x000000000002cbe0                __unorddf2
 .text          0x000000000002cc0c       0x50 /home/slombardo/.arduino15/packages/adafruit/tools/arm-none-eabi-gcc/9-2019q4/bin/../lib/gcc/arm-none-eabi/9.2.1/thumb/v7e-m+fp/hard/libgcc.a(_arm_fixdfsi.o)
                0x000000000002cc0c                __fixdfsi
                0x000000000002cc0c                __aeabi_d2iz
 .text._close   0x000000000002cc5c       0x10 /home/slombardo/.arduino15/packages/adafruit/tools/arm-none-eabi-gcc/9-2019q4/bin/../lib/gcc/arm-none-eabi/9.2.1/../../../../arm-none-eabi/lib/thumb/v7e-m+fp/hard/libnosys.a(close.o)
                0x000000000002cc5c                _close
 .text._fstat   0x000000000002cc6c       0x10 /home/slombardo/.arduino15/packages/adafruit/tools/arm-none-eabi-gcc/9-2019q4/bin/../lib/gcc/arm-none-eabi/9.2.1/../../../../arm-none-eabi/lib/thumb/v7e-m+fp/hard/libnosys.a(fstat.o)
                0x000000000002cc6c                _fstat
 .text._isatty  0x000000000002cc7c       0x10 /home/slombardo/.arduino15/packages/adafruit/tools/arm-none-eabi-gcc/9-2019q4/bin/../lib/gcc/arm-none-eabi/9.2.1/../../../../arm-none-eabi/lib/thumb/v7e-m+fp/hard/libnosys.a(isatty.o)
                0x000000000002cc7c                _isatty
 .text._lseek   0x000000000002cc8c       0x10 /home/slombardo/.arduino15/packages/adafruit/tools/arm-none-eabi-gcc/9-2019q4/bin/../lib/gcc/arm-none-eabi/9.2.1/../../../../arm-none-eabi/lib/thumb/v7e-m+fp/hard/libnosys.a(lseek.o)
                0x000000000002cc8c                _lseek
 .text._read    0x000000000002cc9c       0x10 /home/slombardo/.arduino15/packages/adafruit/tools/arm-none-eabi-gcc/9-2019q4/bin/../lib/gcc/arm-none-eabi/9.2.1/../../../../arm-none-eabi/lib/thumb/v7e-m+fp/hard/libnosys.a(read.o)
                0x000000000002cc9c                _read
 .text._sbrk    0x000000000002ccac       0x1c /home/slombardo/.arduino15/packages/adafruit/tools/arm-none-eabi-gcc/9-2019q4/bin/../lib/gcc/arm-none-eabi/9.2.1/../../../../arm-none-eabi/lib/thumb/v7e-m+fp/hard/libnosys.a(sbrk.o)
                0x000000000002ccac                _sbrk
 .text._exit    0x000000000002ccc8        0x4 /home/slombardo/.arduino15/packages/adafruit/tools/arm-none-eabi-gcc/9-2019q4/bin/../lib/gcc/arm-none-eabi/9.2.1/../../../../arm-none-eabi/lib/thumb/v7e-m+fp/hard/libnosys.a(_exit.o)
                0x000000000002ccc8                _exit
 *(.init)
 .init          0x000000000002cccc        0x4 /home/slombardo/.arduino15/packages/adafruit/tools/arm-none-eabi-gcc/9-2019q4/bin/../lib/gcc/arm-none-eabi/9.2.1/thumb/v7e-m+fp/hard/crti.o
                0x000000000002cccc                _init
 .init          0x000000000002ccd0        0x8 /home/slombardo/.arduino15/packages/adafruit/tools/arm-none-eabi-gcc/9-2019q4/bin/../lib/gcc/arm-none-eabi/9.2.1/thumb/v7e-m+fp/hard/crtn.o
 *(.fini)
 .fini          0x000000000002ccd8        0x4 /home/slombardo/.arduino15/packages/adafruit/tools/arm-none-eabi-gcc/9-2019q4/bin/../lib/gcc/arm-none-eabi/9.2.1/thumb/v7e-m+fp/hard/crti.o
                0x000000000002ccd8                _fini
 .fini          0x000000000002ccdc        0x8 /home/slombardo/.arduino15/packages/adafruit/tools/arm-none-eabi-gcc/9-2019q4/bin/../lib/gcc/arm-none-eabi/9.2.1/thumb/v7e-m+fp/hard/crtn.o
 *crtbegin.o(.ctors)
 *crtbegin?.o(.ctors)
 *(EXCLUDE_FILE(*crtend.o *crtend?.o) .ctors)
 *(SORT_BY_NAME(.ctors.*))
 *(.ctors)
 *crtbegin.o(.dtors)
 *crtbegin?.o(.dtors)
 *(EXCLUDE_FILE(*crtend.o *crtend?.o) .dtors)
 *(SORT_BY_NAME(.dtors.*))
 *(.dtors)
 *(.rodata*)
 .rodata.g_ADigitalPinMap
                0x000000000002cce4       0x80 /home/slombardo/projects/BadgersRunFirmware/Build/core/variant.cpp.o
                0x000000000002cce4                g_ADigitalPinMap
 .rodata.xTimerCreateTimerTask.str1.4
                0x000000000002cd64       0x10 /home/slombardo/projects/BadgersRunFirmware/Build/core/core.a(timers.c.o)
 .rodata.CSWTCH.14
                0x000000000002cd74        0x4 /home/slombardo/projects/BadgersRunFirmware/Build/core/core.a(system_nrf52.c.o)
 .rodata.CSWTCH.18
                0x000000000002cd78        0x4 /home/slombardo/projects/BadgersRunFirmware/Build/core/core.a(system_nrf52.c.o)
 .rodata.CSWTCH.4
                0x000000000002cd7c        0x4 /home/slombardo/projects/BadgersRunFirmware/Build/core/core.a(system_nrf52.c.o)
 .rodata._ZN5Print7printlnEPK19__FlashStringHelper.str1.4
                0x000000000002cd80        0x3 /home/slombardo/projects/BadgersRunFirmware/Build/core/core.a(Print.cpp.o)
 *fill*         0x000000000002cd83        0x1 
 .rodata._ZTV4Uart
                0x000000000002cd84       0x34 /home/slombardo/projects/BadgersRunFirmware/Build/core/core.a(Uart.cpp.o)
                0x000000000002cd84                vtable for Uart
 .rodata.main.str1.4
                0x000000000002cdb8        0x5 /home/slombardo/projects/BadgersRunFirmware/Build/core/core.a(main.cpp.o)
 *fill*         0x000000000002cdbd        0x3 
 .rodata.vApplicationStackOverflowHook.str1.4
                0x000000000002cdc0       0x2c /home/slombardo/projects/BadgersRunFirmware/Build/core/core.a(rtos.cpp.o)
 .rodata.vApplicationMallocFailedHook.str1.4
                0x000000000002cdec       0x1a /home/slombardo/projects/BadgersRunFirmware/Build/core/core.a(rtos.cpp.o)
 *fill*         0x000000000002ce06        0x2 
 .rodata.dbgPrintVersion.str1.4
                0x000000000002ce08       0x3e /home/slombardo/projects/BadgersRunFirmware/Build/core/core.a(debug.cpp.o)
 *fill*         0x000000000002ce46        0x2 
 .rodata.dbg_err_str.str1.4
                0x000000000002ce48        0x8 /home/slombardo/projects/BadgersRunFirmware/Build/core/core.a(debug.cpp.o)
 .rodata.str1.4
                0x000000000002ce50      0xe92 /home/slombardo/projects/BadgersRunFirmware/Build/core/core.a(debug.cpp.o)
 *fill*         0x000000000002dce2        0x2 
 .rodata._ZL13_strerr_table
                0x000000000002dce4        0x8 /home/slombardo/projects/BadgersRunFirmware/Build/core/core.a(debug.cpp.o)
 .rodata._ZL14_strerr_lookup
                0x000000000002dcec      0x178 /home/slombardo/projects/BadgersRunFirmware/Build/core/core.a(debug.cpp.o)
 .rodata.adafruit_callback_task.str1.4
                0x000000000002de64       0x20 /home/slombardo/projects/BadgersRunFirmware/Build/core/core.a(AdaCallback.c.o)
 .rodata.ada_callback_init.str1.4
                0x000000000002de84        0x9 /home/slombardo/projects/BadgersRunFirmware/Build/core/core.a(AdaCallback.c.o)
 *fill*         0x000000000002de8d        0x3 
 .rodata.__PRETTY_FUNCTION__.11486
                0x000000000002de90       0x17 /home/slombardo/projects/BadgersRunFirmware/Build/core/core.a(AdaCallback.c.o)
 *fill*         0x000000000002dea7        0x1 
 .rodata.getBootloaderVersion.str1.4
                0x000000000002dea8       0x11 /home/slombardo/projects/BadgersRunFirmware/Build/core/core.a(utilities.c.o)
 *fill*         0x000000000002deb9        0x3 
 .rodata.getMcuUniqueID.str1.4
                0x000000000002debc        0xb /home/slombardo/projects/BadgersRunFirmware/Build/core/core.a(utilities.c.o)
 *fill*         0x000000000002dec7        0x1 
 .rodata._global_impure_ptr
                0x000000000002dec8        0x4 /home/slombardo/.arduino15/packages/adafruit/tools/arm-none-eabi-gcc/9-2019q4/bin/../lib/gcc/arm-none-eabi/9.2.1/../../../../arm-none-eabi/lib/thumb/v7e-m+fp/hard/libc_nano.a(lib_a-impure.o)
                0x000000000002dec8                _global_impure_ptr
 .rodata._printf_float.str1.1
                0x000000000002decc       0x12 /home/slombardo/.arduino15/packages/adafruit/tools/arm-none-eabi-gcc/9-2019q4/bin/../lib/gcc/arm-none-eabi/9.2.1/../../../../arm-none-eabi/lib/thumb/v7e-m+fp/hard/libc_nano.a(lib_a-nano-vfprintf_float.o)
 .rodata._printf_i.str1.1
                0x000000000002dede       0x22 /home/slombardo/.arduino15/packages/adafruit/tools/arm-none-eabi-gcc/9-2019q4/bin/../lib/gcc/arm-none-eabi/9.2.1/../../../../arm-none-eabi/lib/thumb/v7e-m+fp/hard/libc_nano.a(lib_a-nano-vfprintf_i.o)
 .rodata._ctype_
                0x000000000002df00      0x101 /home/slombardo/.arduino15/packages/adafruit/tools/arm-none-eabi-gcc/9-2019q4/bin/../lib/gcc/arm-none-eabi/9.2.1/../../../../arm-none-eabi/lib/thumb/v7e-m+fp/hard/libc_nano.a(lib_a-ctype_.o)
                0x000000000002df00                _ctype_
 .rodata._dtoa_r.str1.1
                0x000000000002e001        0xd /home/slombardo/.arduino15/packages/adafruit/tools/arm-none-eabi-gcc/9-2019q4/bin/../lib/gcc/arm-none-eabi/9.2.1/../../../../arm-none-eabi/lib/thumb/v7e-m+fp/hard/libc_nano.a(lib_a-dtoa.o)
                                          0xf (size before relaxing)
 *fill*         0x000000000002e00e        0x2 
 .rodata.__sf_fake_stderr
                0x000000000002e010       0x20 /home/slombardo/.arduino15/packages/adafruit/tools/arm-none-eabi-gcc/9-2019q4/bin/../lib/gcc/arm-none-eabi/9.2.1/../../../../arm-none-eabi/lib/thumb/v7e-m+fp/hard/libc_nano.a(lib_a-findfp.o)
                0x000000000002e010                __sf_fake_stderr
 .rodata.__sf_fake_stdin
                0x000000000002e030       0x20 /home/slombardo/.arduino15/packages/adafruit/tools/arm-none-eabi-gcc/9-2019q4/bin/../lib/gcc/arm-none-eabi/9.2.1/../../../../arm-none-eabi/lib/thumb/v7e-m+fp/hard/libc_nano.a(lib_a-findfp.o)
                0x000000000002e030                __sf_fake_stdin
 .rodata.__sf_fake_stdout
                0x000000000002e050       0x20 /home/slombardo/.arduino15/packages/adafruit/tools/arm-none-eabi-gcc/9-2019q4/bin/../lib/gcc/arm-none-eabi/9.2.1/../../../../arm-none-eabi/lib/thumb/v7e-m+fp/hard/libc_nano.a(lib_a-findfp.o)
                0x000000000002e050                __sf_fake_stdout
 .rodata.__mprec_bigtens
                0x000000000002e070       0x28 /home/slombardo/.arduino15/packages/adafruit/tools/arm-none-eabi-gcc/9-2019q4/bin/../lib/gcc/arm-none-eabi/9.2.1/../../../../arm-none-eabi/lib/thumb/v7e-m+fp/hard/libc_nano.a(lib_a-mprec.o)
                0x000000000002e070                __mprec_bigtens
 .rodata.__mprec_tens
                0x000000000002e098       0xc8 /home/slombardo/.arduino15/packages/adafruit/tools/arm-none-eabi-gcc/9-2019q4/bin/../lib/gcc/arm-none-eabi/9.2.1/../../../../arm-none-eabi/lib/thumb/v7e-m+fp/hard/libc_nano.a(lib_a-mprec.o)
                0x000000000002e098                __mprec_tens
 .rodata.p05.7490
                0x000000000002e160        0xc /home/slombardo/.arduino15/packages/adafruit/tools/arm-none-eabi-gcc/9-2019q4/bin/../lib/gcc/arm-none-eabi/9.2.1/../../../../arm-none-eabi/lib/thumb/v7e-m+fp/hard/libc_nano.a(lib_a-mprec.o)
 .rodata._svfprintf_r.str1.1
                0x000000000002e16c       0x11 /home/slombardo/.arduino15/packages/adafruit/tools/arm-none-eabi-gcc/9-2019q4/bin/../lib/gcc/arm-none-eabi/9.2.1/../../../../arm-none-eabi/lib/thumb/v7e-m+fp/hard/libc_nano.a(lib_a-nano-svfprintf.o)
 .rodata._vfprintf_r.str1.1
                0x000000000002e17d       0x11 /home/slombardo/.arduino15/packages/adafruit/tools/arm-none-eabi-gcc/9-2019q4/bin/../lib/gcc/arm-none-eabi/9.2.1/../../../../arm-none-eabi/lib/thumb/v7e-m+fp/hard/libc_nano.a(lib_a-nano-vfprintf.o)
 .rodata._setlocale_r.str1.1
                0x000000000002e17d        0x8 /home/slombardo/.arduino15/packages/adafruit/tools/arm-none-eabi-gcc/9-2019q4/bin/../lib/gcc/arm-none-eabi/9.2.1/../../../../arm-none-eabi/lib/thumb/v7e-m+fp/hard/libc_nano.a(lib_a-locale.o)
                                          0x9 (size before relaxing)
 .rodata.str1.1
                0x000000000002e185        0x2 /home/slombardo/.arduino15/packages/adafruit/tools/arm-none-eabi-gcc/9-2019q4/bin/../lib/gcc/arm-none-eabi/9.2.1/../../../../arm-none-eabi/lib/thumb/v7e-m+fp/hard/libc_nano.a(lib_a-locale.o)
 *(.eh_frame*)
 *fill*         0x000000000002e187        0x1 
 .eh_frame      0x000000000002e188        0x0 /home/slombardo/.arduino15/packages/adafruit/tools/arm-none-eabi-gcc/9-2019q4/bin/../lib/gcc/arm-none-eabi/9.2.1/thumb/v7e-m+fp/hard/crtbegin.o
 .eh_frame      0x000000000002e188        0x4 /home/slombardo/.arduino15/packages/adafruit/tools/arm-none-eabi-gcc/9-2019q4/bin/../lib/gcc/arm-none-eabi/9.2.1/thumb/v7e-m+fp/hard/crtend.o

.glue_7         0x000000000002e18c        0x0
 .glue_7        0x000000000002e18c        0x0 linker stubs

.glue_7t        0x000000000002e18c        0x0
 .glue_7t       0x000000000002e18c        0x0 linker stubs

.vfp11_veneer   0x000000000002e18c        0x0
 .vfp11_veneer  0x000000000002e18c        0x0 linker stubs

.v4_bx          0x000000000002e18c        0x0
 .v4_bx         0x000000000002e18c        0x0 linker stubs

.iplt           0x000000000002e18c        0x0
 .iplt          0x000000000002e18c        0x0 /home/slombardo/.arduino15/packages/adafruit/tools/arm-none-eabi-gcc/9-2019q4/bin/../lib/gcc/arm-none-eabi/9.2.1/thumb/v7e-m+fp/hard/crtfastmath.o

.ARM.extab
 *(.ARM.extab* .gnu.linkonce.armextab.*)
                0x000000000002e18c                __exidx_start = .

.ARM.exidx      0x000000000002e18c        0x8
 *(.ARM.exidx* .gnu.linkonce.armexidx.*)
 .ARM.exidx     0x000000000002e18c        0x8 /home/slombardo/.arduino15/packages/adafruit/tools/arm-none-eabi-gcc/9-2019q4/bin/../lib/gcc/arm-none-eabi/9.2.1/../../../../arm-none-eabi/lib/thumb/v7e-m+fp/hard/crt0.o
                0x000000000002e194                __exidx_end = .
                0x000000000002e194                __etext = .

.rel.dyn        0x000000000002e194        0x0
 .rel.iplt      0x000000000002e194        0x0 /home/slombardo/.arduino15/packages/adafruit/tools/arm-none-eabi-gcc/9-2019q4/bin/../lib/gcc/arm-none-eabi/9.2.1/thumb/v7e-m+fp/hard/crtfastmath.o

.data           0x0000000020003600      0x1fc load address 0x000000000002e194
                0x0000000020003600                __data_start__ = .
 *(vtable)
 *(.data*)
 .data.cols     0x0000000020003600        0xd /home/slombardo/projects/BadgersRunFirmware/Build/sketch/keyboard.ino.cpp.o
                0x0000000020003600                cols
 *fill*         0x000000002000360d        0x3 
 .data.rows     0x0000000020003610        0x6 /home/slombardo/projects/BadgersRunFirmware/Build/sketch/keyboard.ino.cpp.o
                0x0000000020003610                rows
 *fill*         0x0000000020003616        0x2 
 .data.SystemCoreClock
                0x0000000020003618        0x4 /home/slombardo/projects/BadgersRunFirmware/Build/core/core.a(system_nrf52.c.o)
                0x0000000020003618                SystemCoreClock
 .data._impure_ptr
                0x000000002000361c        0x4 /home/slombardo/.arduino15/packages/adafruit/tools/arm-none-eabi-gcc/9-2019q4/bin/../lib/gcc/arm-none-eabi/9.2.1/../../../../arm-none-eabi/lib/thumb/v7e-m+fp/hard/libc_nano.a(lib_a-impure.o)
                0x000000002000361c                _impure_ptr
 .data.impure_data
                0x0000000020003620       0x60 /home/slombardo/.arduino15/packages/adafruit/tools/arm-none-eabi-gcc/9-2019q4/bin/../lib/gcc/arm-none-eabi/9.2.1/../../../../arm-none-eabi/lib/thumb/v7e-m+fp/hard/libc_nano.a(lib_a-impure.o)
 .data.__global_locale
                0x0000000020003680      0x16c /home/slombardo/.arduino15/packages/adafruit/tools/arm-none-eabi-gcc/9-2019q4/bin/../lib/gcc/arm-none-eabi/9.2.1/../../../../arm-none-eabi/lib/thumb/v7e-m+fp/hard/libc_nano.a(lib_a-locale.o)
                0x0000000020003680                __global_locale
                0x00000000200037ec                . = ALIGN (0x4)
                0x00000000200037ec                PROVIDE (__preinit_array_start = .)
 *(.preinit_array)
                0x00000000200037ec                PROVIDE (__preinit_array_end = .)
                0x00000000200037ec                . = ALIGN (0x4)
                0x00000000200037ec                PROVIDE (__init_array_start = .)
 *(SORT_BY_NAME(.init_array.*))
 *(.init_array)
 .init_array    0x00000000200037ec        0x4 /home/slombardo/.arduino15/packages/adafruit/tools/arm-none-eabi-gcc/9-2019q4/bin/../lib/gcc/arm-none-eabi/9.2.1/thumb/v7e-m+fp/hard/crtfastmath.o
 .init_array    0x00000000200037f0        0x4 /home/slombardo/.arduino15/packages/adafruit/tools/arm-none-eabi-gcc/9-2019q4/bin/../lib/gcc/arm-none-eabi/9.2.1/thumb/v7e-m+fp/hard/crtbegin.o
 .init_array    0x00000000200037f4        0x4 /home/slombardo/projects/BadgersRunFirmware/Build/core/core.a(Uart.cpp.o)
                0x00000000200037f8                PROVIDE (__init_array_end = .)
                0x00000000200037f8                . = ALIGN (0x4)
                [!provide]                        PROVIDE (__fini_array_start = .)
 *(SORT_BY_NAME(.fini_array.*))
 *(.fini_array)
 .fini_array    0x00000000200037f8        0x4 /home/slombardo/.arduino15/packages/adafruit/tools/arm-none-eabi-gcc/9-2019q4/bin/../lib/gcc/arm-none-eabi/9.2.1/thumb/v7e-m+fp/hard/crtbegin.o
                [!provide]                        PROVIDE (__fini_array_end = .)
 *(.jcr*)
                0x00000000200037fc                . = ALIGN (0x4)
                0x00000000200037fc                __data_end__ = .
LOAD /home/slombardo/.arduino15/packages/adafruit/tools/arm-none-eabi-gcc/9-2019q4/bin/../lib/gcc/arm-none-eabi/9.2.1/thumb/v7e-m+fp/hard/crtfastmath.o
LOAD /home/slombardo/.arduino15/packages/adafruit/tools/arm-none-eabi-gcc/9-2019q4/bin/../lib/gcc/arm-none-eabi/9.2.1/thumb/v7e-m+fp/hard/crti.o
LOAD /home/slombardo/.arduino15/packages/adafruit/tools/arm-none-eabi-gcc/9-2019q4/bin/../lib/gcc/arm-none-eabi/9.2.1/thumb/v7e-m+fp/hard/crtbegin.o
LOAD /home/slombardo/.arduino15/packages/adafruit/tools/arm-none-eabi-gcc/9-2019q4/bin/../lib/gcc/arm-none-eabi/9.2.1/../../../../arm-none-eabi/lib/thumb/v7e-m+fp/hard/crt0.o
LOAD /home/slombardo/projects/BadgersRunFirmware/Build/sketch/keyboard.ino.cpp.o
LOAD /home/slombardo/projects/BadgersRunFirmware/Build/core/variant.cpp.o
START GROUP
LOAD /home/slombardo/.arduino15/packages/adafruit/tools/arm-none-eabi-gcc/9-2019q4/bin/../lib/gcc/arm-none-eabi/9.2.1/../../../../arm-none-eabi/lib/thumb/v7e-m+fp/hard/libm.a
LOAD /home/slombardo/projects/BadgersRunFirmware/Build/core/core.a
END GROUP
START GROUP
LOAD /home/slombardo/.arduino15/packages/adafruit/tools/arm-none-eabi-gcc/9-2019q4/bin/../lib/gcc/arm-none-eabi/9.2.1/thumb/v7e-m+fp/hard/libgcc.a
LOAD /home/slombardo/.arduino15/packages/adafruit/tools/arm-none-eabi-gcc/9-2019q4/bin/../lib/gcc/arm-none-eabi/9.2.1/../../../../arm-none-eabi/lib/thumb/v7e-m+fp/hard/libc_nano.a
END GROUP
START GROUP
LOAD /home/slombardo/.arduino15/packages/adafruit/tools/arm-none-eabi-gcc/9-2019q4/bin/../lib/gcc/arm-none-eabi/9.2.1/thumb/v7e-m+fp/hard/libgcc.a
LOAD /home/slombardo/.arduino15/packages/adafruit/tools/arm-none-eabi-gcc/9-2019q4/bin/../lib/gcc/arm-none-eabi/9.2.1/../../../../arm-none-eabi/lib/thumb/v7e-m+fp/hard/libc_nano.a
LOAD /home/slombardo/.arduino15/packages/adafruit/tools/arm-none-eabi-gcc/9-2019q4/bin/../lib/gcc/arm-none-eabi/9.2.1/../../../../arm-none-eabi/lib/thumb/v7e-m+fp/hard/libnosys.a
END GROUP
START GROUP
LOAD /home/slombardo/.arduino15/packages/adafruit/tools/arm-none-eabi-gcc/9-2019q4/bin/../lib/gcc/arm-none-eabi/9.2.1/thumb/v7e-m+fp/hard/libgcc.a
LOAD /home/slombardo/.arduino15/packages/adafruit/tools/arm-none-eabi-gcc/9-2019q4/bin/../lib/gcc/arm-none-eabi/9.2.1/../../../../arm-none-eabi/lib/thumb/v7e-m+fp/hard/libc_nano.a
LOAD /home/slombardo/.arduino15/packages/adafruit/tools/arm-none-eabi-gcc/9-2019q4/bin/../lib/gcc/arm-none-eabi/9.2.1/../../../../arm-none-eabi/lib/thumb/v7e-m+fp/hard/libnosys.a
END GROUP
LOAD /home/slombardo/.arduino15/packages/adafruit/tools/arm-none-eabi-gcc/9-2019q4/bin/../lib/gcc/arm-none-eabi/9.2.1/thumb/v7e-m+fp/hard/crtend.o
LOAD /home/slombardo/.arduino15/packages/adafruit/tools/arm-none-eabi-gcc/9-2019q4/bin/../lib/gcc/arm-none-eabi/9.2.1/thumb/v7e-m+fp/hard/crtn.o
START GROUP
LOAD /home/slombardo/.arduino15/packages/adafruit/tools/arm-none-eabi-gcc/9-2019q4/bin/../lib/gcc/arm-none-eabi/9.2.1/thumb/v7e-m+fp/hard/libgcc.a
LOAD /home/slombardo/.arduino15/packages/adafruit/tools/arm-none-eabi-gcc/9-2019q4/bin/../lib/gcc/arm-none-eabi/9.2.1/../../../../arm-none-eabi/lib/thumb/v7e-m+fp/hard/libc.a
LOAD /home/slombardo/.arduino15/packages/adafruit/tools/arm-none-eabi-gcc/9-2019q4/bin/../lib/gcc/arm-none-eabi/9.2.1/../../../../arm-none-eabi/lib/thumb/v7e-m+fp/hard/libnosys.a
END GROUP

.igot.plt       0x00000000200037fc        0x0 load address 0x000000000002e390
 .igot.plt      0x00000000200037fc        0x0 /home/slombardo/.arduino15/packages/adafruit/tools/arm-none-eabi-gcc/9-2019q4/bin/../lib/gcc/arm-none-eabi/9.2.1/thumb/v7e-m+fp/hard/crtfastmath.o
                0x00000000200037fc                . = ALIGN (0x4)

.svc_data       0x00000000200037fc        0x0
                [!provide]                        PROVIDE (__start_svc_data = .)
 *(.svc_data)
                [!provide]                        PROVIDE (__stop_svc_data = .)

.fs_data        0x00000000200037fc        0x0
                [!provide]                        PROVIDE (__start_fs_data = .)
 *(.fs_data)
                [!provide]                        PROVIDE (__stop_fs_data = .)

.bss            0x00000000200037fc      0xb18 load address 0x000000000002e390
                0x00000000200037fc                . = ALIGN (0x4)
                0x00000000200037fc                __bss_start__ = .
 *(.bss*)
 .bss           0x00000000200037fc       0x1c /home/slombardo/.arduino15/packages/adafruit/tools/arm-none-eabi-gcc/9-2019q4/bin/../lib/gcc/arm-none-eabi/9.2.1/thumb/v7e-m+fp/hard/crtbegin.o
 .bss.pxCurrentTCB
                0x0000000020003818        0x4 /home/slombardo/projects/BadgersRunFirmware/Build/core/core.a(tasks.c.o)
                0x0000000020003818                pxCurrentTCB
 .bss.pxDelayedTaskList
                0x000000002000381c        0x4 /home/slombardo/projects/BadgersRunFirmware/Build/core/core.a(tasks.c.o)
 .bss.pxOverflowDelayedTaskList
                0x0000000020003820        0x4 /home/slombardo/projects/BadgersRunFirmware/Build/core/core.a(tasks.c.o)
 .bss.pxReadyTasksLists
                0x0000000020003824       0x64 /home/slombardo/projects/BadgersRunFirmware/Build/core/core.a(tasks.c.o)
 .bss.uxCurrentNumberOfTasks
                0x0000000020003888        0x4 /home/slombardo/projects/BadgersRunFirmware/Build/core/core.a(tasks.c.o)
 .bss.uxDeletedTasksWaitingCleanUp
                0x000000002000388c        0x4 /home/slombardo/projects/BadgersRunFirmware/Build/core/core.a(tasks.c.o)
 .bss.uxPendedTicks
                0x0000000020003890        0x4 /home/slombardo/projects/BadgersRunFirmware/Build/core/core.a(tasks.c.o)
 .bss.uxSchedulerSuspended
                0x0000000020003894        0x4 /home/slombardo/projects/BadgersRunFirmware/Build/core/core.a(tasks.c.o)
 .bss.uxTaskNumber
                0x0000000020003898        0x4 /home/slombardo/projects/BadgersRunFirmware/Build/core/core.a(tasks.c.o)
 .bss.uxTopReadyPriority
                0x000000002000389c        0x4 /home/slombardo/projects/BadgersRunFirmware/Build/core/core.a(tasks.c.o)
 .bss.xDelayedTaskList1
                0x00000000200038a0       0x14 /home/slombardo/projects/BadgersRunFirmware/Build/core/core.a(tasks.c.o)
 .bss.xDelayedTaskList2
                0x00000000200038b4       0x14 /home/slombardo/projects/BadgersRunFirmware/Build/core/core.a(tasks.c.o)
 .bss.xIdleTaskHandle
                0x00000000200038c8        0x4 /home/slombardo/projects/BadgersRunFirmware/Build/core/core.a(tasks.c.o)
 .bss.xNextTaskUnblockTime
                0x00000000200038cc        0x4 /home/slombardo/projects/BadgersRunFirmware/Build/core/core.a(tasks.c.o)
 .bss.xNumOfOverflows
                0x00000000200038d0        0x4 /home/slombardo/projects/BadgersRunFirmware/Build/core/core.a(tasks.c.o)
 .bss.xPendingReadyList
                0x00000000200038d4       0x14 /home/slombardo/projects/BadgersRunFirmware/Build/core/core.a(tasks.c.o)
 .bss.xSchedulerRunning
                0x00000000200038e8        0x4 /home/slombardo/projects/BadgersRunFirmware/Build/core/core.a(tasks.c.o)
 .bss.xSuspendedTaskList
                0x00000000200038ec       0x14 /home/slombardo/projects/BadgersRunFirmware/Build/core/core.a(tasks.c.o)
 .bss.xTasksWaitingTermination
                0x0000000020003900       0x14 /home/slombardo/projects/BadgersRunFirmware/Build/core/core.a(tasks.c.o)
 .bss.xTickCount
                0x0000000020003914        0x4 /home/slombardo/projects/BadgersRunFirmware/Build/core/core.a(tasks.c.o)
 .bss.xYieldPending
                0x0000000020003918        0x4 /home/slombardo/projects/BadgersRunFirmware/Build/core/core.a(tasks.c.o)
 .bss.pxCurrentTimerList
                0x000000002000391c        0x4 /home/slombardo/projects/BadgersRunFirmware/Build/core/core.a(timers.c.o)
 .bss.pxOverflowTimerList
                0x0000000020003920        0x4 /home/slombardo/projects/BadgersRunFirmware/Build/core/core.a(timers.c.o)
 .bss.ucStaticTimerQueueStorage.9330
                0x0000000020003924      0x200 /home/slombardo/projects/BadgersRunFirmware/Build/core/core.a(timers.c.o)
 .bss.xActiveTimerList1
                0x0000000020003b24       0x14 /home/slombardo/projects/BadgersRunFirmware/Build/core/core.a(timers.c.o)
 .bss.xActiveTimerList2
                0x0000000020003b38       0x14 /home/slombardo/projects/BadgersRunFirmware/Build/core/core.a(timers.c.o)
 .bss.xLastTime.9283
                0x0000000020003b4c        0x4 /home/slombardo/projects/BadgersRunFirmware/Build/core/core.a(timers.c.o)
 .bss.xStaticTimerQueue.9329
                0x0000000020003b50       0x50 /home/slombardo/projects/BadgersRunFirmware/Build/core/core.a(timers.c.o)
 .bss.xTimerQueue
                0x0000000020003ba0        0x4 /home/slombardo/projects/BadgersRunFirmware/Build/core/core.a(timers.c.o)
 .bss.xTimerTaskHandle
                0x0000000020003ba4        0x4 /home/slombardo/projects/BadgersRunFirmware/Build/core/core.a(timers.c.o)
 .bss.uxCriticalNesting
                0x0000000020003ba8        0x4 /home/slombardo/projects/BadgersRunFirmware/Build/core/core.a(port_cmsis.c.o)
 .bss.bootloaderVersion
                0x0000000020003bac        0x4 /home/slombardo/projects/BadgersRunFirmware/Build/core/core.a(wiring.c.o)
                0x0000000020003bac                bootloaderVersion
 .bss.Serial    0x0000000020003bb0       0xa8 /home/slombardo/projects/BadgersRunFirmware/Build/core/core.a(Uart.cpp.o)
                0x0000000020003bb0                Serial
 .bss._ZL11_loopHandle
                0x0000000020003c58        0x4 /home/slombardo/projects/BadgersRunFirmware/Build/core/core.a(main.cpp.o)
 .bss._ZZ29vApplicationGetIdleTaskMemoryE12xIdleTaskTCB
                0x0000000020003c5c       0x54 /home/slombardo/projects/BadgersRunFirmware/Build/core/core.a(rtos.cpp.o)
 .bss._ZZ29vApplicationGetIdleTaskMemoryE15uxIdleTaskStack
                0x0000000020003cb0      0x190 /home/slombardo/projects/BadgersRunFirmware/Build/core/core.a(rtos.cpp.o)
 .bss._ZZ30vApplicationGetTimerTaskMemoryE13xTimerTaskTCB
                0x0000000020003e40       0x54 /home/slombardo/projects/BadgersRunFirmware/Build/core/core.a(rtos.cpp.o)
 .bss._ZZ30vApplicationGetTimerTaskMemoryE16uxTimerTaskStack
                0x0000000020003e94      0x400 /home/slombardo/projects/BadgersRunFirmware/Build/core/core.a(rtos.cpp.o)
 .bss._ZZ11dbg_err_strE11unknown_str
                0x0000000020004294        0x7 /home/slombardo/projects/BadgersRunFirmware/Build/core/core.a(debug.cpp.o)
 *fill*         0x000000002000429b        0x1 
 .bss._cb_qdepth
                0x000000002000429c        0x4 /home/slombardo/projects/BadgersRunFirmware/Build/core/core.a(AdaCallback.c.o)
 .bss._cb_queue
                0x00000000200042a0        0x4 /home/slombardo/projects/BadgersRunFirmware/Build/core/core.a(AdaCallback.c.o)
 .bss._cb_task  0x00000000200042a4        0x4 /home/slombardo/projects/BadgersRunFirmware/Build/core/core.a(AdaCallback.c.o)
 .bss.fw_str.11523
                0x00000000200042a8       0x1f /home/slombardo/projects/BadgersRunFirmware/Build/core/core.a(utilities.c.o)
 *fill*         0x00000000200042c7        0x1 
 .bss.serial_str.11532
                0x00000000200042c8       0x11 /home/slombardo/projects/BadgersRunFirmware/Build/core/core.a(utilities.c.o)
 *fill*         0x00000000200042d9        0x3 
 .bss.__malloc_free_list
                0x00000000200042dc        0x4 /home/slombardo/.arduino15/packages/adafruit/tools/arm-none-eabi-gcc/9-2019q4/bin/../lib/gcc/arm-none-eabi/9.2.1/../../../../arm-none-eabi/lib/thumb/v7e-m+fp/hard/libc_nano.a(lib_a-nano-mallocr.o)
                0x00000000200042dc                __malloc_free_list
 .bss.__malloc_sbrk_start
                0x00000000200042e0        0x4 /home/slombardo/.arduino15/packages/adafruit/tools/arm-none-eabi-gcc/9-2019q4/bin/../lib/gcc/arm-none-eabi/9.2.1/../../../../arm-none-eabi/lib/thumb/v7e-m+fp/hard/libc_nano.a(lib_a-nano-mallocr.o)
                0x00000000200042e0                __malloc_sbrk_start
 .bss.heap_end.5507
                0x00000000200042e4        0x4 /home/slombardo/.arduino15/packages/adafruit/tools/arm-none-eabi-gcc/9-2019q4/bin/../lib/gcc/arm-none-eabi/9.2.1/../../../../arm-none-eabi/lib/thumb/v7e-m+fp/hard/libnosys.a(sbrk.o)
 *(COMMON)
 COMMON         0x00000000200042e8        0xc /home/slombardo/projects/BadgersRunFirmware/Build/core/core.a(wiring.c.o)
                0x00000000200042e8                nrf_nvic_state
 COMMON         0x00000000200042f4       0x10 /home/slombardo/projects/BadgersRunFirmware/Build/core/core.a(queue.c.o)
                0x00000000200042f4                xQueueRegistry
 COMMON         0x0000000020004304        0x9 /home/slombardo/.arduino15/packages/adafruit/tools/arm-none-eabi-gcc/9-2019q4/bin/../lib/gcc/arm-none-eabi/9.2.1/../../../../arm-none-eabi/lib/thumb/v7e-m+fp/hard/libc_nano.a(lib_a-lock.o)
                0x0000000020004304                __lock___atexit_recursive_mutex
                0x0000000020004305                __lock___arc4random_mutex
                0x0000000020004306                __lock___env_recursive_mutex
                0x0000000020004307                __lock___sinit_recursive_mutex
                0x0000000020004308                __lock___malloc_recursive_mutex
                0x0000000020004309                __lock___at_quick_exit_mutex
                0x000000002000430a                __lock___dd_hash_mutex
                0x000000002000430b                __lock___tz_mutex
                0x000000002000430c                __lock___sfp_recursive_mutex
 *fill*         0x000000002000430d        0x3 
 COMMON         0x0000000020004310        0x4 /home/slombardo/.arduino15/packages/adafruit/tools/arm-none-eabi-gcc/9-2019q4/bin/../lib/gcc/arm-none-eabi/9.2.1/../../../../arm-none-eabi/lib/thumb/v7e-m+fp/hard/libc_nano.a(lib_a-reent.o)
                0x0000000020004310                errno
                0x0000000020004314                . = ALIGN (0x4)
                0x0000000020004314                __bss_end__ = .

.heap           0x0000000020004314     0xb4ec load address 0x000000000002eea8
                0x0000000020004314                __HeapBase = .
                0x0000000020004314                __end__ = .
                0x0000000020004314                PROVIDE (end = .)
 *(.heap*)
                0x000000002000f800                . = ALIGN (__StackLimit)
 *fill*         0x0000000020004314     0xb4ec 
                0x000000002000f800                __HeapLimit = .
                0x0000000000000001                ASSERT ((__StackLimit >= __HeapLimit), region RAM overflowed with stack)
                0x0000000000000001                ASSERT ((__StackLimit >= __bss_end__), region RAM overflowed with stack)
OUTPUT(/home/slombardo/projects/BadgersRunFirmware/Build/keyboard.ino.elf elf32-littlearm)

.ARM.attributes
                0x0000000000000000       0x32
 .ARM.attributes
                0x0000000000000000       0x34 /home/slombardo/.arduino15/packages/adafruit/tools/arm-none-eabi-gcc/9-2019q4/bin/../lib/gcc/arm-none-eabi/9.2.1/thumb/v7e-m+fp/hard/crtfastmath.o
 .ARM.attributes
                0x0000000000000034       0x1e /home/slombardo/.arduino15/packages/adafruit/tools/arm-none-eabi-gcc/9-2019q4/bin/../lib/gcc/arm-none-eabi/9.2.1/thumb/v7e-m+fp/hard/crti.o
 .ARM.attributes
                0x0000000000000052       0x34 /home/slombardo/.arduino15/packages/adafruit/tools/arm-none-eabi-gcc/9-2019q4/bin/../lib/gcc/arm-none-eabi/9.2.1/thumb/v7e-m+fp/hard/crtbegin.o
 .ARM.attributes
                0x0000000000000086       0x1c /home/slombardo/.arduino15/packages/adafruit/tools/arm-none-eabi-gcc/9-2019q4/bin/../lib/gcc/arm-none-eabi/9.2.1/../../../../arm-none-eabi/lib/thumb/v7e-m+fp/hard/crt0.o
 .ARM.attributes
                0x00000000000000a2       0x30 /home/slombardo/projects/BadgersRunFirmware/Build/sketch/keyboard.ino.cpp.o
 .ARM.attributes
                0x00000000000000d2       0x30 /home/slombardo/projects/BadgersRunFirmware/Build/core/variant.cpp.o
 .ARM.attributes
                0x0000000000000102       0x1c /home/slombardo/projects/BadgersRunFirmware/Build/core/core.a(gcc_startup_nrf52.S.o)
 .ARM.attributes
                0x000000000000011e       0x30 /home/slombardo/projects/BadgersRunFirmware/Build/core/core.a(delay.c.o)
 .ARM.attributes
                0x000000000000014e       0x30 /home/slombardo/projects/BadgersRunFirmware/Build/core/core.a(tasks.c.o)
 .ARM.attributes
                0x000000000000017e       0x30 /home/slombardo/projects/BadgersRunFirmware/Build/core/core.a(timers.c.o)
 .ARM.attributes
                0x00000000000001ae       0x30 /home/slombardo/projects/BadgersRunFirmware/Build/core/core.a(port_cmsis.c.o)
 .ARM.attributes
                0x00000000000001de       0x30 /home/slombardo/projects/BadgersRunFirmware/Build/core/core.a(port_cmsis_systick.c.o)
 .ARM.attributes
                0x000000000000020e       0x30 /home/slombardo/projects/BadgersRunFirmware/Build/core/core.a(port.c.o)
 .ARM.attributes
                0x000000000000023e       0x30 /home/slombardo/projects/BadgersRunFirmware/Build/core/core.a(hooks.c.o)
 .ARM.attributes
                0x000000000000026e       0x30 /home/slombardo/projects/BadgersRunFirmware/Build/core/core.a(system_nrf52.c.o)
 .ARM.attributes
                0x000000000000029e       0x30 /home/slombardo/projects/BadgersRunFirmware/Build/core/core.a(wiring.c.o)
 .ARM.attributes
                0x00000000000002ce       0x30 /home/slombardo/projects/BadgersRunFirmware/Build/core/core.a(wiring_digital.c.o)
 .ARM.attributes
                0x00000000000002fe       0x30 /home/slombardo/projects/BadgersRunFirmware/Build/core/core.a(Print.cpp.o)
 .ARM.attributes
                0x000000000000032e       0x30 /home/slombardo/projects/BadgersRunFirmware/Build/core/core.a(Uart.cpp.o)
 .ARM.attributes
                0x000000000000035e       0x30 /home/slombardo/projects/BadgersRunFirmware/Build/core/core.a(main.cpp.o)
 .ARM.attributes
                0x000000000000038e       0x30 /home/slombardo/projects/BadgersRunFirmware/Build/core/core.a(rtos.cpp.o)
 .ARM.attributes
                0x00000000000003be       0x30 /home/slombardo/projects/BadgersRunFirmware/Build/core/core.a(debug.cpp.o)
 .ARM.attributes
                0x00000000000003ee       0x30 /home/slombardo/projects/BadgersRunFirmware/Build/core/core.a(list.c.o)
 .ARM.attributes
                0x000000000000041e       0x30 /home/slombardo/projects/BadgersRunFirmware/Build/core/core.a(heap_3.c.o)
 .ARM.attributes
                0x000000000000044e       0x30 /home/slombardo/projects/BadgersRunFirmware/Build/core/core.a(queue.c.o)
 .ARM.attributes
                0x000000000000047e       0x30 /home/slombardo/projects/BadgersRunFirmware/Build/core/core.a(AdaCallback.c.o)
 .ARM.attributes
                0x00000000000004ae       0x30 /home/slombardo/projects/BadgersRunFirmware/Build/core/core.a(utilities.c.o)
 .ARM.attributes
                0x00000000000004de       0x30 /home/slombardo/projects/BadgersRunFirmware/Build/core/core.a(RingBuffer.cpp.o)
 .ARM.attributes
                0x000000000000050e       0x34 /home/slombardo/.arduino15/packages/adafruit/tools/arm-none-eabi-gcc/9-2019q4/bin/../lib/gcc/arm-none-eabi/9.2.1/../../../../arm-none-eabi/lib/thumb/v7e-m+fp/hard/libc_nano.a(lib_a-exit.o)
 .ARM.attributes
                0x0000000000000542       0x32 /home/slombardo/.arduino15/packages/adafruit/tools/arm-none-eabi-gcc/9-2019q4/bin/../lib/gcc/arm-none-eabi/9.2.1/../../../../arm-none-eabi/lib/thumb/v7e-m+fp/hard/libc_nano.a(lib_a-impure.o)
 .ARM.attributes
                0x0000000000000574       0x34 /home/slombardo/.arduino15/packages/adafruit/tools/arm-none-eabi-gcc/9-2019q4/bin/../lib/gcc/arm-none-eabi/9.2.1/../../../../arm-none-eabi/lib/thumb/v7e-m+fp/hard/libc_nano.a(lib_a-init.o)
 .ARM.attributes
                0x00000000000005a8       0x34 /home/slombardo/.arduino15/packages/adafruit/tools/arm-none-eabi-gcc/9-2019q4/bin/../lib/gcc/arm-none-eabi/9.2.1/../../../../arm-none-eabi/lib/thumb/v7e-m+fp/hard/libc_nano.a(lib_a-malloc.o)
 .ARM.attributes
                0x00000000000005dc       0x34 /home/slombardo/.arduino15/packages/adafruit/tools/arm-none-eabi-gcc/9-2019q4/bin/../lib/gcc/arm-none-eabi/9.2.1/../../../../arm-none-eabi/lib/thumb/v7e-m+fp/hard/libc_nano.a(lib_a-memcpy-stub.o)
 .ARM.attributes
                0x0000000000000610       0x34 /home/slombardo/.arduino15/packages/adafruit/tools/arm-none-eabi-gcc/9-2019q4/bin/../lib/gcc/arm-none-eabi/9.2.1/../../../../arm-none-eabi/lib/thumb/v7e-m+fp/hard/libc_nano.a(lib_a-memset.o)
 .ARM.attributes
                0x0000000000000644       0x34 /home/slombardo/.arduino15/packages/adafruit/tools/arm-none-eabi-gcc/9-2019q4/bin/../lib/gcc/arm-none-eabi/9.2.1/../../../../arm-none-eabi/lib/thumb/v7e-m+fp/hard/libc_nano.a(lib_a-nano-freer.o)
 .ARM.attributes
                0x0000000000000678       0x34 /home/slombardo/.arduino15/packages/adafruit/tools/arm-none-eabi-gcc/9-2019q4/bin/../lib/gcc/arm-none-eabi/9.2.1/../../../../arm-none-eabi/lib/thumb/v7e-m+fp/hard/libc_nano.a(lib_a-nano-mallocr.o)
 .ARM.attributes
                0x00000000000006ac       0x34 /home/slombardo/.arduino15/packages/adafruit/tools/arm-none-eabi-gcc/9-2019q4/bin/../lib/gcc/arm-none-eabi/9.2.1/../../../../arm-none-eabi/lib/thumb/v7e-m+fp/hard/libc_nano.a(lib_a-nano-vfprintf_float.o)
 .ARM.attributes
                0x00000000000006e0       0x34 /home/slombardo/.arduino15/packages/adafruit/tools/arm-none-eabi-gcc/9-2019q4/bin/../lib/gcc/arm-none-eabi/9.2.1/../../../../arm-none-eabi/lib/thumb/v7e-m+fp/hard/libc_nano.a(lib_a-nano-vfprintf_i.o)
 .ARM.attributes
                0x0000000000000714       0x34 /home/slombardo/.arduino15/packages/adafruit/tools/arm-none-eabi-gcc/9-2019q4/bin/../lib/gcc/arm-none-eabi/9.2.1/../../../../arm-none-eabi/lib/thumb/v7e-m+fp/hard/libc_nano.a(lib_a-printf.o)
 .ARM.attributes
                0x0000000000000748       0x34 /home/slombardo/.arduino15/packages/adafruit/tools/arm-none-eabi-gcc/9-2019q4/bin/../lib/gcc/arm-none-eabi/9.2.1/../../../../arm-none-eabi/lib/thumb/v7e-m+fp/hard/libc_nano.a(lib_a-putchar.o)
 .ARM.attributes
                0x000000000000077c       0x34 /home/slombardo/.arduino15/packages/adafruit/tools/arm-none-eabi-gcc/9-2019q4/bin/../lib/gcc/arm-none-eabi/9.2.1/../../../../arm-none-eabi/lib/thumb/v7e-m+fp/hard/libc_nano.a(lib_a-puts.o)
 .ARM.attributes
                0x00000000000007b0       0x34 /home/slombardo/.arduino15/packages/adafruit/tools/arm-none-eabi-gcc/9-2019q4/bin/../lib/gcc/arm-none-eabi/9.2.1/../../../../arm-none-eabi/lib/thumb/v7e-m+fp/hard/libc_nano.a(lib_a-sbrkr.o)
 .ARM.attributes
                0x00000000000007e4       0x34 /home/slombardo/.arduino15/packages/adafruit/tools/arm-none-eabi-gcc/9-2019q4/bin/../lib/gcc/arm-none-eabi/9.2.1/../../../../arm-none-eabi/lib/thumb/v7e-m+fp/hard/libc_nano.a(lib_a-sprintf.o)
 .ARM.attributes
                0x0000000000000818       0x17 /home/slombardo/.arduino15/packages/adafruit/tools/arm-none-eabi-gcc/9-2019q4/bin/../lib/gcc/arm-none-eabi/9.2.1/../../../../arm-none-eabi/lib/thumb/v7e-m+fp/hard/libc_nano.a(lib_a-strlen.o)
 .ARM.attributes
                0x000000000000082f       0x34 /home/slombardo/.arduino15/packages/adafruit/tools/arm-none-eabi-gcc/9-2019q4/bin/../lib/gcc/arm-none-eabi/9.2.1/../../../../arm-none-eabi/lib/thumb/v7e-m+fp/hard/libc_nano.a(lib_a-wbuf.o)
 .ARM.attributes
                0x0000000000000863       0x34 /home/slombardo/.arduino15/packages/adafruit/tools/arm-none-eabi-gcc/9-2019q4/bin/../lib/gcc/arm-none-eabi/9.2.1/../../../../arm-none-eabi/lib/thumb/v7e-m+fp/hard/libc_nano.a(lib_a-wsetup.o)
 .ARM.attributes
                0x0000000000000897       0x32 /home/slombardo/.arduino15/packages/adafruit/tools/arm-none-eabi-gcc/9-2019q4/bin/../lib/gcc/arm-none-eabi/9.2.1/../../../../arm-none-eabi/lib/thumb/v7e-m+fp/hard/libc_nano.a(lib_a-ctype_.o)
 .ARM.attributes
                0x00000000000008c9       0x34 /home/slombardo/.arduino15/packages/adafruit/tools/arm-none-eabi-gcc/9-2019q4/bin/../lib/gcc/arm-none-eabi/9.2.1/../../../../arm-none-eabi/lib/thumb/v7e-m+fp/hard/libc_nano.a(lib_a-dtoa.o)
 .ARM.attributes
                0x00000000000008fd       0x34 /home/slombardo/.arduino15/packages/adafruit/tools/arm-none-eabi-gcc/9-2019q4/bin/../lib/gcc/arm-none-eabi/9.2.1/../../../../arm-none-eabi/lib/thumb/v7e-m+fp/hard/libc_nano.a(lib_a-fflush.o)
 .ARM.attributes
                0x0000000000000931       0x34 /home/slombardo/.arduino15/packages/adafruit/tools/arm-none-eabi-gcc/9-2019q4/bin/../lib/gcc/arm-none-eabi/9.2.1/../../../../arm-none-eabi/lib/thumb/v7e-m+fp/hard/libc_nano.a(lib_a-findfp.o)
 .ARM.attributes
                0x0000000000000965       0x34 /home/slombardo/.arduino15/packages/adafruit/tools/arm-none-eabi-gcc/9-2019q4/bin/../lib/gcc/arm-none-eabi/9.2.1/../../../../arm-none-eabi/lib/thumb/v7e-m+fp/hard/libc_nano.a(lib_a-fwalk.o)
 .ARM.attributes
                0x0000000000000999       0x34 /home/slombardo/.arduino15/packages/adafruit/tools/arm-none-eabi-gcc/9-2019q4/bin/../lib/gcc/arm-none-eabi/9.2.1/../../../../arm-none-eabi/lib/thumb/v7e-m+fp/hard/libc_nano.a(lib_a-localeconv.o)
 .ARM.attributes
                0x00000000000009cd       0x34 /home/slombardo/.arduino15/packages/adafruit/tools/arm-none-eabi-gcc/9-2019q4/bin/../lib/gcc/arm-none-eabi/9.2.1/../../../../arm-none-eabi/lib/thumb/v7e-m+fp/hard/libc_nano.a(lib_a-lock.o)
 .ARM.attributes
                0x0000000000000a01       0x34 /home/slombardo/.arduino15/packages/adafruit/tools/arm-none-eabi-gcc/9-2019q4/bin/../lib/gcc/arm-none-eabi/9.2.1/../../../../arm-none-eabi/lib/thumb/v7e-m+fp/hard/libc_nano.a(lib_a-makebuf.o)
 .ARM.attributes
                0x0000000000000a35       0x1c /home/slombardo/.arduino15/packages/adafruit/tools/arm-none-eabi-gcc/9-2019q4/bin/../lib/gcc/arm-none-eabi/9.2.1/../../../../arm-none-eabi/lib/thumb/v7e-m+fp/hard/libc_nano.a(lib_a-memchr.o)
 .ARM.attributes
                0x0000000000000a51       0x34 /home/slombardo/.arduino15/packages/adafruit/tools/arm-none-eabi-gcc/9-2019q4/bin/../lib/gcc/arm-none-eabi/9.2.1/../../../../arm-none-eabi/lib/thumb/v7e-m+fp/hard/libc_nano.a(lib_a-mlock.o)
 .ARM.attributes
                0x0000000000000a85       0x34 /home/slombardo/.arduino15/packages/adafruit/tools/arm-none-eabi-gcc/9-2019q4/bin/../lib/gcc/arm-none-eabi/9.2.1/../../../../arm-none-eabi/lib/thumb/v7e-m+fp/hard/libc_nano.a(lib_a-mprec.o)
 .ARM.attributes
                0x0000000000000ab9       0x34 /home/slombardo/.arduino15/packages/adafruit/tools/arm-none-eabi-gcc/9-2019q4/bin/../lib/gcc/arm-none-eabi/9.2.1/../../../../arm-none-eabi/lib/thumb/v7e-m+fp/hard/libc_nano.a(lib_a-nano-callocr.o)
 .ARM.attributes
                0x0000000000000aed       0x34 /home/slombardo/.arduino15/packages/adafruit/tools/arm-none-eabi-gcc/9-2019q4/bin/../lib/gcc/arm-none-eabi/9.2.1/../../../../arm-none-eabi/lib/thumb/v7e-m+fp/hard/libc_nano.a(lib_a-nano-svfprintf.o)
 .ARM.attributes
                0x0000000000000b21       0x34 /home/slombardo/.arduino15/packages/adafruit/tools/arm-none-eabi-gcc/9-2019q4/bin/../lib/gcc/arm-none-eabi/9.2.1/../../../../arm-none-eabi/lib/thumb/v7e-m+fp/hard/libc_nano.a(lib_a-nano-vfprintf.o)
 .ARM.attributes
                0x0000000000000b55       0x34 /home/slombardo/.arduino15/packages/adafruit/tools/arm-none-eabi-gcc/9-2019q4/bin/../lib/gcc/arm-none-eabi/9.2.1/../../../../arm-none-eabi/lib/thumb/v7e-m+fp/hard/libc_nano.a(lib_a-putc.o)
 .ARM.attributes
                0x0000000000000b89       0x34 /home/slombardo/.arduino15/packages/adafruit/tools/arm-none-eabi-gcc/9-2019q4/bin/../lib/gcc/arm-none-eabi/9.2.1/../../../../arm-none-eabi/lib/thumb/v7e-m+fp/hard/libc_nano.a(lib_a-reent.o)
 .ARM.attributes
                0x0000000000000bbd       0x34 /home/slombardo/.arduino15/packages/adafruit/tools/arm-none-eabi-gcc/9-2019q4/bin/../lib/gcc/arm-none-eabi/9.2.1/../../../../arm-none-eabi/lib/thumb/v7e-m+fp/hard/libc_nano.a(lib_a-stdio.o)
 .ARM.attributes
                0x0000000000000bf1       0x34 /home/slombardo/.arduino15/packages/adafruit/tools/arm-none-eabi-gcc/9-2019q4/bin/../lib/gcc/arm-none-eabi/9.2.1/../../../../arm-none-eabi/lib/thumb/v7e-m+fp/hard/libc_nano.a(lib_a-writer.o)
 .ARM.attributes
                0x0000000000000c25       0x34 /home/slombardo/.arduino15/packages/adafruit/tools/arm-none-eabi-gcc/9-2019q4/bin/../lib/gcc/arm-none-eabi/9.2.1/../../../../arm-none-eabi/lib/thumb/v7e-m+fp/hard/libc_nano.a(lib_a-closer.o)
 .ARM.attributes
                0x0000000000000c59       0x34 /home/slombardo/.arduino15/packages/adafruit/tools/arm-none-eabi-gcc/9-2019q4/bin/../lib/gcc/arm-none-eabi/9.2.1/../../../../arm-none-eabi/lib/thumb/v7e-m+fp/hard/libc_nano.a(lib_a-fstatr.o)
 .ARM.attributes
                0x0000000000000c8d       0x34 /home/slombardo/.arduino15/packages/adafruit/tools/arm-none-eabi-gcc/9-2019q4/bin/../lib/gcc/arm-none-eabi/9.2.1/../../../../arm-none-eabi/lib/thumb/v7e-m+fp/hard/libc_nano.a(lib_a-isattyr.o)
 .ARM.attributes
                0x0000000000000cc1       0x34 /home/slombardo/.arduino15/packages/adafruit/tools/arm-none-eabi-gcc/9-2019q4/bin/../lib/gcc/arm-none-eabi/9.2.1/../../../../arm-none-eabi/lib/thumb/v7e-m+fp/hard/libc_nano.a(lib_a-locale.o)
 .ARM.attributes
                0x0000000000000cf5       0x34 /home/slombardo/.arduino15/packages/adafruit/tools/arm-none-eabi-gcc/9-2019q4/bin/../lib/gcc/arm-none-eabi/9.2.1/../../../../arm-none-eabi/lib/thumb/v7e-m+fp/hard/libc_nano.a(lib_a-lseekr.o)
 .ARM.attributes
                0x0000000000000d29       0x34 /home/slombardo/.arduino15/packages/adafruit/tools/arm-none-eabi-gcc/9-2019q4/bin/../lib/gcc/arm-none-eabi/9.2.1/../../../../arm-none-eabi/lib/thumb/v7e-m+fp/hard/libc_nano.a(lib_a-mbtowc_r.o)
 .ARM.attributes
                0x0000000000000d5d       0x34 /home/slombardo/.arduino15/packages/adafruit/tools/arm-none-eabi-gcc/9-2019q4/bin/../lib/gcc/arm-none-eabi/9.2.1/../../../../arm-none-eabi/lib/thumb/v7e-m+fp/hard/libc_nano.a(lib_a-memmove.o)
 .ARM.attributes
                0x0000000000000d91       0x34 /home/slombardo/.arduino15/packages/adafruit/tools/arm-none-eabi-gcc/9-2019q4/bin/../lib/gcc/arm-none-eabi/9.2.1/../../../../arm-none-eabi/lib/thumb/v7e-m+fp/hard/libc_nano.a(lib_a-nano-reallocr.o)
 .ARM.attributes
                0x0000000000000dc5       0x34 /home/slombardo/.arduino15/packages/adafruit/tools/arm-none-eabi-gcc/9-2019q4/bin/../lib/gcc/arm-none-eabi/9.2.1/../../../../arm-none-eabi/lib/thumb/v7e-m+fp/hard/libc_nano.a(lib_a-readr.o)
 .ARM.attributes
                0x0000000000000df9       0x34 /home/slombardo/.arduino15/packages/adafruit/tools/arm-none-eabi-gcc/9-2019q4/bin/../lib/gcc/arm-none-eabi/9.2.1/../../../../arm-none-eabi/lib/thumb/v7e-m+fp/hard/libc_nano.a(lib_a-wctomb_r.o)
 .ARM.attributes
                0x0000000000000e2d       0x34 /home/slombardo/.arduino15/packages/adafruit/tools/arm-none-eabi-gcc/9-2019q4/bin/../lib/gcc/arm-none-eabi/9.2.1/../../../../arm-none-eabi/lib/thumb/v7e-m+fp/hard/libc_nano.a(lib_a-nano-msizer.o)
 .ARM.attributes
                0x0000000000000e61       0x1e /home/slombardo/.arduino15/packages/adafruit/tools/arm-none-eabi-gcc/9-2019q4/bin/../lib/gcc/arm-none-eabi/9.2.1/thumb/v7e-m+fp/hard/libgcc.a(_arm_addsubdf3.o)
 .ARM.attributes
                0x0000000000000e7f       0x1e /home/slombardo/.arduino15/packages/adafruit/tools/arm-none-eabi-gcc/9-2019q4/bin/../lib/gcc/arm-none-eabi/9.2.1/thumb/v7e-m+fp/hard/libgcc.a(_arm_muldivdf3.o)
 .ARM.attributes
                0x0000000000000e9d       0x1e /home/slombardo/.arduino15/packages/adafruit/tools/arm-none-eabi-gcc/9-2019q4/bin/../lib/gcc/arm-none-eabi/9.2.1/thumb/v7e-m+fp/hard/libgcc.a(_arm_cmpdf2.o)
 .ARM.attributes
                0x0000000000000ebb       0x1e /home/slombardo/.arduino15/packages/adafruit/tools/arm-none-eabi-gcc/9-2019q4/bin/../lib/gcc/arm-none-eabi/9.2.1/thumb/v7e-m+fp/hard/libgcc.a(_arm_unorddf2.o)
 .ARM.attributes
                0x0000000000000ed9       0x1e /home/slombardo/.arduino15/packages/adafruit/tools/arm-none-eabi-gcc/9-2019q4/bin/../lib/gcc/arm-none-eabi/9.2.1/thumb/v7e-m+fp/hard/libgcc.a(_arm_fixdfsi.o)
 .ARM.attributes
                0x0000000000000ef7       0x34 /home/slombardo/.arduino15/packages/adafruit/tools/arm-none-eabi-gcc/9-2019q4/bin/../lib/gcc/arm-none-eabi/9.2.1/../../../../arm-none-eabi/lib/thumb/v7e-m+fp/hard/libnosys.a(close.o)
 .ARM.attributes
                0x0000000000000f2b       0x34 /home/slombardo/.arduino15/packages/adafruit/tools/arm-none-eabi-gcc/9-2019q4/bin/../lib/gcc/arm-none-eabi/9.2.1/../../../../arm-none-eabi/lib/thumb/v7e-m+fp/hard/libnosys.a(fstat.o)
 .ARM.attributes
                0x0000000000000f5f       0x34 /home/slombardo/.arduino15/packages/adafruit/tools/arm-none-eabi-gcc/9-2019q4/bin/../lib/gcc/arm-none-eabi/9.2.1/../../../../arm-none-eabi/lib/thumb/v7e-m+fp/hard/libnosys.a(isatty.o)
 .ARM.attributes
                0x0000000000000f93       0x34 /home/slombardo/.arduino15/packages/adafruit/tools/arm-none-eabi-gcc/9-2019q4/bin/../lib/gcc/arm-none-eabi/9.2.1/../../../../arm-none-eabi/lib/thumb/v7e-m+fp/hard/libnosys.a(lseek.o)
 .ARM.attributes
                0x0000000000000fc7       0x34 /home/slombardo/.arduino15/packages/adafruit/tools/arm-none-eabi-gcc/9-2019q4/bin/../lib/gcc/arm-none-eabi/9.2.1/../../../../arm-none-eabi/lib/thumb/v7e-m+fp/hard/libnosys.a(read.o)
 .ARM.attributes
                0x0000000000000ffb       0x34 /home/slombardo/.arduino15/packages/adafruit/tools/arm-none-eabi-gcc/9-2019q4/bin/../lib/gcc/arm-none-eabi/9.2.1/../../../../arm-none-eabi/lib/thumb/v7e-m+fp/hard/libnosys.a(sbrk.o)
 .ARM.attributes
                0x000000000000102f       0x34 /home/slombardo/.arduino15/packages/adafruit/tools/arm-none-eabi-gcc/9-2019q4/bin/../lib/gcc/arm-none-eabi/9.2.1/../../../../arm-none-eabi/lib/thumb/v7e-m+fp/hard/libnosys.a(_exit.o)
 .ARM.attributes
                0x0000000000001063       0x32 /home/slombardo/.arduino15/packages/adafruit/tools/arm-none-eabi-gcc/9-2019q4/bin/../lib/gcc/arm-none-eabi/9.2.1/thumb/v7e-m+fp/hard/crtend.o
 .ARM.attributes
                0x0000000000001095       0x1e /home/slombardo/.arduino15/packages/adafruit/tools/arm-none-eabi-gcc/9-2019q4/bin/../lib/gcc/arm-none-eabi/9.2.1/thumb/v7e-m+fp/hard/crtn.o

.comment        0x0000000000000000       0x79
 .comment       0x0000000000000000       0x79 /home/slombardo/projects/BadgersRunFirmware/Build/sketch/keyboard.ino.cpp.o
                                         0x7a (size before relaxing)
 .comment       0x0000000000000079       0x7a /home/slombardo/projects/BadgersRunFirmware/Build/core/variant.cpp.o
 .comment       0x0000000000000079       0x7a /home/slombardo/projects/BadgersRunFirmware/Build/core/core.a(delay.c.o)
 .comment       0x0000000000000079       0x7a /home/slombardo/projects/BadgersRunFirmware/Build/core/core.a(tasks.c.o)
 .comment       0x0000000000000079       0x7a /home/slombardo/projects/BadgersRunFirmware/Build/core/core.a(timers.c.o)
 .comment       0x0000000000000079       0x7a /home/slombardo/projects/BadgersRunFirmware/Build/core/core.a(port_cmsis.c.o)
 .comment       0x0000000000000079       0x7a /home/slombardo/projects/BadgersRunFirmware/Build/core/core.a(port_cmsis_systick.c.o)
 .comment       0x0000000000000079       0x7a /home/slombardo/projects/BadgersRunFirmware/Build/core/core.a(port.c.o)
 .comment       0x0000000000000079       0x7a /home/slombardo/projects/BadgersRunFirmware/Build/core/core.a(hooks.c.o)
 .comment       0x0000000000000079       0x7a /home/slombardo/projects/BadgersRunFirmware/Build/core/core.a(system_nrf52.c.o)
 .comment       0x0000000000000079       0x7a /home/slombardo/projects/BadgersRunFirmware/Build/core/core.a(wiring.c.o)
 .comment       0x0000000000000079       0x7a /home/slombardo/projects/BadgersRunFirmware/Build/core/core.a(wiring_digital.c.o)
 .comment       0x0000000000000079       0x7a /home/slombardo/projects/BadgersRunFirmware/Build/core/core.a(Print.cpp.o)
 .comment       0x0000000000000079       0x7a /home/slombardo/projects/BadgersRunFirmware/Build/core/core.a(Uart.cpp.o)
 .comment       0x0000000000000079       0x7a /home/slombardo/projects/BadgersRunFirmware/Build/core/core.a(main.cpp.o)
 .comment       0x0000000000000079       0x7a /home/slombardo/projects/BadgersRunFirmware/Build/core/core.a(rtos.cpp.o)
 .comment       0x0000000000000079       0x7a /home/slombardo/projects/BadgersRunFirmware/Build/core/core.a(debug.cpp.o)
 .comment       0x0000000000000079       0x7a /home/slombardo/projects/BadgersRunFirmware/Build/core/core.a(list.c.o)
 .comment       0x0000000000000079       0x7a /home/slombardo/projects/BadgersRunFirmware/Build/core/core.a(heap_3.c.o)
 .comment       0x0000000000000079       0x7a /home/slombardo/projects/BadgersRunFirmware/Build/core/core.a(queue.c.o)
 .comment       0x0000000000000079       0x7a /home/slombardo/projects/BadgersRunFirmware/Build/core/core.a(AdaCallback.c.o)
 .comment       0x0000000000000079       0x7a /home/slombardo/projects/BadgersRunFirmware/Build/core/core.a(utilities.c.o)
 .comment       0x0000000000000079       0x7a /home/slombardo/projects/BadgersRunFirmware/Build/core/core.a(RingBuffer.cpp.o)

.debug_frame    0x0000000000000000     0x2edc
 .debug_frame   0x0000000000000000       0x20 /home/slombardo/.arduino15/packages/adafruit/tools/arm-none-eabi-gcc/9-2019q4/bin/../lib/gcc/arm-none-eabi/9.2.1/thumb/v7e-m+fp/hard/crtfastmath.o
 .debug_frame   0x0000000000000020       0x50 /home/slombardo/projects/BadgersRunFirmware/Build/sketch/keyboard.ino.cpp.o
 .debug_frame   0x0000000000000070       0x2c /home/slombardo/projects/BadgersRunFirmware/Build/core/variant.cpp.o
 .debug_frame   0x000000000000009c       0x58 /home/slombardo/projects/BadgersRunFirmware/Build/core/core.a(delay.c.o)
 .debug_frame   0x00000000000000f4      0x6f0 /home/slombardo/projects/BadgersRunFirmware/Build/core/core.a(tasks.c.o)
 .debug_frame   0x00000000000007e4      0x22c /home/slombardo/projects/BadgersRunFirmware/Build/core/core.a(timers.c.o)
 .debug_frame   0x0000000000000a10       0x84 /home/slombardo/projects/BadgersRunFirmware/Build/core/core.a(port_cmsis.c.o)
 .debug_frame   0x0000000000000a94       0x9c /home/slombardo/projects/BadgersRunFirmware/Build/core/core.a(port_cmsis_systick.c.o)
 .debug_frame   0x0000000000000b30       0x40 /home/slombardo/projects/BadgersRunFirmware/Build/core/core.a(port.c.o)
 .debug_frame   0x0000000000000b70       0x40 /home/slombardo/projects/BadgersRunFirmware/Build/core/core.a(hooks.c.o)
 .debug_frame   0x0000000000000bb0       0x40 /home/slombardo/projects/BadgersRunFirmware/Build/core/core.a(system_nrf52.c.o)
 .debug_frame   0x0000000000000bf0       0xfc /home/slombardo/projects/BadgersRunFirmware/Build/core/core.a(wiring.c.o)
 .debug_frame   0x0000000000000cec       0x70 /home/slombardo/projects/BadgersRunFirmware/Build/core/core.a(wiring_digital.c.o)
 .debug_frame   0x0000000000000d5c      0x414 /home/slombardo/projects/BadgersRunFirmware/Build/core/core.a(Print.cpp.o)
 .debug_frame   0x0000000000001170      0x1f4 /home/slombardo/projects/BadgersRunFirmware/Build/core/core.a(Uart.cpp.o)
 .debug_frame   0x0000000000001364       0x90 /home/slombardo/projects/BadgersRunFirmware/Build/core/core.a(main.cpp.o)
 .debug_frame   0x00000000000013f4       0xd8 /home/slombardo/projects/BadgersRunFirmware/Build/core/core.a(rtos.cpp.o)
 .debug_frame   0x00000000000014cc      0x15c /home/slombardo/projects/BadgersRunFirmware/Build/core/core.a(debug.cpp.o)
 .debug_frame   0x0000000000001628       0x88 /home/slombardo/projects/BadgersRunFirmware/Build/core/core.a(list.c.o)
 .debug_frame   0x00000000000016b0       0x4c /home/slombardo/projects/BadgersRunFirmware/Build/core/core.a(heap_3.c.o)
 .debug_frame   0x00000000000016fc      0x3b0 /home/slombardo/projects/BadgersRunFirmware/Build/core/core.a(queue.c.o)
 .debug_frame   0x0000000000001aac       0xd4 /home/slombardo/projects/BadgersRunFirmware/Build/core/core.a(AdaCallback.c.o)
 .debug_frame   0x0000000000001b80       0x70 /home/slombardo/projects/BadgersRunFirmware/Build/core/core.a(utilities.c.o)
 .debug_frame   0x0000000000001bf0       0xa4 /home/slombardo/projects/BadgersRunFirmware/Build/core/core.a(RingBuffer.cpp.o)
 .debug_frame   0x0000000000001c94       0x28 /home/slombardo/.arduino15/packages/adafruit/tools/arm-none-eabi-gcc/9-2019q4/bin/../lib/gcc/arm-none-eabi/9.2.1/../../../../arm-none-eabi/lib/thumb/v7e-m+fp/hard/libc_nano.a(lib_a-exit.o)
 .debug_frame   0x0000000000001cbc       0x2c /home/slombardo/.arduino15/packages/adafruit/tools/arm-none-eabi-gcc/9-2019q4/bin/../lib/gcc/arm-none-eabi/9.2.1/../../../../arm-none-eabi/lib/thumb/v7e-m+fp/hard/libc_nano.a(lib_a-init.o)
 .debug_frame   0x0000000000001ce8       0x30 /home/slombardo/.arduino15/packages/adafruit/tools/arm-none-eabi-gcc/9-2019q4/bin/../lib/gcc/arm-none-eabi/9.2.1/../../../../arm-none-eabi/lib/thumb/v7e-m+fp/hard/libc_nano.a(lib_a-malloc.o)
 .debug_frame   0x0000000000001d18       0x28 /home/slombardo/.arduino15/packages/adafruit/tools/arm-none-eabi-gcc/9-2019q4/bin/../lib/gcc/arm-none-eabi/9.2.1/../../../../arm-none-eabi/lib/thumb/v7e-m+fp/hard/libc_nano.a(lib_a-memcpy-stub.o)
 .debug_frame   0x0000000000001d40       0x20 /home/slombardo/.arduino15/packages/adafruit/tools/arm-none-eabi-gcc/9-2019q4/bin/../lib/gcc/arm-none-eabi/9.2.1/../../../../arm-none-eabi/lib/thumb/v7e-m+fp/hard/libc_nano.a(lib_a-memset.o)
 .debug_frame   0x0000000000001d60       0x38 /home/slombardo/.arduino15/packages/adafruit/tools/arm-none-eabi-gcc/9-2019q4/bin/../lib/gcc/arm-none-eabi/9.2.1/../../../../arm-none-eabi/lib/thumb/v7e-m+fp/hard/libc_nano.a(lib_a-nano-freer.o)
 .debug_frame   0x0000000000001d98       0x30 /home/slombardo/.arduino15/packages/adafruit/tools/arm-none-eabi-gcc/9-2019q4/bin/../lib/gcc/arm-none-eabi/9.2.1/../../../../arm-none-eabi/lib/thumb/v7e-m+fp/hard/libc_nano.a(lib_a-nano-mallocr.o)
 .debug_frame   0x0000000000001dc8       0xa0 /home/slombardo/.arduino15/packages/adafruit/tools/arm-none-eabi-gcc/9-2019q4/bin/../lib/gcc/arm-none-eabi/9.2.1/../../../../arm-none-eabi/lib/thumb/v7e-m+fp/hard/libc_nano.a(lib_a-nano-vfprintf_float.o)
 .debug_frame   0x0000000000001e68       0x60 /home/slombardo/.arduino15/packages/adafruit/tools/arm-none-eabi-gcc/9-2019q4/bin/../lib/gcc/arm-none-eabi/9.2.1/../../../../arm-none-eabi/lib/thumb/v7e-m+fp/hard/libc_nano.a(lib_a-nano-vfprintf_i.o)
 .debug_frame   0x0000000000001ec8       0x74 /home/slombardo/.arduino15/packages/adafruit/tools/arm-none-eabi-gcc/9-2019q4/bin/../lib/gcc/arm-none-eabi/9.2.1/../../../../arm-none-eabi/lib/thumb/v7e-m+fp/hard/libc_nano.a(lib_a-printf.o)
 .debug_frame   0x0000000000001f3c       0x50 /home/slombardo/.arduino15/packages/adafruit/tools/arm-none-eabi-gcc/9-2019q4/bin/../lib/gcc/arm-none-eabi/9.2.1/../../../../arm-none-eabi/lib/thumb/v7e-m+fp/hard/libc_nano.a(lib_a-putchar.o)
 .debug_frame   0x0000000000001f8c       0x3c /home/slombardo/.arduino15/packages/adafruit/tools/arm-none-eabi-gcc/9-2019q4/bin/../lib/gcc/arm-none-eabi/9.2.1/../../../../arm-none-eabi/lib/thumb/v7e-m+fp/hard/libc_nano.a(lib_a-puts.o)
 .debug_frame   0x0000000000001fc8       0x2c /home/slombardo/.arduino15/packages/adafruit/tools/arm-none-eabi-gcc/9-2019q4/bin/../lib/gcc/arm-none-eabi/9.2.1/../../../../arm-none-eabi/lib/thumb/v7e-m+fp/hard/libc_nano.a(lib_a-sbrkr.o)
 .debug_frame   0x0000000000001ff4       0x6c /home/slombardo/.arduino15/packages/adafruit/tools/arm-none-eabi-gcc/9-2019q4/bin/../lib/gcc/arm-none-eabi/9.2.1/../../../../arm-none-eabi/lib/thumb/v7e-m+fp/hard/libc_nano.a(lib_a-sprintf.o)
 .debug_frame   0x0000000000002060       0x40 /home/slombardo/.arduino15/packages/adafruit/tools/arm-none-eabi-gcc/9-2019q4/bin/../lib/gcc/arm-none-eabi/9.2.1/../../../../arm-none-eabi/lib/thumb/v7e-m+fp/hard/libc_nano.a(lib_a-wbuf.o)
 .debug_frame   0x00000000000020a0       0x2c /home/slombardo/.arduino15/packages/adafruit/tools/arm-none-eabi-gcc/9-2019q4/bin/../lib/gcc/arm-none-eabi/9.2.1/../../../../arm-none-eabi/lib/thumb/v7e-m+fp/hard/libc_nano.a(lib_a-wsetup.o)
 .debug_frame   0x00000000000020cc       0x7c /home/slombardo/.arduino15/packages/adafruit/tools/arm-none-eabi-gcc/9-2019q4/bin/../lib/gcc/arm-none-eabi/9.2.1/../../../../arm-none-eabi/lib/thumb/v7e-m+fp/hard/libc_nano.a(lib_a-dtoa.o)
 .debug_frame   0x0000000000002148       0x5c /home/slombardo/.arduino15/packages/adafruit/tools/arm-none-eabi-gcc/9-2019q4/bin/../lib/gcc/arm-none-eabi/9.2.1/../../../../arm-none-eabi/lib/thumb/v7e-m+fp/hard/libc_nano.a(lib_a-fflush.o)
 .debug_frame   0x00000000000021a4      0x14c /home/slombardo/.arduino15/packages/adafruit/tools/arm-none-eabi-gcc/9-2019q4/bin/../lib/gcc/arm-none-eabi/9.2.1/../../../../arm-none-eabi/lib/thumb/v7e-m+fp/hard/libc_nano.a(lib_a-findfp.o)
 .debug_frame   0x00000000000022f0       0x54 /home/slombardo/.arduino15/packages/adafruit/tools/arm-none-eabi-gcc/9-2019q4/bin/../lib/gcc/arm-none-eabi/9.2.1/../../../../arm-none-eabi/lib/thumb/v7e-m+fp/hard/libc_nano.a(lib_a-fwalk.o)
 .debug_frame   0x0000000000002344       0x40 /home/slombardo/.arduino15/packages/adafruit/tools/arm-none-eabi-gcc/9-2019q4/bin/../lib/gcc/arm-none-eabi/9.2.1/../../../../arm-none-eabi/lib/thumb/v7e-m+fp/hard/libc_nano.a(lib_a-localeconv.o)
 .debug_frame   0x0000000000002384       0xb0 /home/slombardo/.arduino15/packages/adafruit/tools/arm-none-eabi-gcc/9-2019q4/bin/../lib/gcc/arm-none-eabi/9.2.1/../../../../arm-none-eabi/lib/thumb/v7e-m+fp/hard/libc_nano.a(lib_a-lock.o)
 .debug_frame   0x0000000000002434       0x58 /home/slombardo/.arduino15/packages/adafruit/tools/arm-none-eabi-gcc/9-2019q4/bin/../lib/gcc/arm-none-eabi/9.2.1/../../../../arm-none-eabi/lib/thumb/v7e-m+fp/hard/libc_nano.a(lib_a-makebuf.o)
 .debug_frame   0x000000000000248c       0x30 /home/slombardo/.arduino15/packages/adafruit/tools/arm-none-eabi-gcc/9-2019q4/bin/../lib/gcc/arm-none-eabi/9.2.1/../../../../arm-none-eabi/lib/thumb/v7e-m+fp/hard/libc_nano.a(lib_a-mlock.o)
 .debug_frame   0x00000000000024bc      0x25c /home/slombardo/.arduino15/packages/adafruit/tools/arm-none-eabi-gcc/9-2019q4/bin/../lib/gcc/arm-none-eabi/9.2.1/../../../../arm-none-eabi/lib/thumb/v7e-m+fp/hard/libc_nano.a(lib_a-mprec.o)
 .debug_frame   0x0000000000002718       0x2c /home/slombardo/.arduino15/packages/adafruit/tools/arm-none-eabi-gcc/9-2019q4/bin/../lib/gcc/arm-none-eabi/9.2.1/../../../../arm-none-eabi/lib/thumb/v7e-m+fp/hard/libc_nano.a(lib_a-nano-callocr.o)
 .debug_frame   0x0000000000002744       0x90 /home/slombardo/.arduino15/packages/adafruit/tools/arm-none-eabi-gcc/9-2019q4/bin/../lib/gcc/arm-none-eabi/9.2.1/../../../../arm-none-eabi/lib/thumb/v7e-m+fp/hard/libc_nano.a(lib_a-nano-svfprintf.o)
 .debug_frame   0x00000000000027d4       0xac /home/slombardo/.arduino15/packages/adafruit/tools/arm-none-eabi-gcc/9-2019q4/bin/../lib/gcc/arm-none-eabi/9.2.1/../../../../arm-none-eabi/lib/thumb/v7e-m+fp/hard/libc_nano.a(lib_a-nano-vfprintf.o)
 .debug_frame   0x0000000000002880       0x3c /home/slombardo/.arduino15/packages/adafruit/tools/arm-none-eabi-gcc/9-2019q4/bin/../lib/gcc/arm-none-eabi/9.2.1/../../../../arm-none-eabi/lib/thumb/v7e-m+fp/hard/libc_nano.a(lib_a-putc.o)
 .debug_frame   0x00000000000028bc       0x5c /home/slombardo/.arduino15/packages/adafruit/tools/arm-none-eabi-gcc/9-2019q4/bin/../lib/gcc/arm-none-eabi/9.2.1/../../../../arm-none-eabi/lib/thumb/v7e-m+fp/hard/libc_nano.a(lib_a-reent.o)
 .debug_frame   0x0000000000002918       0x88 /home/slombardo/.arduino15/packages/adafruit/tools/arm-none-eabi-gcc/9-2019q4/bin/../lib/gcc/arm-none-eabi/9.2.1/../../../../arm-none-eabi/lib/thumb/v7e-m+fp/hard/libc_nano.a(lib_a-stdio.o)
 .debug_frame   0x00000000000029a0       0x2c /home/slombardo/.arduino15/packages/adafruit/tools/arm-none-eabi-gcc/9-2019q4/bin/../lib/gcc/arm-none-eabi/9.2.1/../../../../arm-none-eabi/lib/thumb/v7e-m+fp/hard/libc_nano.a(lib_a-writer.o)
 .debug_frame   0x00000000000029cc       0x2c /home/slombardo/.arduino15/packages/adafruit/tools/arm-none-eabi-gcc/9-2019q4/bin/../lib/gcc/arm-none-eabi/9.2.1/../../../../arm-none-eabi/lib/thumb/v7e-m+fp/hard/libc_nano.a(lib_a-closer.o)
 .debug_frame   0x00000000000029f8       0x2c /home/slombardo/.arduino15/packages/adafruit/tools/arm-none-eabi-gcc/9-2019q4/bin/../lib/gcc/arm-none-eabi/9.2.1/../../../../arm-none-eabi/lib/thumb/v7e-m+fp/hard/libc_nano.a(lib_a-fstatr.o)
 .debug_frame   0x0000000000002a24       0x2c /home/slombardo/.arduino15/packages/adafruit/tools/arm-none-eabi-gcc/9-2019q4/bin/../lib/gcc/arm-none-eabi/9.2.1/../../../../arm-none-eabi/lib/thumb/v7e-m+fp/hard/libc_nano.a(lib_a-isattyr.o)
 .debug_frame   0x0000000000002a50       0x48 /home/slombardo/.arduino15/packages/adafruit/tools/arm-none-eabi-gcc/9-2019q4/bin/../lib/gcc/arm-none-eabi/9.2.1/../../../../arm-none-eabi/lib/thumb/v7e-m+fp/hard/libc_nano.a(lib_a-locale.o)
 .debug_frame   0x0000000000002a98       0x2c /home/slombardo/.arduino15/packages/adafruit/tools/arm-none-eabi-gcc/9-2019q4/bin/../lib/gcc/arm-none-eabi/9.2.1/../../../../arm-none-eabi/lib/thumb/v7e-m+fp/hard/libc_nano.a(lib_a-lseekr.o)
 .debug_frame   0x0000000000002ac4       0x48 /home/slombardo/.arduino15/packages/adafruit/tools/arm-none-eabi-gcc/9-2019q4/bin/../lib/gcc/arm-none-eabi/9.2.1/../../../../arm-none-eabi/lib/thumb/v7e-m+fp/hard/libc_nano.a(lib_a-mbtowc_r.o)
 .debug_frame   0x0000000000002b0c       0x28 /home/slombardo/.arduino15/packages/adafruit/tools/arm-none-eabi-gcc/9-2019q4/bin/../lib/gcc/arm-none-eabi/9.2.1/../../../../arm-none-eabi/lib/thumb/v7e-m+fp/hard/libc_nano.a(lib_a-memmove.o)
 .debug_frame   0x0000000000002b34       0x3c /home/slombardo/.arduino15/packages/adafruit/tools/arm-none-eabi-gcc/9-2019q4/bin/../lib/gcc/arm-none-eabi/9.2.1/../../../../arm-none-eabi/lib/thumb/v7e-m+fp/hard/libc_nano.a(lib_a-nano-reallocr.o)
 .debug_frame   0x0000000000002b70       0x2c /home/slombardo/.arduino15/packages/adafruit/tools/arm-none-eabi-gcc/9-2019q4/bin/../lib/gcc/arm-none-eabi/9.2.1/../../../../arm-none-eabi/lib/thumb/v7e-m+fp/hard/libc_nano.a(lib_a-readr.o)
 .debug_frame   0x0000000000002b9c       0x3c /home/slombardo/.arduino15/packages/adafruit/tools/arm-none-eabi-gcc/9-2019q4/bin/../lib/gcc/arm-none-eabi/9.2.1/../../../../arm-none-eabi/lib/thumb/v7e-m+fp/hard/libc_nano.a(lib_a-wctomb_r.o)
 .debug_frame   0x0000000000002bd8       0x20 /home/slombardo/.arduino15/packages/adafruit/tools/arm-none-eabi-gcc/9-2019q4/bin/../lib/gcc/arm-none-eabi/9.2.1/../../../../arm-none-eabi/lib/thumb/v7e-m+fp/hard/libc_nano.a(lib_a-nano-msizer.o)
 .debug_frame   0x0000000000002bf8       0xac /home/slombardo/.arduino15/packages/adafruit/tools/arm-none-eabi-gcc/9-2019q4/bin/../lib/gcc/arm-none-eabi/9.2.1/thumb/v7e-m+fp/hard/libgcc.a(_arm_addsubdf3.o)
 .debug_frame   0x0000000000002ca4       0x50 /home/slombardo/.arduino15/packages/adafruit/tools/arm-none-eabi-gcc/9-2019q4/bin/../lib/gcc/arm-none-eabi/9.2.1/thumb/v7e-m+fp/hard/libgcc.a(_arm_muldivdf3.o)
 .debug_frame   0x0000000000002cf4       0xc4 /home/slombardo/.arduino15/packages/adafruit/tools/arm-none-eabi-gcc/9-2019q4/bin/../lib/gcc/arm-none-eabi/9.2.1/thumb/v7e-m+fp/hard/libgcc.a(_arm_cmpdf2.o)
 .debug_frame   0x0000000000002db8       0x20 /home/slombardo/.arduino15/packages/adafruit/tools/arm-none-eabi-gcc/9-2019q4/bin/../lib/gcc/arm-none-eabi/9.2.1/thumb/v7e-m+fp/hard/libgcc.a(_arm_unorddf2.o)
 .debug_frame   0x0000000000002dd8       0x24 /home/slombardo/.arduino15/packages/adafruit/tools/arm-none-eabi-gcc/9-2019q4/bin/../lib/gcc/arm-none-eabi/9.2.1/thumb/v7e-m+fp/hard/libgcc.a(_arm_fixdfsi.o)
 .debug_frame   0x0000000000002dfc       0x20 /home/slombardo/.arduino15/packages/adafruit/tools/arm-none-eabi-gcc/9-2019q4/bin/../lib/gcc/arm-none-eabi/9.2.1/../../../../arm-none-eabi/lib/thumb/v7e-m+fp/hard/libnosys.a(close.o)
 .debug_frame   0x0000000000002e1c       0x20 /home/slombardo/.arduino15/packages/adafruit/tools/arm-none-eabi-gcc/9-2019q4/bin/../lib/gcc/arm-none-eabi/9.2.1/../../../../arm-none-eabi/lib/thumb/v7e-m+fp/hard/libnosys.a(fstat.o)
 .debug_frame   0x0000000000002e3c       0x20 /home/slombardo/.arduino15/packages/adafruit/tools/arm-none-eabi-gcc/9-2019q4/bin/../lib/gcc/arm-none-eabi/9.2.1/../../../../arm-none-eabi/lib/thumb/v7e-m+fp/hard/libnosys.a(isatty.o)
 .debug_frame   0x0000000000002e5c       0x20 /home/slombardo/.arduino15/packages/adafruit/tools/arm-none-eabi-gcc/9-2019q4/bin/../lib/gcc/arm-none-eabi/9.2.1/../../../../arm-none-eabi/lib/thumb/v7e-m+fp/hard/libnosys.a(lseek.o)
 .debug_frame   0x0000000000002e7c       0x20 /home/slombardo/.arduino15/packages/adafruit/tools/arm-none-eabi-gcc/9-2019q4/bin/../lib/gcc/arm-none-eabi/9.2.1/../../../../arm-none-eabi/lib/thumb/v7e-m+fp/hard/libnosys.a(read.o)
 .debug_frame   0x0000000000002e9c       0x20 /home/slombardo/.arduino15/packages/adafruit/tools/arm-none-eabi-gcc/9-2019q4/bin/../lib/gcc/arm-none-eabi/9.2.1/../../../../arm-none-eabi/lib/thumb/v7e-m+fp/hard/libnosys.a(sbrk.o)
 .debug_frame   0x0000000000002ebc       0x20 /home/slombardo/.arduino15/packages/adafruit/tools/arm-none-eabi-gcc/9-2019q4/bin/../lib/gcc/arm-none-eabi/9.2.1/../../../../arm-none-eabi/lib/thumb/v7e-m+fp/hard/libnosys.a(_exit.o)

.debug_info     0x0000000000000000    0x3e257
 .debug_info    0x0000000000000000     0x57ef /home/slombardo/projects/BadgersRunFirmware/Build/sketch/keyboard.ino.cpp.o
 .debug_info    0x00000000000057ef      0x232 /home/slombardo/projects/BadgersRunFirmware/Build/core/variant.cpp.o
 .debug_info    0x0000000000005a21       0x26 /home/slombardo/projects/BadgersRunFirmware/Build/core/core.a(gcc_startup_nrf52.S.o)
 .debug_info    0x0000000000005a47      0xd59 /home/slombardo/projects/BadgersRunFirmware/Build/core/core.a(delay.c.o)
 .debug_info    0x00000000000067a0     0x4a44 /home/slombardo/projects/BadgersRunFirmware/Build/core/core.a(tasks.c.o)
 .debug_info    0x000000000000b1e4     0x26da /home/slombardo/projects/BadgersRunFirmware/Build/core/core.a(timers.c.o)
 .debug_info    0x000000000000d8be      0x90b /home/slombardo/projects/BadgersRunFirmware/Build/core/core.a(port_cmsis.c.o)
 .debug_info    0x000000000000e1c9     0x184b /home/slombardo/projects/BadgersRunFirmware/Build/core/core.a(port_cmsis_systick.c.o)
 .debug_info    0x000000000000fa14       0xfe /home/slombardo/projects/BadgersRunFirmware/Build/core/core.a(port.c.o)
 .debug_info    0x000000000000fb12       0x67 /home/slombardo/projects/BadgersRunFirmware/Build/core/core.a(hooks.c.o)
 .debug_info    0x000000000000fb79     0x1282 /home/slombardo/projects/BadgersRunFirmware/Build/core/core.a(system_nrf52.c.o)
 .debug_info    0x0000000000010dfb     0x205d /home/slombardo/projects/BadgersRunFirmware/Build/core/core.a(wiring.c.o)
 .debug_info    0x0000000000012e58      0xfdb /home/slombardo/projects/BadgersRunFirmware/Build/core/core.a(wiring_digital.c.o)
 .debug_info    0x0000000000013e33     0x848c /home/slombardo/projects/BadgersRunFirmware/Build/core/core.a(Print.cpp.o)
 .debug_info    0x000000000001c2bf     0x725c /home/slombardo/projects/BadgersRunFirmware/Build/core/core.a(Uart.cpp.o)
 .debug_info    0x000000000002351b     0x5c32 /home/slombardo/projects/BadgersRunFirmware/Build/core/core.a(main.cpp.o)
 .debug_info    0x000000000002914d     0x5e56 /home/slombardo/projects/BadgersRunFirmware/Build/core/core.a(rtos.cpp.o)
 .debug_info    0x000000000002efa3     0x6965 /home/slombardo/projects/BadgersRunFirmware/Build/core/core.a(debug.cpp.o)
 .debug_info    0x0000000000035908      0xbb5 /home/slombardo/projects/BadgersRunFirmware/Build/core/core.a(list.c.o)
 .debug_info    0x00000000000364bd      0xa92 /home/slombardo/projects/BadgersRunFirmware/Build/core/core.a(heap_3.c.o)
 .debug_info    0x0000000000036f4f     0x3fa3 /home/slombardo/projects/BadgersRunFirmware/Build/core/core.a(queue.c.o)
 .debug_info    0x000000000003aef2     0x161d /home/slombardo/projects/BadgersRunFirmware/Build/core/core.a(AdaCallback.c.o)
 .debug_info    0x000000000003c50f      0xffa /home/slombardo/projects/BadgersRunFirmware/Build/core/core.a(utilities.c.o)
 .debug_info    0x000000000003d509      0xd4e /home/slombardo/projects/BadgersRunFirmware/Build/core/core.a(RingBuffer.cpp.o)

.debug_abbrev   0x0000000000000000     0x6bfc
 .debug_abbrev  0x0000000000000000      0x73b /home/slombardo/projects/BadgersRunFirmware/Build/sketch/keyboard.ino.cpp.o
 .debug_abbrev  0x000000000000073b      0x109 /home/slombardo/projects/BadgersRunFirmware/Build/core/variant.cpp.o
 .debug_abbrev  0x0000000000000844       0x14 /home/slombardo/projects/BadgersRunFirmware/Build/core/core.a(gcc_startup_nrf52.S.o)
 .debug_abbrev  0x0000000000000858      0x2be /home/slombardo/projects/BadgersRunFirmware/Build/core/core.a(delay.c.o)
 .debug_abbrev  0x0000000000000b16      0x5ee /home/slombardo/projects/BadgersRunFirmware/Build/core/core.a(tasks.c.o)
 .debug_abbrev  0x0000000000001104      0x4c6 /home/slombardo/projects/BadgersRunFirmware/Build/core/core.a(timers.c.o)
 .debug_abbrev  0x00000000000015ca      0x2ec /home/slombardo/projects/BadgersRunFirmware/Build/core/core.a(port_cmsis.c.o)
 .debug_abbrev  0x00000000000018b6      0x44d /home/slombardo/projects/BadgersRunFirmware/Build/core/core.a(port_cmsis_systick.c.o)
 .debug_abbrev  0x0000000000001d03       0x80 /home/slombardo/projects/BadgersRunFirmware/Build/core/core.a(port.c.o)
 .debug_abbrev  0x0000000000001d83       0x4d /home/slombardo/projects/BadgersRunFirmware/Build/core/core.a(hooks.c.o)
 .debug_abbrev  0x0000000000001dd0      0x211 /home/slombardo/projects/BadgersRunFirmware/Build/core/core.a(system_nrf52.c.o)
 .debug_abbrev  0x0000000000001fe1      0x434 /home/slombardo/projects/BadgersRunFirmware/Build/core/core.a(wiring.c.o)
 .debug_abbrev  0x0000000000002415      0x394 /home/slombardo/projects/BadgersRunFirmware/Build/core/core.a(wiring_digital.c.o)
 .debug_abbrev  0x00000000000027a9      0x9da /home/slombardo/projects/BadgersRunFirmware/Build/core/core.a(Print.cpp.o)
 .debug_abbrev  0x0000000000003183      0xa64 /home/slombardo/projects/BadgersRunFirmware/Build/core/core.a(Uart.cpp.o)
 .debug_abbrev  0x0000000000003be7      0x8a1 /home/slombardo/projects/BadgersRunFirmware/Build/core/core.a(main.cpp.o)
 .debug_abbrev  0x0000000000004488      0x8dc /home/slombardo/projects/BadgersRunFirmware/Build/core/core.a(rtos.cpp.o)
 .debug_abbrev  0x0000000000004d64      0xa02 /home/slombardo/projects/BadgersRunFirmware/Build/core/core.a(debug.cpp.o)
 .debug_abbrev  0x0000000000005766      0x249 /home/slombardo/projects/BadgersRunFirmware/Build/core/core.a(list.c.o)
 .debug_abbrev  0x00000000000059af      0x2a8 /home/slombardo/projects/BadgersRunFirmware/Build/core/core.a(heap_3.c.o)
 .debug_abbrev  0x0000000000005c57      0x509 /home/slombardo/projects/BadgersRunFirmware/Build/core/core.a(queue.c.o)
 .debug_abbrev  0x0000000000006160      0x43f /home/slombardo/projects/BadgersRunFirmware/Build/core/core.a(AdaCallback.c.o)
 .debug_abbrev  0x000000000000659f      0x2fc /home/slombardo/projects/BadgersRunFirmware/Build/core/core.a(utilities.c.o)
 .debug_abbrev  0x000000000000689b      0x361 /home/slombardo/projects/BadgersRunFirmware/Build/core/core.a(RingBuffer.cpp.o)

.debug_loc      0x0000000000000000     0xf934
 .debug_loc     0x0000000000000000       0x6a /home/slombardo/projects/BadgersRunFirmware/Build/sketch/keyboard.ino.cpp.o
 .debug_loc     0x000000000000006a       0x64 /home/slombardo/projects/BadgersRunFirmware/Build/core/core.a(delay.c.o)
 .debug_loc     0x00000000000000ce     0x366c /home/slombardo/projects/BadgersRunFirmware/Build/core/core.a(tasks.c.o)
 .debug_loc     0x000000000000373a     0x130c /home/slombardo/projects/BadgersRunFirmware/Build/core/core.a(timers.c.o)
 .debug_loc     0x0000000000004a46      0x105 /home/slombardo/projects/BadgersRunFirmware/Build/core/core.a(port_cmsis.c.o)
 .debug_loc     0x0000000000004b4b      0x957 /home/slombardo/projects/BadgersRunFirmware/Build/core/core.a(port_cmsis_systick.c.o)
 .debug_loc     0x00000000000054a2      0x5b0 /home/slombardo/projects/BadgersRunFirmware/Build/core/core.a(system_nrf52.c.o)
 .debug_loc     0x0000000000005a52      0x1f3 /home/slombardo/projects/BadgersRunFirmware/Build/core/core.a(wiring.c.o)
 .debug_loc     0x0000000000005c45      0x548 /home/slombardo/projects/BadgersRunFirmware/Build/core/core.a(wiring_digital.c.o)
 .debug_loc     0x000000000000618d     0x4d19 /home/slombardo/projects/BadgersRunFirmware/Build/core/core.a(Print.cpp.o)
 .debug_loc     0x000000000000aea6      0xf20 /home/slombardo/projects/BadgersRunFirmware/Build/core/core.a(Uart.cpp.o)
 .debug_loc     0x000000000000bdc6       0x94 /home/slombardo/projects/BadgersRunFirmware/Build/core/core.a(main.cpp.o)
 .debug_loc     0x000000000000be5a      0x1b0 /home/slombardo/projects/BadgersRunFirmware/Build/core/core.a(rtos.cpp.o)
 .debug_loc     0x000000000000c00a      0x7aa /home/slombardo/projects/BadgersRunFirmware/Build/core/core.a(debug.cpp.o)
 .debug_loc     0x000000000000c7b4       0xbc /home/slombardo/projects/BadgersRunFirmware/Build/core/core.a(list.c.o)
 .debug_loc     0x000000000000c870       0x84 /home/slombardo/projects/BadgersRunFirmware/Build/core/core.a(heap_3.c.o)
 .debug_loc     0x000000000000c8f4     0x2902 /home/slombardo/projects/BadgersRunFirmware/Build/core/core.a(queue.c.o)
 .debug_loc     0x000000000000f1f6      0x4f1 /home/slombardo/projects/BadgersRunFirmware/Build/core/core.a(AdaCallback.c.o)
 .debug_loc     0x000000000000f6e7       0x5d /home/slombardo/projects/BadgersRunFirmware/Build/core/core.a(utilities.c.o)
 .debug_loc     0x000000000000f744      0x1f0 /home/slombardo/projects/BadgersRunFirmware/Build/core/core.a(RingBuffer.cpp.o)

.debug_aranges  0x0000000000000000      0x9d0
 .debug_aranges
                0x0000000000000000       0x28 /home/slombardo/projects/BadgersRunFirmware/Build/sketch/keyboard.ino.cpp.o
 .debug_aranges
                0x0000000000000028       0x20 /home/slombardo/projects/BadgersRunFirmware/Build/core/variant.cpp.o
 .debug_aranges
                0x0000000000000048       0x20 /home/slombardo/projects/BadgersRunFirmware/Build/core/core.a(gcc_startup_nrf52.S.o)
 .debug_aranges
                0x0000000000000068       0x38 /home/slombardo/projects/BadgersRunFirmware/Build/core/core.a(delay.c.o)
 .debug_aranges
                0x00000000000000a0      0x1d0 /home/slombardo/projects/BadgersRunFirmware/Build/core/core.a(tasks.c.o)
 .debug_aranges
                0x0000000000000270       0xa0 /home/slombardo/projects/BadgersRunFirmware/Build/core/core.a(timers.c.o)
 .debug_aranges
                0x0000000000000310       0x48 /home/slombardo/projects/BadgersRunFirmware/Build/core/core.a(port_cmsis.c.o)
 .debug_aranges
                0x0000000000000358       0x40 /home/slombardo/projects/BadgersRunFirmware/Build/core/core.a(port_cmsis_systick.c.o)
 .debug_aranges
                0x0000000000000398       0x30 /home/slombardo/projects/BadgersRunFirmware/Build/core/core.a(port.c.o)
 .debug_aranges
                0x00000000000003c8       0x30 /home/slombardo/projects/BadgersRunFirmware/Build/core/core.a(hooks.c.o)
 .debug_aranges
                0x00000000000003f8       0x28 /home/slombardo/projects/BadgersRunFirmware/Build/core/core.a(system_nrf52.c.o)
 .debug_aranges
                0x0000000000000420       0x68 /home/slombardo/projects/BadgersRunFirmware/Build/core/core.a(wiring.c.o)
 .debug_aranges
                0x0000000000000488       0x48 /home/slombardo/projects/BadgersRunFirmware/Build/core/core.a(wiring_digital.c.o)
 .debug_aranges
                0x00000000000004d0      0x108 /home/slombardo/projects/BadgersRunFirmware/Build/core/core.a(Print.cpp.o)
 .debug_aranges
                0x00000000000005d8       0xa8 /home/slombardo/projects/BadgersRunFirmware/Build/core/core.a(Uart.cpp.o)
 .debug_aranges
                0x0000000000000680       0x48 /home/slombardo/projects/BadgersRunFirmware/Build/core/core.a(main.cpp.o)
 .debug_aranges
                0x00000000000006c8       0x58 /home/slombardo/projects/BadgersRunFirmware/Build/core/core.a(rtos.cpp.o)
 .debug_aranges
                0x0000000000000720       0x78 /home/slombardo/projects/BadgersRunFirmware/Build/core/core.a(debug.cpp.o)
 .debug_aranges
                0x0000000000000798       0x40 /home/slombardo/projects/BadgersRunFirmware/Build/core/core.a(list.c.o)
 .debug_aranges
                0x00000000000007d8       0x28 /home/slombardo/projects/BadgersRunFirmware/Build/core/core.a(heap_3.c.o)
 .debug_aranges
                0x0000000000000800      0x108 /home/slombardo/projects/BadgersRunFirmware/Build/core/core.a(queue.c.o)
 .debug_aranges
                0x0000000000000908       0x40 /home/slombardo/projects/BadgersRunFirmware/Build/core/core.a(AdaCallback.c.o)
 .debug_aranges
                0x0000000000000948       0x30 /home/slombardo/projects/BadgersRunFirmware/Build/core/core.a(utilities.c.o)
 .debug_aranges
                0x0000000000000978       0x58 /home/slombardo/projects/BadgersRunFirmware/Build/core/core.a(RingBuffer.cpp.o)

.debug_ranges   0x0000000000000000     0x2e18
 .debug_ranges  0x0000000000000000       0x18 /home/slombardo/projects/BadgersRunFirmware/Build/sketch/keyboard.ino.cpp.o
 .debug_ranges  0x0000000000000018       0x10 /home/slombardo/projects/BadgersRunFirmware/Build/core/variant.cpp.o
 .debug_ranges  0x0000000000000028       0x28 /home/slombardo/projects/BadgersRunFirmware/Build/core/core.a(delay.c.o)
 .debug_ranges  0x0000000000000050      0x9c0 /home/slombardo/projects/BadgersRunFirmware/Build/core/core.a(tasks.c.o)
 .debug_ranges  0x0000000000000a10      0x2e0 /home/slombardo/projects/BadgersRunFirmware/Build/core/core.a(timers.c.o)
 .debug_ranges  0x0000000000000cf0       0x68 /home/slombardo/projects/BadgersRunFirmware/Build/core/core.a(port_cmsis.c.o)
 .debug_ranges  0x0000000000000d58      0x3c0 /home/slombardo/projects/BadgersRunFirmware/Build/core/core.a(port_cmsis_systick.c.o)
 .debug_ranges  0x0000000000001118       0x20 /home/slombardo/projects/BadgersRunFirmware/Build/core/core.a(port.c.o)
 .debug_ranges  0x0000000000001138       0x20 /home/slombardo/projects/BadgersRunFirmware/Build/core/core.a(hooks.c.o)
 .debug_ranges  0x0000000000001158      0x138 /home/slombardo/projects/BadgersRunFirmware/Build/core/core.a(system_nrf52.c.o)
 .debug_ranges  0x0000000000001290      0x120 /home/slombardo/projects/BadgersRunFirmware/Build/core/core.a(wiring.c.o)
 .debug_ranges  0x00000000000013b0      0x120 /home/slombardo/projects/BadgersRunFirmware/Build/core/core.a(wiring_digital.c.o)
 .debug_ranges  0x00000000000014d0      0xa10 /home/slombardo/projects/BadgersRunFirmware/Build/core/core.a(Print.cpp.o)
 .debug_ranges  0x0000000000001ee0      0x338 /home/slombardo/projects/BadgersRunFirmware/Build/core/core.a(Uart.cpp.o)
 .debug_ranges  0x0000000000002218       0x38 /home/slombardo/projects/BadgersRunFirmware/Build/core/core.a(main.cpp.o)
 .debug_ranges  0x0000000000002250       0x98 /home/slombardo/projects/BadgersRunFirmware/Build/core/core.a(rtos.cpp.o)
 .debug_ranges  0x00000000000022e8      0x1b0 /home/slombardo/projects/BadgersRunFirmware/Build/core/core.a(debug.cpp.o)
 .debug_ranges  0x0000000000002498       0x30 /home/slombardo/projects/BadgersRunFirmware/Build/core/core.a(list.c.o)
 .debug_ranges  0x00000000000024c8       0x18 /home/slombardo/projects/BadgersRunFirmware/Build/core/core.a(heap_3.c.o)
 .debug_ranges  0x00000000000024e0      0x700 /home/slombardo/projects/BadgersRunFirmware/Build/core/core.a(queue.c.o)
 .debug_ranges  0x0000000000002be0      0x158 /home/slombardo/projects/BadgersRunFirmware/Build/core/core.a(AdaCallback.c.o)
 .debug_ranges  0x0000000000002d38       0x68 /home/slombardo/projects/BadgersRunFirmware/Build/core/core.a(utilities.c.o)
 .debug_ranges  0x0000000000002da0       0x78 /home/slombardo/projects/BadgersRunFirmware/Build/core/core.a(RingBuffer.cpp.o)

.debug_line     0x0000000000000000    0x1184b
 .debug_line    0x0000000000000000      0x72a /home/slombardo/projects/BadgersRunFirmware/Build/sketch/keyboard.ino.cpp.o
 .debug_line    0x000000000000072a      0x30f /home/slombardo/projects/BadgersRunFirmware/Build/core/variant.cpp.o
 .debug_line    0x0000000000000a39       0xc3 /home/slombardo/projects/BadgersRunFirmware/Build/core/core.a(gcc_startup_nrf52.S.o)
 .debug_line    0x0000000000000afc      0x57c /home/slombardo/projects/BadgersRunFirmware/Build/core/core.a(delay.c.o)
 .debug_line    0x0000000000001078     0x36e2 /home/slombardo/projects/BadgersRunFirmware/Build/core/core.a(tasks.c.o)
 .debug_line    0x000000000000475a      0xf08 /home/slombardo/projects/BadgersRunFirmware/Build/core/core.a(timers.c.o)
 .debug_line    0x0000000000005662      0x4e8 /home/slombardo/projects/BadgersRunFirmware/Build/core/core.a(port_cmsis.c.o)
 .debug_line    0x0000000000005b4a      0xc6c /home/slombardo/projects/BadgersRunFirmware/Build/core/core.a(port_cmsis_systick.c.o)
 .debug_line    0x00000000000067b6      0x2b5 /home/slombardo/projects/BadgersRunFirmware/Build/core/core.a(port.c.o)
 .debug_line    0x0000000000006a6b       0xc8 /home/slombardo/projects/BadgersRunFirmware/Build/core/core.a(hooks.c.o)
 .debug_line    0x0000000000006b33      0x774 /home/slombardo/projects/BadgersRunFirmware/Build/core/core.a(system_nrf52.c.o)
 .debug_line    0x00000000000072a7      0x805 /home/slombardo/projects/BadgersRunFirmware/Build/core/core.a(wiring.c.o)
 .debug_line    0x0000000000007aac      0x729 /home/slombardo/projects/BadgersRunFirmware/Build/core/core.a(wiring_digital.c.o)
 .debug_line    0x00000000000081d5     0x19e2 /home/slombardo/projects/BadgersRunFirmware/Build/core/core.a(Print.cpp.o)
 .debug_line    0x0000000000009bb7     0x10da /home/slombardo/projects/BadgersRunFirmware/Build/core/core.a(Uart.cpp.o)
 .debug_line    0x000000000000ac91      0x98c /home/slombardo/projects/BadgersRunFirmware/Build/core/core.a(main.cpp.o)
 .debug_line    0x000000000000b61d      0xa31 /home/slombardo/projects/BadgersRunFirmware/Build/core/core.a(rtos.cpp.o)
 .debug_line    0x000000000000c04e      0xf49 /home/slombardo/projects/BadgersRunFirmware/Build/core/core.a(debug.cpp.o)
 .debug_line    0x000000000000cf97      0x625 /home/slombardo/projects/BadgersRunFirmware/Build/core/core.a(list.c.o)
 .debug_line    0x000000000000d5bc      0x465 /home/slombardo/projects/BadgersRunFirmware/Build/core/core.a(heap_3.c.o)
 .debug_line    0x000000000000da21     0x2aca /home/slombardo/projects/BadgersRunFirmware/Build/core/core.a(queue.c.o)
 .debug_line    0x00000000000104eb      0xa65 /home/slombardo/projects/BadgersRunFirmware/Build/core/core.a(AdaCallback.c.o)
 .debug_line    0x0000000000010f50      0x576 /home/slombardo/projects/BadgersRunFirmware/Build/core/core.a(utilities.c.o)
 .debug_line    0x00000000000114c6      0x385 /home/slombardo/projects/BadgersRunFirmware/Build/core/core.a(RingBuffer.cpp.o)

.debug_str      0x0000000000000000     0x8721
 .debug_str     0x0000000000000000     0x3313 /home/slombardo/projects/BadgersRunFirmware/Build/sketch/keyboard.ino.cpp.o
                                       0x3522 (size before relaxing)
 .debug_str     0x0000000000003313       0x8d /home/slombardo/projects/BadgersRunFirmware/Build/core/variant.cpp.o
                                        0x31f (size before relaxing)
 .debug_str     0x00000000000033a0       0x77 /home/slombardo/projects/BadgersRunFirmware/Build/core/core.a(gcc_startup_nrf52.S.o)
                                         0xc5 (size before relaxing)
 .debug_str     0x0000000000003417      0x26b /home/slombardo/projects/BadgersRunFirmware/Build/core/core.a(delay.c.o)
                                        0x846 (size before relaxing)
 .debug_str     0x0000000000003682     0x11c7 /home/slombardo/projects/BadgersRunFirmware/Build/core/core.a(tasks.c.o)
                                       0x18fa (size before relaxing)
 .debug_str     0x0000000000004849      0x71d /home/slombardo/projects/BadgersRunFirmware/Build/core/core.a(timers.c.o)
                                       0x10d5 (size before relaxing)
 .debug_str     0x0000000000004f66      0x3ff /home/slombardo/projects/BadgersRunFirmware/Build/core/core.a(port_cmsis.c.o)
                                        0x79b (size before relaxing)
 .debug_str     0x0000000000005365      0x99d /home/slombardo/projects/BadgersRunFirmware/Build/core/core.a(port_cmsis_systick.c.o)
                                       0x118e (size before relaxing)
 .debug_str     0x0000000000005d02       0x8c /home/slombardo/projects/BadgersRunFirmware/Build/core/core.a(port.c.o)
                                        0x2b5 (size before relaxing)
 .debug_str     0x0000000000005d8e       0x6d /home/slombardo/projects/BadgersRunFirmware/Build/core/core.a(hooks.c.o)
                                        0x1aa (size before relaxing)
 .debug_str     0x0000000000005dfb      0x445 /home/slombardo/projects/BadgersRunFirmware/Build/core/core.a(system_nrf52.c.o)
                                        0x756 (size before relaxing)
 .debug_str     0x0000000000006240      0x3b6 /home/slombardo/projects/BadgersRunFirmware/Build/core/core.a(wiring.c.o)
                                       0x1576 (size before relaxing)
 .debug_str     0x00000000000065f6       0x8b /home/slombardo/projects/BadgersRunFirmware/Build/core/core.a(wiring_digital.c.o)
                                        0x7db (size before relaxing)
 .debug_str     0x0000000000006681      0x4cb /home/slombardo/projects/BadgersRunFirmware/Build/core/core.a(Print.cpp.o)
                                       0x3996 (size before relaxing)
 .debug_str     0x0000000000006b4c      0x754 /home/slombardo/projects/BadgersRunFirmware/Build/core/core.a(Uart.cpp.o)
                                       0x40c8 (size before relaxing)
 .debug_str     0x00000000000072a0      0x132 /home/slombardo/projects/BadgersRunFirmware/Build/core/core.a(main.cpp.o)
                                       0x3716 (size before relaxing)
 .debug_str     0x00000000000073d2      0x1ac /home/slombardo/projects/BadgersRunFirmware/Build/core/core.a(rtos.cpp.o)
                                       0x3883 (size before relaxing)
 .debug_str     0x000000000000757e      0x825 /home/slombardo/projects/BadgersRunFirmware/Build/core/core.a(debug.cpp.o)
                                       0x3e0f (size before relaxing)
 .debug_str     0x0000000000007da3       0xa6 /home/slombardo/projects/BadgersRunFirmware/Build/core/core.a(list.c.o)
                                        0x79f (size before relaxing)
 .debug_str     0x0000000000007e49       0x84 /home/slombardo/projects/BadgersRunFirmware/Build/core/core.a(heap_3.c.o)
                                        0x6ee (size before relaxing)
 .debug_str     0x0000000000007ecd      0x544 /home/slombardo/projects/BadgersRunFirmware/Build/core/core.a(queue.c.o)
                                       0x10f3 (size before relaxing)
 .debug_str     0x0000000000008411      0x1fd /home/slombardo/projects/BadgersRunFirmware/Build/core/core.a(AdaCallback.c.o)
                                        0xaee (size before relaxing)
 .debug_str     0x000000000000860e       0x9c /home/slombardo/projects/BadgersRunFirmware/Build/core/core.a(utilities.c.o)
                                        0x8cb (size before relaxing)
 .debug_str     0x00000000000086aa       0x77 /home/slombardo/projects/BadgersRunFirmware/Build/core/core.a(RingBuffer.cpp.o)
                                        0x7fb (size before relaxing)

.stab           0x0000000000000000       0x84
 .stab          0x0000000000000000       0x24 /home/slombardo/.arduino15/packages/adafruit/tools/arm-none-eabi-gcc/9-2019q4/bin/../lib/gcc/arm-none-eabi/9.2.1/../../../../arm-none-eabi/lib/thumb/v7e-m+fp/hard/libnosys.a(close.o)
 .stab          0x0000000000000024       0x18 /home/slombardo/.arduino15/packages/adafruit/tools/arm-none-eabi-gcc/9-2019q4/bin/../lib/gcc/arm-none-eabi/9.2.1/../../../../arm-none-eabi/lib/thumb/v7e-m+fp/hard/libnosys.a(fstat.o)
                                         0x24 (size before relaxing)
 .stab          0x000000000000003c       0x18 /home/slombardo/.arduino15/packages/adafruit/tools/arm-none-eabi-gcc/9-2019q4/bin/../lib/gcc/arm-none-eabi/9.2.1/../../../../arm-none-eabi/lib/thumb/v7e-m+fp/hard/libnosys.a(isatty.o)
                                         0x24 (size before relaxing)
 .stab          0x0000000000000054       0x18 /home/slombardo/.arduino15/packages/adafruit/tools/arm-none-eabi-gcc/9-2019q4/bin/../lib/gcc/arm-none-eabi/9.2.1/../../../../arm-none-eabi/lib/thumb/v7e-m+fp/hard/libnosys.a(lseek.o)
                                         0x24 (size before relaxing)
 .stab          0x000000000000006c       0x18 /home/slombardo/.arduino15/packages/adafruit/tools/arm-none-eabi-gcc/9-2019q4/bin/../lib/gcc/arm-none-eabi/9.2.1/../../../../arm-none-eabi/lib/thumb/v7e-m+fp/hard/libnosys.a(read.o)
                                         0x24 (size before relaxing)

.stabstr        0x0000000000000000      0x117
 .stabstr       0x0000000000000000      0x117 /home/slombardo/.arduino15/packages/adafruit/tools/arm-none-eabi-gcc/9-2019q4/bin/../lib/gcc/arm-none-eabi/9.2.1/../../../../arm-none-eabi/lib/thumb/v7e-m+fp/hard/libnosys.a(close.o)

Cross Reference Table

Symbol                                            File
Bluefruit_printInfo()                             /home/slombardo/projects/BadgersRunFirmware/Build/core/core.a(main.cpp.o)
BusFault_Handler                                  /home/slombardo/projects/BadgersRunFirmware/Build/core/core.a(gcc_startup_nrf52.S.o)
CCM_AAR_IRQHandler                                /home/slombardo/projects/BadgersRunFirmware/Build/core/core.a(gcc_startup_nrf52.S.o)
COMP_LPCOMP_IRQHandler                            /home/slombardo/projects/BadgersRunFirmware/Build/core/core.a(gcc_startup_nrf52.S.o)
DebugMon_Handler                                  /home/slombardo/projects/BadgersRunFirmware/Build/core/core.a(gcc_startup_nrf52.S.o)
Default_Handler                                   /home/slombardo/projects/BadgersRunFirmware/Build/core/core.a(gcc_startup_nrf52.S.o)
ECB_IRQHandler                                    /home/slombardo/projects/BadgersRunFirmware/Build/core/core.a(gcc_startup_nrf52.S.o)
FPU_IRQHandler                                    /home/slombardo/projects/BadgersRunFirmware/Build/core/core.a(gcc_startup_nrf52.S.o)
GPIOTE_IRQHandler                                 /home/slombardo/projects/BadgersRunFirmware/Build/core/core.a(gcc_startup_nrf52.S.o)
HardFault_Handler                                 /home/slombardo/projects/BadgersRunFirmware/Build/core/core.a(debug.cpp.o)
                                                  /home/slombardo/projects/BadgersRunFirmware/Build/core/core.a(gcc_startup_nrf52.S.o)
I2S_IRQHandler                                    /home/slombardo/projects/BadgersRunFirmware/Build/core/core.a(gcc_startup_nrf52.S.o)
MWU_IRQHandler                                    /home/slombardo/projects/BadgersRunFirmware/Build/core/core.a(gcc_startup_nrf52.S.o)
MemoryManagement_Handler                          /home/slombardo/projects/BadgersRunFirmware/Build/core/core.a(gcc_startup_nrf52.S.o)
NFCT_IRQHandler                                   /home/slombardo/projects/BadgersRunFirmware/Build/core/core.a(gcc_startup_nrf52.S.o)
NMI_Handler                                       /home/slombardo/projects/BadgersRunFirmware/Build/core/core.a(gcc_startup_nrf52.S.o)
PDM_IRQHandler                                    /home/slombardo/projects/BadgersRunFirmware/Build/core/core.a(gcc_startup_nrf52.S.o)
POWER_CLOCK_IRQHandler                            /home/slombardo/projects/BadgersRunFirmware/Build/core/core.a(gcc_startup_nrf52.S.o)
PWM0_IRQHandler                                   /home/slombardo/projects/BadgersRunFirmware/Build/core/core.a(gcc_startup_nrf52.S.o)
PWM1_IRQHandler                                   /home/slombardo/projects/BadgersRunFirmware/Build/core/core.a(gcc_startup_nrf52.S.o)
PWM2_IRQHandler                                   /home/slombardo/projects/BadgersRunFirmware/Build/core/core.a(gcc_startup_nrf52.S.o)
PendSV_Handler                                    /home/slombardo/projects/BadgersRunFirmware/Build/core/core.a(port.c.o)
                                                  /home/slombardo/projects/BadgersRunFirmware/Build/core/core.a(gcc_startup_nrf52.S.o)
Print::availableForWrite()                        /home/slombardo/projects/BadgersRunFirmware/Build/core/core.a(Print.cpp.o)
                                                  /home/slombardo/projects/BadgersRunFirmware/Build/core/core.a(Uart.cpp.o)
Print::print(Printable const&)                    /home/slombardo/projects/BadgersRunFirmware/Build/core/core.a(Print.cpp.o)
Print::print(String const&)                       /home/slombardo/projects/BadgersRunFirmware/Build/core/core.a(Print.cpp.o)
Print::print(__FlashStringHelper const*)          /home/slombardo/projects/BadgersRunFirmware/Build/core/core.a(Print.cpp.o)
Print::print(char const*)                         /home/slombardo/projects/BadgersRunFirmware/Build/core/core.a(Print.cpp.o)
Print::print(char)                                /home/slombardo/projects/BadgersRunFirmware/Build/core/core.a(Print.cpp.o)
Print::print(double, int)                         /home/slombardo/projects/BadgersRunFirmware/Build/core/core.a(Print.cpp.o)
Print::print(int, int)                            /home/slombardo/projects/BadgersRunFirmware/Build/core/core.a(Print.cpp.o)
Print::print(long, int)                           /home/slombardo/projects/BadgersRunFirmware/Build/core/core.a(Print.cpp.o)
Print::print(unsigned char, int)                  /home/slombardo/projects/BadgersRunFirmware/Build/core/core.a(Print.cpp.o)
Print::print(unsigned int, int)                   /home/slombardo/projects/BadgersRunFirmware/Build/core/core.a(Print.cpp.o)
Print::print(unsigned long, int)                  /home/slombardo/projects/BadgersRunFirmware/Build/core/core.a(Print.cpp.o)
Print::printBuffer(unsigned char const*, int, char, int) /home/slombardo/projects/BadgersRunFirmware/Build/core/core.a(Print.cpp.o)
Print::printBufferReverse(unsigned char const*, int, char, int) /home/slombardo/projects/BadgersRunFirmware/Build/core/core.a(Print.cpp.o)
Print::printFloat(double, unsigned char)          /home/slombardo/projects/BadgersRunFirmware/Build/core/core.a(Print.cpp.o)
Print::printNumber(unsigned long, unsigned char)  /home/slombardo/projects/BadgersRunFirmware/Build/core/core.a(Print.cpp.o)
Print::printf(char const*, ...)                   /home/slombardo/projects/BadgersRunFirmware/Build/core/core.a(Print.cpp.o)
Print::println()                                  /home/slombardo/projects/BadgersRunFirmware/Build/core/core.a(Print.cpp.o)
Print::println(Printable const&)                  /home/slombardo/projects/BadgersRunFirmware/Build/core/core.a(Print.cpp.o)
Print::println(String const&)                     /home/slombardo/projects/BadgersRunFirmware/Build/core/core.a(Print.cpp.o)
Print::println(__FlashStringHelper const*)        /home/slombardo/projects/BadgersRunFirmware/Build/core/core.a(Print.cpp.o)
Print::println(char const*)                       /home/slombardo/projects/BadgersRunFirmware/Build/core/core.a(Print.cpp.o)
Print::println(char)                              /home/slombardo/projects/BadgersRunFirmware/Build/core/core.a(Print.cpp.o)
Print::println(double, int)                       /home/slombardo/projects/BadgersRunFirmware/Build/core/core.a(Print.cpp.o)
Print::println(int, int)                          /home/slombardo/projects/BadgersRunFirmware/Build/core/core.a(Print.cpp.o)
                                                  /home/slombardo/projects/BadgersRunFirmware/Build/sketch/keyboard.ino.cpp.o
Print::println(long, int)                         /home/slombardo/projects/BadgersRunFirmware/Build/core/core.a(Print.cpp.o)
Print::println(unsigned char, int)                /home/slombardo/projects/BadgersRunFirmware/Build/core/core.a(Print.cpp.o)
Print::println(unsigned int, int)                 /home/slombardo/projects/BadgersRunFirmware/Build/core/core.a(Print.cpp.o)
Print::println(unsigned long, int)                /home/slombardo/projects/BadgersRunFirmware/Build/core/core.a(Print.cpp.o)
Print::write(unsigned char const*, unsigned int)  /home/slombardo/projects/BadgersRunFirmware/Build/core/core.a(Print.cpp.o)
QDEC_IRQHandler                                   /home/slombardo/projects/BadgersRunFirmware/Build/core/core.a(gcc_startup_nrf52.S.o)
RADIO_IRQHandler                                  /home/slombardo/projects/BadgersRunFirmware/Build/core/core.a(gcc_startup_nrf52.S.o)
RNG_IRQHandler                                    /home/slombardo/projects/BadgersRunFirmware/Build/core/core.a(gcc_startup_nrf52.S.o)
RTC0_IRQHandler                                   /home/slombardo/projects/BadgersRunFirmware/Build/core/core.a(gcc_startup_nrf52.S.o)
RTC1_IRQHandler                                   /home/slombardo/projects/BadgersRunFirmware/Build/core/core.a(port_cmsis_systick.c.o)
                                                  /home/slombardo/projects/BadgersRunFirmware/Build/core/core.a(gcc_startup_nrf52.S.o)
RTC2_IRQHandler                                   /home/slombardo/projects/BadgersRunFirmware/Build/core/core.a(gcc_startup_nrf52.S.o)
Reset_Handler                                     /home/slombardo/projects/BadgersRunFirmware/Build/core/core.a(gcc_startup_nrf52.S.o)
RingBuffer::RingBuffer()                          /home/slombardo/projects/BadgersRunFirmware/Build/core/core.a(RingBuffer.cpp.o)
                                                  /home/slombardo/projects/BadgersRunFirmware/Build/core/core.a(Uart.cpp.o)
RingBuffer::RingBuffer()                          /home/slombardo/projects/BadgersRunFirmware/Build/core/core.a(RingBuffer.cpp.o)
RingBuffer::available()                           /home/slombardo/projects/BadgersRunFirmware/Build/core/core.a(RingBuffer.cpp.o)
                                                  /home/slombardo/projects/BadgersRunFirmware/Build/core/core.a(Uart.cpp.o)
RingBuffer::clear()                               /home/slombardo/projects/BadgersRunFirmware/Build/core/core.a(RingBuffer.cpp.o)
                                                  /home/slombardo/projects/BadgersRunFirmware/Build/core/core.a(Uart.cpp.o)
RingBuffer::isFull()                              /home/slombardo/projects/BadgersRunFirmware/Build/core/core.a(RingBuffer.cpp.o)
RingBuffer::nextIndex(int)                        /home/slombardo/projects/BadgersRunFirmware/Build/core/core.a(RingBuffer.cpp.o)
RingBuffer::peek()                                /home/slombardo/projects/BadgersRunFirmware/Build/core/core.a(RingBuffer.cpp.o)
                                                  /home/slombardo/projects/BadgersRunFirmware/Build/core/core.a(Uart.cpp.o)
RingBuffer::read_char()                           /home/slombardo/projects/BadgersRunFirmware/Build/core/core.a(RingBuffer.cpp.o)
                                                  /home/slombardo/projects/BadgersRunFirmware/Build/core/core.a(Uart.cpp.o)
RingBuffer::store_char(unsigned char)             /home/slombardo/projects/BadgersRunFirmware/Build/core/core.a(RingBuffer.cpp.o)
                                                  /home/slombardo/projects/BadgersRunFirmware/Build/core/core.a(Uart.cpp.o)
SAADC_IRQHandler                                  /home/slombardo/projects/BadgersRunFirmware/Build/core/core.a(gcc_startup_nrf52.S.o)
SPIM0_SPIS0_TWIM0_TWIS0_SPI0_TWI0_IRQHandler      /home/slombardo/projects/BadgersRunFirmware/Build/core/core.a(gcc_startup_nrf52.S.o)
SPIM1_SPIS1_TWIM1_TWIS1_SPI1_TWI1_IRQHandler      /home/slombardo/projects/BadgersRunFirmware/Build/core/core.a(gcc_startup_nrf52.S.o)
SPIM2_SPIS2_SPI2_IRQHandler                       /home/slombardo/projects/BadgersRunFirmware/Build/core/core.a(gcc_startup_nrf52.S.o)
SVC_Handler                                       /home/slombardo/projects/BadgersRunFirmware/Build/core/core.a(port.c.o)
                                                  /home/slombardo/projects/BadgersRunFirmware/Build/core/core.a(gcc_startup_nrf52.S.o)
SWI0_EGU0_IRQHandler                              /home/slombardo/projects/BadgersRunFirmware/Build/core/core.a(gcc_startup_nrf52.S.o)
SWI1_EGU1_IRQHandler                              /home/slombardo/projects/BadgersRunFirmware/Build/core/core.a(gcc_startup_nrf52.S.o)
SWI2_EGU2_IRQHandler                              /home/slombardo/projects/BadgersRunFirmware/Build/core/core.a(gcc_startup_nrf52.S.o)
SWI3_EGU3_IRQHandler                              /home/slombardo/projects/BadgersRunFirmware/Build/core/core.a(gcc_startup_nrf52.S.o)
SWI4_EGU4_IRQHandler                              /home/slombardo/projects/BadgersRunFirmware/Build/core/core.a(gcc_startup_nrf52.S.o)
SWI5_EGU5_IRQHandler                              /home/slombardo/projects/BadgersRunFirmware/Build/core/core.a(gcc_startup_nrf52.S.o)
Scheduler                                         /home/slombardo/projects/BadgersRunFirmware/Build/core/core.a(rtos.cpp.o)
SchedulerRTOS::SchedulerRTOS()                    /home/slombardo/projects/BadgersRunFirmware/Build/core/core.a(rtos.cpp.o)
SchedulerRTOS::SchedulerRTOS()                    /home/slombardo/projects/BadgersRunFirmware/Build/core/core.a(rtos.cpp.o)
SchedulerRTOS::startLoop(void (*)(), unsigned long, unsigned long, char const*) /home/slombardo/projects/BadgersRunFirmware/Build/core/core.a(rtos.cpp.o)
Serial                                            /home/slombardo/projects/BadgersRunFirmware/Build/core/core.a(Uart.cpp.o)
                                                  /home/slombardo/projects/BadgersRunFirmware/Build/core/core.a(main.cpp.o)
                                                  /home/slombardo/projects/BadgersRunFirmware/Build/sketch/keyboard.ino.cpp.o
SysTick_Handler                                   /home/slombardo/projects/BadgersRunFirmware/Build/core/core.a(gcc_startup_nrf52.S.o)
SystemCoreClock                                   /home/slombardo/projects/BadgersRunFirmware/Build/core/core.a(system_nrf52.c.o)
SystemCoreClockUpdate                             /home/slombardo/projects/BadgersRunFirmware/Build/core/core.a(system_nrf52.c.o)
SystemInit                                        /home/slombardo/projects/BadgersRunFirmware/Build/core/core.a(system_nrf52.c.o)
                                                  /home/slombardo/projects/BadgersRunFirmware/Build/core/core.a(gcc_startup_nrf52.S.o)
TEMP_IRQHandler                                   /home/slombardo/projects/BadgersRunFirmware/Build/core/core.a(gcc_startup_nrf52.S.o)
TIMER0_IRQHandler                                 /home/slombardo/projects/BadgersRunFirmware/Build/core/core.a(gcc_startup_nrf52.S.o)
TIMER1_IRQHandler                                 /home/slombardo/projects/BadgersRunFirmware/Build/core/core.a(gcc_startup_nrf52.S.o)
TIMER2_IRQHandler                                 /home/slombardo/projects/BadgersRunFirmware/Build/core/core.a(gcc_startup_nrf52.S.o)
TIMER3_IRQHandler                                 /home/slombardo/projects/BadgersRunFirmware/Build/core/core.a(gcc_startup_nrf52.S.o)
TIMER4_IRQHandler                                 /home/slombardo/projects/BadgersRunFirmware/Build/core/core.a(gcc_startup_nrf52.S.o)
UARTE0_UART0_IRQHandler                           /home/slombardo/projects/BadgersRunFirmware/Build/core/core.a(Uart.cpp.o)
                                                  /home/slombardo/projects/BadgersRunFirmware/Build/core/core.a(gcc_startup_nrf52.S.o)
Uart::IrqHandler()                                /home/slombardo/projects/BadgersRunFirmware/Build/core/core.a(Uart.cpp.o)
Uart::Uart(NRF_UARTE_Type*, IRQn_Type, unsigned char, unsigned char) /home/slombardo/projects/BadgersRunFirmware/Build/core/core.a(Uart.cpp.o)
Uart::Uart(NRF_UARTE_Type*, IRQn_Type, unsigned char, unsigned char) /home/slombardo/projects/BadgersRunFirmware/Build/core/core.a(Uart.cpp.o)
Uart::Uart(NRF_UARTE_Type*, IRQn_Type, unsigned char, unsigned char, unsigned char, unsigned char) /home/slombardo/projects/BadgersRunFirmware/Build/core/core.a(Uart.cpp.o)
Uart::Uart(NRF_UARTE_Type*, IRQn_Type, unsigned char, unsigned char, unsigned char, unsigned char) /home/slombardo/projects/BadgersRunFirmware/Build/core/core.a(Uart.cpp.o)
Uart::available()                                 /home/slombardo/projects/BadgersRunFirmware/Build/core/core.a(Uart.cpp.o)
Uart::begin(unsigned long)                        /home/slombardo/projects/BadgersRunFirmware/Build/core/core.a(Uart.cpp.o)
                                                  /home/slombardo/projects/BadgersRunFirmware/Build/core/core.a(main.cpp.o)
                                                  /home/slombardo/projects/BadgersRunFirmware/Build/sketch/keyboard.ino.cpp.o
Uart::begin(unsigned long, unsigned short)        /home/slombardo/projects/BadgersRunFirmware/Build/core/core.a(Uart.cpp.o)
Uart::end()                                       /home/slombardo/projects/BadgersRunFirmware/Build/core/core.a(Uart.cpp.o)
Uart::flush()                                     /home/slombardo/projects/BadgersRunFirmware/Build/core/core.a(Uart.cpp.o)
Uart::operator bool()                             /home/slombardo/projects/BadgersRunFirmware/Build/core/core.a(Uart.cpp.o)
Uart::peek()                                      /home/slombardo/projects/BadgersRunFirmware/Build/core/core.a(Uart.cpp.o)
Uart::read()                                      /home/slombardo/projects/BadgersRunFirmware/Build/core/core.a(Uart.cpp.o)
Uart::setPins(unsigned char, unsigned char)       /home/slombardo/projects/BadgersRunFirmware/Build/core/core.a(Uart.cpp.o)
Uart::write(unsigned char const*, unsigned int)   /home/slombardo/projects/BadgersRunFirmware/Build/core/core.a(Uart.cpp.o)
                                                  /home/slombardo/projects/BadgersRunFirmware/Build/core/core.a(main.cpp.o)
Uart::write(unsigned char)                        /home/slombardo/projects/BadgersRunFirmware/Build/core/core.a(Uart.cpp.o)
UsageFault_Handler                                /home/slombardo/projects/BadgersRunFirmware/Build/core/core.a(gcc_startup_nrf52.S.o)
WDT_IRQHandler                                    /home/slombardo/projects/BadgersRunFirmware/Build/core/core.a(gcc_startup_nrf52.S.o)
_Balloc                                           /home/slombardo/.arduino15/packages/adafruit/tools/arm-none-eabi-gcc/9-2019q4/bin/../lib/gcc/arm-none-eabi/9.2.1/../../../../arm-none-eabi/lib/thumb/v7e-m+fp/hard/libc_nano.a(lib_a-mprec.o)
                                                  /home/slombardo/.arduino15/packages/adafruit/tools/arm-none-eabi-gcc/9-2019q4/bin/../lib/gcc/arm-none-eabi/9.2.1/../../../../arm-none-eabi/lib/thumb/v7e-m+fp/hard/libc_nano.a(lib_a-dtoa.o)
_Bfree                                            /home/slombardo/.arduino15/packages/adafruit/tools/arm-none-eabi-gcc/9-2019q4/bin/../lib/gcc/arm-none-eabi/9.2.1/../../../../arm-none-eabi/lib/thumb/v7e-m+fp/hard/libc_nano.a(lib_a-mprec.o)
                                                  /home/slombardo/.arduino15/packages/adafruit/tools/arm-none-eabi-gcc/9-2019q4/bin/../lib/gcc/arm-none-eabi/9.2.1/../../../../arm-none-eabi/lib/thumb/v7e-m+fp/hard/libc_nano.a(lib_a-dtoa.o)
_PathLocale                                       /home/slombardo/.arduino15/packages/adafruit/tools/arm-none-eabi-gcc/9-2019q4/bin/../lib/gcc/arm-none-eabi/9.2.1/../../../../arm-none-eabi/lib/thumb/v7e-m+fp/hard/libc_nano.a(lib_a-locale.o)
__HeapBase                                        /home/slombardo/projects/BadgersRunFirmware/Build/core/core.a(debug.cpp.o)
__HeapLimit                                       /home/slombardo/projects/BadgersRunFirmware/Build/core/core.a(debug.cpp.o)
__StackLimit                                      /home/slombardo/projects/BadgersRunFirmware/Build/core/core.a(debug.cpp.o)
                                                  /home/slombardo/projects/BadgersRunFirmware/Build/core/core.a(gcc_startup_nrf52.S.o)
__StackSize                                       /home/slombardo/projects/BadgersRunFirmware/Build/core/core.a(gcc_startup_nrf52.S.o)
__StackTop                                        /home/slombardo/projects/BadgersRunFirmware/Build/core/core.a(debug.cpp.o)
                                                  /home/slombardo/projects/BadgersRunFirmware/Build/core/core.a(gcc_startup_nrf52.S.o)
__adddf3                                          /home/slombardo/.arduino15/packages/adafruit/tools/arm-none-eabi-gcc/9-2019q4/bin/../lib/gcc/arm-none-eabi/9.2.1/thumb/v7e-m+fp/hard/libgcc.a(_arm_addsubdf3.o)
__aeabi_cdcmpeq                                   /home/slombardo/.arduino15/packages/adafruit/tools/arm-none-eabi-gcc/9-2019q4/bin/../lib/gcc/arm-none-eabi/9.2.1/thumb/v7e-m+fp/hard/libgcc.a(_arm_cmpdf2.o)
__aeabi_cdcmple                                   /home/slombardo/.arduino15/packages/adafruit/tools/arm-none-eabi-gcc/9-2019q4/bin/../lib/gcc/arm-none-eabi/9.2.1/thumb/v7e-m+fp/hard/libgcc.a(_arm_cmpdf2.o)
__aeabi_cdrcmple                                  /home/slombardo/.arduino15/packages/adafruit/tools/arm-none-eabi-gcc/9-2019q4/bin/../lib/gcc/arm-none-eabi/9.2.1/thumb/v7e-m+fp/hard/libgcc.a(_arm_cmpdf2.o)
__aeabi_d2iz                                      /home/slombardo/.arduino15/packages/adafruit/tools/arm-none-eabi-gcc/9-2019q4/bin/../lib/gcc/arm-none-eabi/9.2.1/thumb/v7e-m+fp/hard/libgcc.a(_arm_fixdfsi.o)
                                                  /home/slombardo/.arduino15/packages/adafruit/tools/arm-none-eabi-gcc/9-2019q4/bin/../lib/gcc/arm-none-eabi/9.2.1/../../../../arm-none-eabi/lib/thumb/v7e-m+fp/hard/libc_nano.a(lib_a-dtoa.o)
__aeabi_dadd                                      /home/slombardo/.arduino15/packages/adafruit/tools/arm-none-eabi-gcc/9-2019q4/bin/../lib/gcc/arm-none-eabi/9.2.1/thumb/v7e-m+fp/hard/libgcc.a(_arm_addsubdf3.o)
                                                  /home/slombardo/.arduino15/packages/adafruit/tools/arm-none-eabi-gcc/9-2019q4/bin/../lib/gcc/arm-none-eabi/9.2.1/../../../../arm-none-eabi/lib/thumb/v7e-m+fp/hard/libc_nano.a(lib_a-dtoa.o)
__aeabi_dcmpeq                                    /home/slombardo/.arduino15/packages/adafruit/tools/arm-none-eabi-gcc/9-2019q4/bin/../lib/gcc/arm-none-eabi/9.2.1/thumb/v7e-m+fp/hard/libgcc.a(_arm_cmpdf2.o)
                                                  /home/slombardo/.arduino15/packages/adafruit/tools/arm-none-eabi-gcc/9-2019q4/bin/../lib/gcc/arm-none-eabi/9.2.1/../../../../arm-none-eabi/lib/thumb/v7e-m+fp/hard/libc_nano.a(lib_a-dtoa.o)
                                                  /home/slombardo/.arduino15/packages/adafruit/tools/arm-none-eabi-gcc/9-2019q4/bin/../lib/gcc/arm-none-eabi/9.2.1/../../../../arm-none-eabi/lib/thumb/v7e-m+fp/hard/libc_nano.a(lib_a-nano-vfprintf_float.o)
__aeabi_dcmpge                                    /home/slombardo/.arduino15/packages/adafruit/tools/arm-none-eabi-gcc/9-2019q4/bin/../lib/gcc/arm-none-eabi/9.2.1/thumb/v7e-m+fp/hard/libgcc.a(_arm_cmpdf2.o)
                                                  /home/slombardo/.arduino15/packages/adafruit/tools/arm-none-eabi-gcc/9-2019q4/bin/../lib/gcc/arm-none-eabi/9.2.1/../../../../arm-none-eabi/lib/thumb/v7e-m+fp/hard/libc_nano.a(lib_a-dtoa.o)
__aeabi_dcmpgt                                    /home/slombardo/.arduino15/packages/adafruit/tools/arm-none-eabi-gcc/9-2019q4/bin/../lib/gcc/arm-none-eabi/9.2.1/thumb/v7e-m+fp/hard/libgcc.a(_arm_cmpdf2.o)
                                                  /home/slombardo/.arduino15/packages/adafruit/tools/arm-none-eabi-gcc/9-2019q4/bin/../lib/gcc/arm-none-eabi/9.2.1/../../../../arm-none-eabi/lib/thumb/v7e-m+fp/hard/libc_nano.a(lib_a-dtoa.o)
__aeabi_dcmple                                    /home/slombardo/.arduino15/packages/adafruit/tools/arm-none-eabi-gcc/9-2019q4/bin/../lib/gcc/arm-none-eabi/9.2.1/thumb/v7e-m+fp/hard/libgcc.a(_arm_cmpdf2.o)
                                                  /home/slombardo/.arduino15/packages/adafruit/tools/arm-none-eabi-gcc/9-2019q4/bin/../lib/gcc/arm-none-eabi/9.2.1/../../../../arm-none-eabi/lib/thumb/v7e-m+fp/hard/libc_nano.a(lib_a-nano-vfprintf_float.o)
__aeabi_dcmplt                                    /home/slombardo/.arduino15/packages/adafruit/tools/arm-none-eabi-gcc/9-2019q4/bin/../lib/gcc/arm-none-eabi/9.2.1/thumb/v7e-m+fp/hard/libgcc.a(_arm_cmpdf2.o)
                                                  /home/slombardo/.arduino15/packages/adafruit/tools/arm-none-eabi-gcc/9-2019q4/bin/../lib/gcc/arm-none-eabi/9.2.1/../../../../arm-none-eabi/lib/thumb/v7e-m+fp/hard/libc_nano.a(lib_a-dtoa.o)
                                                  /home/slombardo/.arduino15/packages/adafruit/tools/arm-none-eabi-gcc/9-2019q4/bin/../lib/gcc/arm-none-eabi/9.2.1/../../../../arm-none-eabi/lib/thumb/v7e-m+fp/hard/libc_nano.a(lib_a-nano-vfprintf_float.o)
__aeabi_dcmpun                                    /home/slombardo/.arduino15/packages/adafruit/tools/arm-none-eabi-gcc/9-2019q4/bin/../lib/gcc/arm-none-eabi/9.2.1/thumb/v7e-m+fp/hard/libgcc.a(_arm_unorddf2.o)
                                                  /home/slombardo/.arduino15/packages/adafruit/tools/arm-none-eabi-gcc/9-2019q4/bin/../lib/gcc/arm-none-eabi/9.2.1/../../../../arm-none-eabi/lib/thumb/v7e-m+fp/hard/libc_nano.a(lib_a-nano-vfprintf_float.o)
__aeabi_ddiv                                      /home/slombardo/.arduino15/packages/adafruit/tools/arm-none-eabi-gcc/9-2019q4/bin/../lib/gcc/arm-none-eabi/9.2.1/thumb/v7e-m+fp/hard/libgcc.a(_arm_muldivdf3.o)
                                                  /home/slombardo/.arduino15/packages/adafruit/tools/arm-none-eabi-gcc/9-2019q4/bin/../lib/gcc/arm-none-eabi/9.2.1/../../../../arm-none-eabi/lib/thumb/v7e-m+fp/hard/libc_nano.a(lib_a-mprec.o)
                                                  /home/slombardo/.arduino15/packages/adafruit/tools/arm-none-eabi-gcc/9-2019q4/bin/../lib/gcc/arm-none-eabi/9.2.1/../../../../arm-none-eabi/lib/thumb/v7e-m+fp/hard/libc_nano.a(lib_a-dtoa.o)
__aeabi_dmul                                      /home/slombardo/.arduino15/packages/adafruit/tools/arm-none-eabi-gcc/9-2019q4/bin/../lib/gcc/arm-none-eabi/9.2.1/thumb/v7e-m+fp/hard/libgcc.a(_arm_muldivdf3.o)
                                                  /home/slombardo/.arduino15/packages/adafruit/tools/arm-none-eabi-gcc/9-2019q4/bin/../lib/gcc/arm-none-eabi/9.2.1/thumb/v7e-m+fp/hard/libgcc.a(_arm_muldf3.o)
                                                  /home/slombardo/.arduino15/packages/adafruit/tools/arm-none-eabi-gcc/9-2019q4/bin/../lib/gcc/arm-none-eabi/9.2.1/../../../../arm-none-eabi/lib/thumb/v7e-m+fp/hard/libc_nano.a(lib_a-mprec.o)
                                                  /home/slombardo/.arduino15/packages/adafruit/tools/arm-none-eabi-gcc/9-2019q4/bin/../lib/gcc/arm-none-eabi/9.2.1/../../../../arm-none-eabi/lib/thumb/v7e-m+fp/hard/libc_nano.a(lib_a-dtoa.o)
__aeabi_drsub                                     /home/slombardo/.arduino15/packages/adafruit/tools/arm-none-eabi-gcc/9-2019q4/bin/../lib/gcc/arm-none-eabi/9.2.1/thumb/v7e-m+fp/hard/libgcc.a(_arm_addsubdf3.o)
__aeabi_dsub                                      /home/slombardo/.arduino15/packages/adafruit/tools/arm-none-eabi-gcc/9-2019q4/bin/../lib/gcc/arm-none-eabi/9.2.1/thumb/v7e-m+fp/hard/libgcc.a(_arm_addsubdf3.o)
                                                  /home/slombardo/.arduino15/packages/adafruit/tools/arm-none-eabi-gcc/9-2019q4/bin/../lib/gcc/arm-none-eabi/9.2.1/../../../../arm-none-eabi/lib/thumb/v7e-m+fp/hard/libc_nano.a(lib_a-dtoa.o)
__aeabi_f2d                                       /home/slombardo/.arduino15/packages/adafruit/tools/arm-none-eabi-gcc/9-2019q4/bin/../lib/gcc/arm-none-eabi/9.2.1/thumb/v7e-m+fp/hard/libgcc.a(_arm_addsubdf3.o)
__aeabi_i2d                                       /home/slombardo/.arduino15/packages/adafruit/tools/arm-none-eabi-gcc/9-2019q4/bin/../lib/gcc/arm-none-eabi/9.2.1/thumb/v7e-m+fp/hard/libgcc.a(_arm_addsubdf3.o)
                                                  /home/slombardo/.arduino15/packages/adafruit/tools/arm-none-eabi-gcc/9-2019q4/bin/../lib/gcc/arm-none-eabi/9.2.1/../../../../arm-none-eabi/lib/thumb/v7e-m+fp/hard/libc_nano.a(lib_a-dtoa.o)
__aeabi_l2d                                       /home/slombardo/.arduino15/packages/adafruit/tools/arm-none-eabi-gcc/9-2019q4/bin/../lib/gcc/arm-none-eabi/9.2.1/thumb/v7e-m+fp/hard/libgcc.a(_arm_addsubdf3.o)
__aeabi_ui2d                                      /home/slombardo/.arduino15/packages/adafruit/tools/arm-none-eabi-gcc/9-2019q4/bin/../lib/gcc/arm-none-eabi/9.2.1/thumb/v7e-m+fp/hard/libgcc.a(_arm_addsubdf3.o)
                                                  /home/slombardo/.arduino15/packages/adafruit/tools/arm-none-eabi-gcc/9-2019q4/bin/../lib/gcc/arm-none-eabi/9.2.1/../../../../arm-none-eabi/lib/thumb/v7e-m+fp/hard/libc_nano.a(lib_a-dtoa.o)
__aeabi_ul2d                                      /home/slombardo/.arduino15/packages/adafruit/tools/arm-none-eabi-gcc/9-2019q4/bin/../lib/gcc/arm-none-eabi/9.2.1/thumb/v7e-m+fp/hard/libgcc.a(_arm_addsubdf3.o)
__any_on                                          /home/slombardo/.arduino15/packages/adafruit/tools/arm-none-eabi-gcc/9-2019q4/bin/../lib/gcc/arm-none-eabi/9.2.1/../../../../arm-none-eabi/lib/thumb/v7e-m+fp/hard/libc_nano.a(lib_a-mprec.o)
__ascii_mbtowc                                    /home/slombardo/.arduino15/packages/adafruit/tools/arm-none-eabi-gcc/9-2019q4/bin/../lib/gcc/arm-none-eabi/9.2.1/../../../../arm-none-eabi/lib/thumb/v7e-m+fp/hard/libc_nano.a(lib_a-mbtowc_r.o)
                                                  /home/slombardo/.arduino15/packages/adafruit/tools/arm-none-eabi-gcc/9-2019q4/bin/../lib/gcc/arm-none-eabi/9.2.1/../../../../arm-none-eabi/lib/thumb/v7e-m+fp/hard/libc_nano.a(lib_a-locale.o)
__ascii_wctomb                                    /home/slombardo/.arduino15/packages/adafruit/tools/arm-none-eabi-gcc/9-2019q4/bin/../lib/gcc/arm-none-eabi/9.2.1/../../../../arm-none-eabi/lib/thumb/v7e-m+fp/hard/libc_nano.a(lib_a-wctomb_r.o)
                                                  /home/slombardo/.arduino15/packages/adafruit/tools/arm-none-eabi-gcc/9-2019q4/bin/../lib/gcc/arm-none-eabi/9.2.1/../../../../arm-none-eabi/lib/thumb/v7e-m+fp/hard/libc_nano.a(lib_a-locale.o)
__b2d                                             /home/slombardo/.arduino15/packages/adafruit/tools/arm-none-eabi-gcc/9-2019q4/bin/../lib/gcc/arm-none-eabi/9.2.1/../../../../arm-none-eabi/lib/thumb/v7e-m+fp/hard/libc_nano.a(lib_a-mprec.o)
__bss_end__                                       /home/slombardo/projects/BadgersRunFirmware/Build/core/core.a(debug.cpp.o)
                                                  /home/slombardo/.arduino15/packages/adafruit/tools/arm-none-eabi-gcc/9-2019q4/bin/../lib/gcc/arm-none-eabi/9.2.1/../../../../arm-none-eabi/lib/thumb/v7e-m+fp/hard/crt0.o
__bss_start__                                     /home/slombardo/projects/BadgersRunFirmware/Build/core/core.a(gcc_startup_nrf52.S.o)
                                                  /home/slombardo/.arduino15/packages/adafruit/tools/arm-none-eabi-gcc/9-2019q4/bin/../lib/gcc/arm-none-eabi/9.2.1/../../../../arm-none-eabi/lib/thumb/v7e-m+fp/hard/crt0.o
__call_exitprocs                                  /home/slombardo/.arduino15/packages/adafruit/tools/arm-none-eabi-gcc/9-2019q4/bin/../lib/gcc/arm-none-eabi/9.2.1/../../../../arm-none-eabi/lib/thumb/v7e-m+fp/hard/libc_nano.a(lib_a-exit.o)
__cmpdf2                                          /home/slombardo/.arduino15/packages/adafruit/tools/arm-none-eabi-gcc/9-2019q4/bin/../lib/gcc/arm-none-eabi/9.2.1/thumb/v7e-m+fp/hard/libgcc.a(_arm_cmpdf2.o)
__copybits                                        /home/slombardo/.arduino15/packages/adafruit/tools/arm-none-eabi-gcc/9-2019q4/bin/../lib/gcc/arm-none-eabi/9.2.1/../../../../arm-none-eabi/lib/thumb/v7e-m+fp/hard/libc_nano.a(lib_a-mprec.o)
__cvt                                             /home/slombardo/.arduino15/packages/adafruit/tools/arm-none-eabi-gcc/9-2019q4/bin/../lib/gcc/arm-none-eabi/9.2.1/../../../../arm-none-eabi/lib/thumb/v7e-m+fp/hard/libc_nano.a(lib_a-nano-vfprintf_float.o)
__cxa_deleted_virtual                             /home/slombardo/projects/BadgersRunFirmware/Build/core/core.a(abi.cpp.o)
__cxa_pure_virtual                                /home/slombardo/projects/BadgersRunFirmware/Build/core/core.a(abi.cpp.o)
                                                  /home/slombardo/projects/BadgersRunFirmware/Build/core/core.a(Print.cpp.o)
__d2b                                             /home/slombardo/.arduino15/packages/adafruit/tools/arm-none-eabi-gcc/9-2019q4/bin/../lib/gcc/arm-none-eabi/9.2.1/../../../../arm-none-eabi/lib/thumb/v7e-m+fp/hard/libc_nano.a(lib_a-mprec.o)
                                                  /home/slombardo/.arduino15/packages/adafruit/tools/arm-none-eabi-gcc/9-2019q4/bin/../lib/gcc/arm-none-eabi/9.2.1/../../../../arm-none-eabi/lib/thumb/v7e-m+fp/hard/libc_nano.a(lib_a-dtoa.o)
__data_start__                                    /home/slombardo/projects/BadgersRunFirmware/Build/core/core.a(debug.cpp.o)
                                                  /home/slombardo/projects/BadgersRunFirmware/Build/core/core.a(gcc_startup_nrf52.S.o)
__deregister_frame_info                           /home/slombardo/.arduino15/packages/adafruit/tools/arm-none-eabi-gcc/9-2019q4/bin/../lib/gcc/arm-none-eabi/9.2.1/thumb/v7e-m+fp/hard/crtbegin.o
__divdf3                                          /home/slombardo/.arduino15/packages/adafruit/tools/arm-none-eabi-gcc/9-2019q4/bin/../lib/gcc/arm-none-eabi/9.2.1/thumb/v7e-m+fp/hard/libgcc.a(_arm_muldivdf3.o)
__dso_handle                                      /home/slombardo/.arduino15/packages/adafruit/tools/arm-none-eabi-gcc/9-2019q4/bin/../lib/gcc/arm-none-eabi/9.2.1/thumb/v7e-m+fp/hard/crtbegin.o
__eqdf2                                           /home/slombardo/.arduino15/packages/adafruit/tools/arm-none-eabi-gcc/9-2019q4/bin/../lib/gcc/arm-none-eabi/9.2.1/thumb/v7e-m+fp/hard/libgcc.a(_arm_cmpdf2.o)
__etext                                           /home/slombardo/projects/BadgersRunFirmware/Build/core/core.a(gcc_startup_nrf52.S.o)
__exponent                                        /home/slombardo/.arduino15/packages/adafruit/tools/arm-none-eabi-gcc/9-2019q4/bin/../lib/gcc/arm-none-eabi/9.2.1/../../../../arm-none-eabi/lib/thumb/v7e-m+fp/hard/libc_nano.a(lib_a-nano-vfprintf_float.o)
__extendsfdf2                                     /home/slombardo/.arduino15/packages/adafruit/tools/arm-none-eabi-gcc/9-2019q4/bin/../lib/gcc/arm-none-eabi/9.2.1/thumb/v7e-m+fp/hard/libgcc.a(_arm_addsubdf3.o)
__fixdfsi                                         /home/slombardo/.arduino15/packages/adafruit/tools/arm-none-eabi-gcc/9-2019q4/bin/../lib/gcc/arm-none-eabi/9.2.1/thumb/v7e-m+fp/hard/libgcc.a(_arm_fixdfsi.o)
__floatdidf                                       /home/slombardo/.arduino15/packages/adafruit/tools/arm-none-eabi-gcc/9-2019q4/bin/../lib/gcc/arm-none-eabi/9.2.1/thumb/v7e-m+fp/hard/libgcc.a(_arm_addsubdf3.o)
__floatsidf                                       /home/slombardo/.arduino15/packages/adafruit/tools/arm-none-eabi-gcc/9-2019q4/bin/../lib/gcc/arm-none-eabi/9.2.1/thumb/v7e-m+fp/hard/libgcc.a(_arm_addsubdf3.o)
__floatundidf                                     /home/slombardo/.arduino15/packages/adafruit/tools/arm-none-eabi-gcc/9-2019q4/bin/../lib/gcc/arm-none-eabi/9.2.1/thumb/v7e-m+fp/hard/libgcc.a(_arm_addsubdf3.o)
__floatunsidf                                     /home/slombardo/.arduino15/packages/adafruit/tools/arm-none-eabi-gcc/9-2019q4/bin/../lib/gcc/arm-none-eabi/9.2.1/thumb/v7e-m+fp/hard/libgcc.a(_arm_addsubdf3.o)
__fp_lock_all                                     /home/slombardo/.arduino15/packages/adafruit/tools/arm-none-eabi-gcc/9-2019q4/bin/../lib/gcc/arm-none-eabi/9.2.1/../../../../arm-none-eabi/lib/thumb/v7e-m+fp/hard/libc_nano.a(lib_a-findfp.o)
__fp_unlock_all                                   /home/slombardo/.arduino15/packages/adafruit/tools/arm-none-eabi-gcc/9-2019q4/bin/../lib/gcc/arm-none-eabi/9.2.1/../../../../arm-none-eabi/lib/thumb/v7e-m+fp/hard/libc_nano.a(lib_a-findfp.o)
__gedf2                                           /home/slombardo/.arduino15/packages/adafruit/tools/arm-none-eabi-gcc/9-2019q4/bin/../lib/gcc/arm-none-eabi/9.2.1/thumb/v7e-m+fp/hard/libgcc.a(_arm_cmpdf2.o)
__global_locale                                   /home/slombardo/.arduino15/packages/adafruit/tools/arm-none-eabi-gcc/9-2019q4/bin/../lib/gcc/arm-none-eabi/9.2.1/../../../../arm-none-eabi/lib/thumb/v7e-m+fp/hard/libc_nano.a(lib_a-locale.o)
                                                  /home/slombardo/.arduino15/packages/adafruit/tools/arm-none-eabi-gcc/9-2019q4/bin/../lib/gcc/arm-none-eabi/9.2.1/../../../../arm-none-eabi/lib/thumb/v7e-m+fp/hard/libc_nano.a(lib_a-wctomb_r.o)
                                                  /home/slombardo/.arduino15/packages/adafruit/tools/arm-none-eabi-gcc/9-2019q4/bin/../lib/gcc/arm-none-eabi/9.2.1/../../../../arm-none-eabi/lib/thumb/v7e-m+fp/hard/libc_nano.a(lib_a-mbtowc_r.o)
                                                  /home/slombardo/.arduino15/packages/adafruit/tools/arm-none-eabi-gcc/9-2019q4/bin/../lib/gcc/arm-none-eabi/9.2.1/../../../../arm-none-eabi/lib/thumb/v7e-m+fp/hard/libc_nano.a(lib_a-localeconv.o)
__gtdf2                                           /home/slombardo/.arduino15/packages/adafruit/tools/arm-none-eabi-gcc/9-2019q4/bin/../lib/gcc/arm-none-eabi/9.2.1/thumb/v7e-m+fp/hard/libgcc.a(_arm_cmpdf2.o)
__hi0bits                                         /home/slombardo/.arduino15/packages/adafruit/tools/arm-none-eabi-gcc/9-2019q4/bin/../lib/gcc/arm-none-eabi/9.2.1/../../../../arm-none-eabi/lib/thumb/v7e-m+fp/hard/libc_nano.a(lib_a-mprec.o)
                                                  /home/slombardo/.arduino15/packages/adafruit/tools/arm-none-eabi-gcc/9-2019q4/bin/../lib/gcc/arm-none-eabi/9.2.1/../../../../arm-none-eabi/lib/thumb/v7e-m+fp/hard/libc_nano.a(lib_a-dtoa.o)
__i2b                                             /home/slombardo/.arduino15/packages/adafruit/tools/arm-none-eabi-gcc/9-2019q4/bin/../lib/gcc/arm-none-eabi/9.2.1/../../../../arm-none-eabi/lib/thumb/v7e-m+fp/hard/libc_nano.a(lib_a-mprec.o)
                                                  /home/slombardo/.arduino15/packages/adafruit/tools/arm-none-eabi-gcc/9-2019q4/bin/../lib/gcc/arm-none-eabi/9.2.1/../../../../arm-none-eabi/lib/thumb/v7e-m+fp/hard/libc_nano.a(lib_a-dtoa.o)
__init_array_end                                  /home/slombardo/.arduino15/packages/adafruit/tools/arm-none-eabi-gcc/9-2019q4/bin/../lib/gcc/arm-none-eabi/9.2.1/../../../../arm-none-eabi/lib/thumb/v7e-m+fp/hard/libc_nano.a(lib_a-init.o)
__init_array_start                                /home/slombardo/.arduino15/packages/adafruit/tools/arm-none-eabi-gcc/9-2019q4/bin/../lib/gcc/arm-none-eabi/9.2.1/../../../../arm-none-eabi/lib/thumb/v7e-m+fp/hard/libc_nano.a(lib_a-init.o)
__isr_vector                                      /home/slombardo/projects/BadgersRunFirmware/Build/core/core.a(gcc_startup_nrf52.S.o)
                                                  /home/slombardo/projects/BadgersRunFirmware/Build/core/core.a(port.c.o)
__ledf2                                           /home/slombardo/.arduino15/packages/adafruit/tools/arm-none-eabi-gcc/9-2019q4/bin/../lib/gcc/arm-none-eabi/9.2.1/thumb/v7e-m+fp/hard/libgcc.a(_arm_cmpdf2.o)
__libc_fini_array                                 /home/slombardo/.arduino15/packages/adafruit/tools/arm-none-eabi-gcc/9-2019q4/bin/../lib/gcc/arm-none-eabi/9.2.1/../../../../arm-none-eabi/lib/thumb/v7e-m+fp/hard/crt0.o
__libc_init_array                                 /home/slombardo/.arduino15/packages/adafruit/tools/arm-none-eabi-gcc/9-2019q4/bin/../lib/gcc/arm-none-eabi/9.2.1/../../../../arm-none-eabi/lib/thumb/v7e-m+fp/hard/libc_nano.a(lib_a-init.o)
                                                  /home/slombardo/.arduino15/packages/adafruit/tools/arm-none-eabi-gcc/9-2019q4/bin/../lib/gcc/arm-none-eabi/9.2.1/../../../../arm-none-eabi/lib/thumb/v7e-m+fp/hard/crt0.o
__lo0bits                                         /home/slombardo/.arduino15/packages/adafruit/tools/arm-none-eabi-gcc/9-2019q4/bin/../lib/gcc/arm-none-eabi/9.2.1/../../../../arm-none-eabi/lib/thumb/v7e-m+fp/hard/libc_nano.a(lib_a-mprec.o)
__locale_mb_cur_max                               /home/slombardo/.arduino15/packages/adafruit/tools/arm-none-eabi-gcc/9-2019q4/bin/../lib/gcc/arm-none-eabi/9.2.1/../../../../arm-none-eabi/lib/thumb/v7e-m+fp/hard/libc_nano.a(lib_a-locale.o)
__localeconv_l                                    /home/slombardo/.arduino15/packages/adafruit/tools/arm-none-eabi-gcc/9-2019q4/bin/../lib/gcc/arm-none-eabi/9.2.1/../../../../arm-none-eabi/lib/thumb/v7e-m+fp/hard/libc_nano.a(lib_a-localeconv.o)
__lock___arc4random_mutex                         /home/slombardo/.arduino15/packages/adafruit/tools/arm-none-eabi-gcc/9-2019q4/bin/../lib/gcc/arm-none-eabi/9.2.1/../../../../arm-none-eabi/lib/thumb/v7e-m+fp/hard/libc_nano.a(lib_a-lock.o)
__lock___at_quick_exit_mutex                      /home/slombardo/.arduino15/packages/adafruit/tools/arm-none-eabi-gcc/9-2019q4/bin/../lib/gcc/arm-none-eabi/9.2.1/../../../../arm-none-eabi/lib/thumb/v7e-m+fp/hard/libc_nano.a(lib_a-lock.o)
__lock___atexit_recursive_mutex                   /home/slombardo/.arduino15/packages/adafruit/tools/arm-none-eabi-gcc/9-2019q4/bin/../lib/gcc/arm-none-eabi/9.2.1/../../../../arm-none-eabi/lib/thumb/v7e-m+fp/hard/libc_nano.a(lib_a-lock.o)
__lock___dd_hash_mutex                            /home/slombardo/.arduino15/packages/adafruit/tools/arm-none-eabi-gcc/9-2019q4/bin/../lib/gcc/arm-none-eabi/9.2.1/../../../../arm-none-eabi/lib/thumb/v7e-m+fp/hard/libc_nano.a(lib_a-lock.o)
__lock___env_recursive_mutex                      /home/slombardo/.arduino15/packages/adafruit/tools/arm-none-eabi-gcc/9-2019q4/bin/../lib/gcc/arm-none-eabi/9.2.1/../../../../arm-none-eabi/lib/thumb/v7e-m+fp/hard/libc_nano.a(lib_a-lock.o)
__lock___malloc_recursive_mutex                   /home/slombardo/.arduino15/packages/adafruit/tools/arm-none-eabi-gcc/9-2019q4/bin/../lib/gcc/arm-none-eabi/9.2.1/../../../../arm-none-eabi/lib/thumb/v7e-m+fp/hard/libc_nano.a(lib_a-lock.o)
                                                  /home/slombardo/.arduino15/packages/adafruit/tools/arm-none-eabi-gcc/9-2019q4/bin/../lib/gcc/arm-none-eabi/9.2.1/../../../../arm-none-eabi/lib/thumb/v7e-m+fp/hard/libc_nano.a(lib_a-mlock.o)
__lock___sfp_recursive_mutex                      /home/slombardo/.arduino15/packages/adafruit/tools/arm-none-eabi-gcc/9-2019q4/bin/../lib/gcc/arm-none-eabi/9.2.1/../../../../arm-none-eabi/lib/thumb/v7e-m+fp/hard/libc_nano.a(lib_a-lock.o)
                                                  /home/slombardo/.arduino15/packages/adafruit/tools/arm-none-eabi-gcc/9-2019q4/bin/../lib/gcc/arm-none-eabi/9.2.1/../../../../arm-none-eabi/lib/thumb/v7e-m+fp/hard/libc_nano.a(lib_a-findfp.o)
__lock___sinit_recursive_mutex                    /home/slombardo/.arduino15/packages/adafruit/tools/arm-none-eabi-gcc/9-2019q4/bin/../lib/gcc/arm-none-eabi/9.2.1/../../../../arm-none-eabi/lib/thumb/v7e-m+fp/hard/libc_nano.a(lib_a-lock.o)
                                                  /home/slombardo/.arduino15/packages/adafruit/tools/arm-none-eabi-gcc/9-2019q4/bin/../lib/gcc/arm-none-eabi/9.2.1/../../../../arm-none-eabi/lib/thumb/v7e-m+fp/hard/libc_nano.a(lib_a-findfp.o)
__lock___tz_mutex                                 /home/slombardo/.arduino15/packages/adafruit/tools/arm-none-eabi-gcc/9-2019q4/bin/../lib/gcc/arm-none-eabi/9.2.1/../../../../arm-none-eabi/lib/thumb/v7e-m+fp/hard/libc_nano.a(lib_a-lock.o)
__lshift                                          /home/slombardo/.arduino15/packages/adafruit/tools/arm-none-eabi-gcc/9-2019q4/bin/../lib/gcc/arm-none-eabi/9.2.1/../../../../arm-none-eabi/lib/thumb/v7e-m+fp/hard/libc_nano.a(lib_a-mprec.o)
                                                  /home/slombardo/.arduino15/packages/adafruit/tools/arm-none-eabi-gcc/9-2019q4/bin/../lib/gcc/arm-none-eabi/9.2.1/../../../../arm-none-eabi/lib/thumb/v7e-m+fp/hard/libc_nano.a(lib_a-dtoa.o)
__ltdf2                                           /home/slombardo/.arduino15/packages/adafruit/tools/arm-none-eabi-gcc/9-2019q4/bin/../lib/gcc/arm-none-eabi/9.2.1/thumb/v7e-m+fp/hard/libgcc.a(_arm_cmpdf2.o)
__malloc_current_mallinfo                         /home/slombardo/.arduino15/packages/adafruit/tools/arm-none-eabi-gcc/9-2019q4/bin/../lib/gcc/arm-none-eabi/9.2.1/../../../../arm-none-eabi/lib/thumb/v7e-m+fp/hard/libc_nano.a(lib_a-nano-mallinfor.o)
                                                  /home/slombardo/.arduino15/packages/adafruit/tools/arm-none-eabi-gcc/9-2019q4/bin/../lib/gcc/arm-none-eabi/9.2.1/../../../../arm-none-eabi/lib/thumb/v7e-m+fp/hard/libc_nano.a(lib_a-nano-mallstatsr.o)
__malloc_free_list                                /home/slombardo/.arduino15/packages/adafruit/tools/arm-none-eabi-gcc/9-2019q4/bin/../lib/gcc/arm-none-eabi/9.2.1/../../../../arm-none-eabi/lib/thumb/v7e-m+fp/hard/libc_nano.a(lib_a-nano-mallocr.o)
                                                  /home/slombardo/.arduino15/packages/adafruit/tools/arm-none-eabi-gcc/9-2019q4/bin/../lib/gcc/arm-none-eabi/9.2.1/../../../../arm-none-eabi/lib/thumb/v7e-m+fp/hard/libc_nano.a(lib_a-nano-mallinfor.o)
                                                  /home/slombardo/.arduino15/packages/adafruit/tools/arm-none-eabi-gcc/9-2019q4/bin/../lib/gcc/arm-none-eabi/9.2.1/../../../../arm-none-eabi/lib/thumb/v7e-m+fp/hard/libc_nano.a(lib_a-nano-freer.o)
__malloc_lock                                     /home/slombardo/.arduino15/packages/adafruit/tools/arm-none-eabi-gcc/9-2019q4/bin/../lib/gcc/arm-none-eabi/9.2.1/../../../../arm-none-eabi/lib/thumb/v7e-m+fp/hard/libc_nano.a(lib_a-mlock.o)
                                                  /home/slombardo/.arduino15/packages/adafruit/tools/arm-none-eabi-gcc/9-2019q4/bin/../lib/gcc/arm-none-eabi/9.2.1/../../../../arm-none-eabi/lib/thumb/v7e-m+fp/hard/libc_nano.a(lib_a-nano-mallocr.o)
                                                  /home/slombardo/.arduino15/packages/adafruit/tools/arm-none-eabi-gcc/9-2019q4/bin/../lib/gcc/arm-none-eabi/9.2.1/../../../../arm-none-eabi/lib/thumb/v7e-m+fp/hard/libc_nano.a(lib_a-nano-mallinfor.o)
                                                  /home/slombardo/.arduino15/packages/adafruit/tools/arm-none-eabi-gcc/9-2019q4/bin/../lib/gcc/arm-none-eabi/9.2.1/../../../../arm-none-eabi/lib/thumb/v7e-m+fp/hard/libc_nano.a(lib_a-nano-freer.o)
__malloc_sbrk_start                               /home/slombardo/.arduino15/packages/adafruit/tools/arm-none-eabi-gcc/9-2019q4/bin/../lib/gcc/arm-none-eabi/9.2.1/../../../../arm-none-eabi/lib/thumb/v7e-m+fp/hard/libc_nano.a(lib_a-nano-mallocr.o)
                                                  /home/slombardo/.arduino15/packages/adafruit/tools/arm-none-eabi-gcc/9-2019q4/bin/../lib/gcc/arm-none-eabi/9.2.1/../../../../arm-none-eabi/lib/thumb/v7e-m+fp/hard/libc_nano.a(lib_a-nano-mallinfor.o)
__malloc_unlock                                   /home/slombardo/.arduino15/packages/adafruit/tools/arm-none-eabi-gcc/9-2019q4/bin/../lib/gcc/arm-none-eabi/9.2.1/../../../../arm-none-eabi/lib/thumb/v7e-m+fp/hard/libc_nano.a(lib_a-mlock.o)
                                                  /home/slombardo/.arduino15/packages/adafruit/tools/arm-none-eabi-gcc/9-2019q4/bin/../lib/gcc/arm-none-eabi/9.2.1/../../../../arm-none-eabi/lib/thumb/v7e-m+fp/hard/libc_nano.a(lib_a-nano-mallocr.o)
                                                  /home/slombardo/.arduino15/packages/adafruit/tools/arm-none-eabi-gcc/9-2019q4/bin/../lib/gcc/arm-none-eabi/9.2.1/../../../../arm-none-eabi/lib/thumb/v7e-m+fp/hard/libc_nano.a(lib_a-nano-mallinfor.o)
                                                  /home/slombardo/.arduino15/packages/adafruit/tools/arm-none-eabi-gcc/9-2019q4/bin/../lib/gcc/arm-none-eabi/9.2.1/../../../../arm-none-eabi/lib/thumb/v7e-m+fp/hard/libc_nano.a(lib_a-nano-freer.o)
__mcmp                                            /home/slombardo/.arduino15/packages/adafruit/tools/arm-none-eabi-gcc/9-2019q4/bin/../lib/gcc/arm-none-eabi/9.2.1/../../../../arm-none-eabi/lib/thumb/v7e-m+fp/hard/libc_nano.a(lib_a-mprec.o)
                                                  /home/slombardo/.arduino15/packages/adafruit/tools/arm-none-eabi-gcc/9-2019q4/bin/../lib/gcc/arm-none-eabi/9.2.1/../../../../arm-none-eabi/lib/thumb/v7e-m+fp/hard/libc_nano.a(lib_a-dtoa.o)
__mdiff                                           /home/slombardo/.arduino15/packages/adafruit/tools/arm-none-eabi-gcc/9-2019q4/bin/../lib/gcc/arm-none-eabi/9.2.1/../../../../arm-none-eabi/lib/thumb/v7e-m+fp/hard/libc_nano.a(lib_a-mprec.o)
                                                  /home/slombardo/.arduino15/packages/adafruit/tools/arm-none-eabi-gcc/9-2019q4/bin/../lib/gcc/arm-none-eabi/9.2.1/../../../../arm-none-eabi/lib/thumb/v7e-m+fp/hard/libc_nano.a(lib_a-dtoa.o)
__mprec_bigtens                                   /home/slombardo/.arduino15/packages/adafruit/tools/arm-none-eabi-gcc/9-2019q4/bin/../lib/gcc/arm-none-eabi/9.2.1/../../../../arm-none-eabi/lib/thumb/v7e-m+fp/hard/libc_nano.a(lib_a-mprec.o)
                                                  /home/slombardo/.arduino15/packages/adafruit/tools/arm-none-eabi-gcc/9-2019q4/bin/../lib/gcc/arm-none-eabi/9.2.1/../../../../arm-none-eabi/lib/thumb/v7e-m+fp/hard/libc_nano.a(lib_a-dtoa.o)
__mprec_tens                                      /home/slombardo/.arduino15/packages/adafruit/tools/arm-none-eabi-gcc/9-2019q4/bin/../lib/gcc/arm-none-eabi/9.2.1/../../../../arm-none-eabi/lib/thumb/v7e-m+fp/hard/libc_nano.a(lib_a-mprec.o)
                                                  /home/slombardo/.arduino15/packages/adafruit/tools/arm-none-eabi-gcc/9-2019q4/bin/../lib/gcc/arm-none-eabi/9.2.1/../../../../arm-none-eabi/lib/thumb/v7e-m+fp/hard/libc_nano.a(lib_a-dtoa.o)
__mprec_tinytens                                  /home/slombardo/.arduino15/packages/adafruit/tools/arm-none-eabi-gcc/9-2019q4/bin/../lib/gcc/arm-none-eabi/9.2.1/../../../../arm-none-eabi/lib/thumb/v7e-m+fp/hard/libc_nano.a(lib_a-mprec.o)
__muldf3                                          /home/slombardo/.arduino15/packages/adafruit/tools/arm-none-eabi-gcc/9-2019q4/bin/../lib/gcc/arm-none-eabi/9.2.1/thumb/v7e-m+fp/hard/libgcc.a(_arm_muldivdf3.o)
                                                  /home/slombardo/.arduino15/packages/adafruit/tools/arm-none-eabi-gcc/9-2019q4/bin/../lib/gcc/arm-none-eabi/9.2.1/thumb/v7e-m+fp/hard/libgcc.a(_arm_muldf3.o)
__multadd                                         /home/slombardo/.arduino15/packages/adafruit/tools/arm-none-eabi-gcc/9-2019q4/bin/../lib/gcc/arm-none-eabi/9.2.1/../../../../arm-none-eabi/lib/thumb/v7e-m+fp/hard/libc_nano.a(lib_a-mprec.o)
                                                  /home/slombardo/.arduino15/packages/adafruit/tools/arm-none-eabi-gcc/9-2019q4/bin/../lib/gcc/arm-none-eabi/9.2.1/../../../../arm-none-eabi/lib/thumb/v7e-m+fp/hard/libc_nano.a(lib_a-dtoa.o)
__multiply                                        /home/slombardo/.arduino15/packages/adafruit/tools/arm-none-eabi-gcc/9-2019q4/bin/../lib/gcc/arm-none-eabi/9.2.1/../../../../arm-none-eabi/lib/thumb/v7e-m+fp/hard/libc_nano.a(lib_a-mprec.o)
                                                  /home/slombardo/.arduino15/packages/adafruit/tools/arm-none-eabi-gcc/9-2019q4/bin/../lib/gcc/arm-none-eabi/9.2.1/../../../../arm-none-eabi/lib/thumb/v7e-m+fp/hard/libc_nano.a(lib_a-dtoa.o)
__nedf2                                           /home/slombardo/.arduino15/packages/adafruit/tools/arm-none-eabi-gcc/9-2019q4/bin/../lib/gcc/arm-none-eabi/9.2.1/thumb/v7e-m+fp/hard/libgcc.a(_arm_cmpdf2.o)
__pow5mult                                        /home/slombardo/.arduino15/packages/adafruit/tools/arm-none-eabi-gcc/9-2019q4/bin/../lib/gcc/arm-none-eabi/9.2.1/../../../../arm-none-eabi/lib/thumb/v7e-m+fp/hard/libc_nano.a(lib_a-mprec.o)
                                                  /home/slombardo/.arduino15/packages/adafruit/tools/arm-none-eabi-gcc/9-2019q4/bin/../lib/gcc/arm-none-eabi/9.2.1/../../../../arm-none-eabi/lib/thumb/v7e-m+fp/hard/libc_nano.a(lib_a-dtoa.o)
__preinit_array_end                               /home/slombardo/.arduino15/packages/adafruit/tools/arm-none-eabi-gcc/9-2019q4/bin/../lib/gcc/arm-none-eabi/9.2.1/../../../../arm-none-eabi/lib/thumb/v7e-m+fp/hard/libc_nano.a(lib_a-init.o)
__preinit_array_start                             /home/slombardo/.arduino15/packages/adafruit/tools/arm-none-eabi-gcc/9-2019q4/bin/../lib/gcc/arm-none-eabi/9.2.1/../../../../arm-none-eabi/lib/thumb/v7e-m+fp/hard/libc_nano.a(lib_a-init.o)
__ratio                                           /home/slombardo/.arduino15/packages/adafruit/tools/arm-none-eabi-gcc/9-2019q4/bin/../lib/gcc/arm-none-eabi/9.2.1/../../../../arm-none-eabi/lib/thumb/v7e-m+fp/hard/libc_nano.a(lib_a-mprec.o)
__register_frame_info                             /home/slombardo/.arduino15/packages/adafruit/tools/arm-none-eabi-gcc/9-2019q4/bin/../lib/gcc/arm-none-eabi/9.2.1/thumb/v7e-m+fp/hard/crtbegin.o
__retarget_lock_acquire                           /home/slombardo/.arduino15/packages/adafruit/tools/arm-none-eabi-gcc/9-2019q4/bin/../lib/gcc/arm-none-eabi/9.2.1/../../../../arm-none-eabi/lib/thumb/v7e-m+fp/hard/libc_nano.a(lib_a-lock.o)
__retarget_lock_acquire_recursive                 /home/slombardo/.arduino15/packages/adafruit/tools/arm-none-eabi-gcc/9-2019q4/bin/../lib/gcc/arm-none-eabi/9.2.1/../../../../arm-none-eabi/lib/thumb/v7e-m+fp/hard/libc_nano.a(lib_a-lock.o)
                                                  /home/slombardo/.arduino15/packages/adafruit/tools/arm-none-eabi-gcc/9-2019q4/bin/../lib/gcc/arm-none-eabi/9.2.1/../../../../arm-none-eabi/lib/thumb/v7e-m+fp/hard/libc_nano.a(lib_a-putc.o)
                                                  /home/slombardo/.arduino15/packages/adafruit/tools/arm-none-eabi-gcc/9-2019q4/bin/../lib/gcc/arm-none-eabi/9.2.1/../../../../arm-none-eabi/lib/thumb/v7e-m+fp/hard/libc_nano.a(lib_a-nano-vfprintf.o)
                                                  /home/slombardo/.arduino15/packages/adafruit/tools/arm-none-eabi-gcc/9-2019q4/bin/../lib/gcc/arm-none-eabi/9.2.1/../../../../arm-none-eabi/lib/thumb/v7e-m+fp/hard/libc_nano.a(lib_a-mlock.o)
                                                  /home/slombardo/.arduino15/packages/adafruit/tools/arm-none-eabi-gcc/9-2019q4/bin/../lib/gcc/arm-none-eabi/9.2.1/../../../../arm-none-eabi/lib/thumb/v7e-m+fp/hard/libc_nano.a(lib_a-findfp.o)
                                                  /home/slombardo/.arduino15/packages/adafruit/tools/arm-none-eabi-gcc/9-2019q4/bin/../lib/gcc/arm-none-eabi/9.2.1/../../../../arm-none-eabi/lib/thumb/v7e-m+fp/hard/libc_nano.a(lib_a-fflush.o)
                                                  /home/slombardo/.arduino15/packages/adafruit/tools/arm-none-eabi-gcc/9-2019q4/bin/../lib/gcc/arm-none-eabi/9.2.1/../../../../arm-none-eabi/lib/thumb/v7e-m+fp/hard/libc_nano.a(lib_a-puts.o)
__retarget_lock_close                             /home/slombardo/.arduino15/packages/adafruit/tools/arm-none-eabi-gcc/9-2019q4/bin/../lib/gcc/arm-none-eabi/9.2.1/../../../../arm-none-eabi/lib/thumb/v7e-m+fp/hard/libc_nano.a(lib_a-lock.o)
__retarget_lock_close_recursive                   /home/slombardo/.arduino15/packages/adafruit/tools/arm-none-eabi-gcc/9-2019q4/bin/../lib/gcc/arm-none-eabi/9.2.1/../../../../arm-none-eabi/lib/thumb/v7e-m+fp/hard/libc_nano.a(lib_a-lock.o)
__retarget_lock_init                              /home/slombardo/.arduino15/packages/adafruit/tools/arm-none-eabi-gcc/9-2019q4/bin/../lib/gcc/arm-none-eabi/9.2.1/../../../../arm-none-eabi/lib/thumb/v7e-m+fp/hard/libc_nano.a(lib_a-lock.o)
__retarget_lock_init_recursive                    /home/slombardo/.arduino15/packages/adafruit/tools/arm-none-eabi-gcc/9-2019q4/bin/../lib/gcc/arm-none-eabi/9.2.1/../../../../arm-none-eabi/lib/thumb/v7e-m+fp/hard/libc_nano.a(lib_a-lock.o)
                                                  /home/slombardo/.arduino15/packages/adafruit/tools/arm-none-eabi-gcc/9-2019q4/bin/../lib/gcc/arm-none-eabi/9.2.1/../../../../arm-none-eabi/lib/thumb/v7e-m+fp/hard/libc_nano.a(lib_a-findfp.o)
__retarget_lock_release                           /home/slombardo/.arduino15/packages/adafruit/tools/arm-none-eabi-gcc/9-2019q4/bin/../lib/gcc/arm-none-eabi/9.2.1/../../../../arm-none-eabi/lib/thumb/v7e-m+fp/hard/libc_nano.a(lib_a-lock.o)
__retarget_lock_release_recursive                 /home/slombardo/.arduino15/packages/adafruit/tools/arm-none-eabi-gcc/9-2019q4/bin/../lib/gcc/arm-none-eabi/9.2.1/../../../../arm-none-eabi/lib/thumb/v7e-m+fp/hard/libc_nano.a(lib_a-lock.o)
                                                  /home/slombardo/.arduino15/packages/adafruit/tools/arm-none-eabi-gcc/9-2019q4/bin/../lib/gcc/arm-none-eabi/9.2.1/../../../../arm-none-eabi/lib/thumb/v7e-m+fp/hard/libc_nano.a(lib_a-putc.o)
                                                  /home/slombardo/.arduino15/packages/adafruit/tools/arm-none-eabi-gcc/9-2019q4/bin/../lib/gcc/arm-none-eabi/9.2.1/../../../../arm-none-eabi/lib/thumb/v7e-m+fp/hard/libc_nano.a(lib_a-nano-vfprintf.o)
                                                  /home/slombardo/.arduino15/packages/adafruit/tools/arm-none-eabi-gcc/9-2019q4/bin/../lib/gcc/arm-none-eabi/9.2.1/../../../../arm-none-eabi/lib/thumb/v7e-m+fp/hard/libc_nano.a(lib_a-mlock.o)
                                                  /home/slombardo/.arduino15/packages/adafruit/tools/arm-none-eabi-gcc/9-2019q4/bin/../lib/gcc/arm-none-eabi/9.2.1/../../../../arm-none-eabi/lib/thumb/v7e-m+fp/hard/libc_nano.a(lib_a-findfp.o)
                                                  /home/slombardo/.arduino15/packages/adafruit/tools/arm-none-eabi-gcc/9-2019q4/bin/../lib/gcc/arm-none-eabi/9.2.1/../../../../arm-none-eabi/lib/thumb/v7e-m+fp/hard/libc_nano.a(lib_a-fflush.o)
                                                  /home/slombardo/.arduino15/packages/adafruit/tools/arm-none-eabi-gcc/9-2019q4/bin/../lib/gcc/arm-none-eabi/9.2.1/../../../../arm-none-eabi/lib/thumb/v7e-m+fp/hard/libc_nano.a(lib_a-puts.o)
__retarget_lock_try_acquire                       /home/slombardo/.arduino15/packages/adafruit/tools/arm-none-eabi-gcc/9-2019q4/bin/../lib/gcc/arm-none-eabi/9.2.1/../../../../arm-none-eabi/lib/thumb/v7e-m+fp/hard/libc_nano.a(lib_a-lock.o)
__retarget_lock_try_acquire_recursive             /home/slombardo/.arduino15/packages/adafruit/tools/arm-none-eabi-gcc/9-2019q4/bin/../lib/gcc/arm-none-eabi/9.2.1/../../../../arm-none-eabi/lib/thumb/v7e-m+fp/hard/libc_nano.a(lib_a-lock.o)
__s2b                                             /home/slombardo/.arduino15/packages/adafruit/tools/arm-none-eabi-gcc/9-2019q4/bin/../lib/gcc/arm-none-eabi/9.2.1/../../../../arm-none-eabi/lib/thumb/v7e-m+fp/hard/libc_nano.a(lib_a-mprec.o)
__sclose                                          /home/slombardo/.arduino15/packages/adafruit/tools/arm-none-eabi-gcc/9-2019q4/bin/../lib/gcc/arm-none-eabi/9.2.1/../../../../arm-none-eabi/lib/thumb/v7e-m+fp/hard/libc_nano.a(lib_a-stdio.o)
                                                  /home/slombardo/.arduino15/packages/adafruit/tools/arm-none-eabi-gcc/9-2019q4/bin/../lib/gcc/arm-none-eabi/9.2.1/../../../../arm-none-eabi/lib/thumb/v7e-m+fp/hard/libc_nano.a(lib_a-findfp.o)
__seofread                                        /home/slombardo/.arduino15/packages/adafruit/tools/arm-none-eabi-gcc/9-2019q4/bin/../lib/gcc/arm-none-eabi/9.2.1/../../../../arm-none-eabi/lib/thumb/v7e-m+fp/hard/libc_nano.a(lib_a-stdio.o)
__sf_fake_stderr                                  /home/slombardo/.arduino15/packages/adafruit/tools/arm-none-eabi-gcc/9-2019q4/bin/../lib/gcc/arm-none-eabi/9.2.1/../../../../arm-none-eabi/lib/thumb/v7e-m+fp/hard/libc_nano.a(lib_a-findfp.o)
                                                  /home/slombardo/.arduino15/packages/adafruit/tools/arm-none-eabi-gcc/9-2019q4/bin/../lib/gcc/arm-none-eabi/9.2.1/../../../../arm-none-eabi/lib/thumb/v7e-m+fp/hard/libc_nano.a(lib_a-putc.o)
                                                  /home/slombardo/.arduino15/packages/adafruit/tools/arm-none-eabi-gcc/9-2019q4/bin/../lib/gcc/arm-none-eabi/9.2.1/../../../../arm-none-eabi/lib/thumb/v7e-m+fp/hard/libc_nano.a(lib_a-nano-vfprintf.o)
                                                  /home/slombardo/.arduino15/packages/adafruit/tools/arm-none-eabi-gcc/9-2019q4/bin/../lib/gcc/arm-none-eabi/9.2.1/../../../../arm-none-eabi/lib/thumb/v7e-m+fp/hard/libc_nano.a(lib_a-fflush.o)
                                                  /home/slombardo/.arduino15/packages/adafruit/tools/arm-none-eabi-gcc/9-2019q4/bin/../lib/gcc/arm-none-eabi/9.2.1/../../../../arm-none-eabi/lib/thumb/v7e-m+fp/hard/libc_nano.a(lib_a-wsetup.o)
                                                  /home/slombardo/.arduino15/packages/adafruit/tools/arm-none-eabi-gcc/9-2019q4/bin/../lib/gcc/arm-none-eabi/9.2.1/../../../../arm-none-eabi/lib/thumb/v7e-m+fp/hard/libc_nano.a(lib_a-wbuf.o)
                                                  /home/slombardo/.arduino15/packages/adafruit/tools/arm-none-eabi-gcc/9-2019q4/bin/../lib/gcc/arm-none-eabi/9.2.1/../../../../arm-none-eabi/lib/thumb/v7e-m+fp/hard/libc_nano.a(lib_a-puts.o)
                                                  /home/slombardo/.arduino15/packages/adafruit/tools/arm-none-eabi-gcc/9-2019q4/bin/../lib/gcc/arm-none-eabi/9.2.1/../../../../arm-none-eabi/lib/thumb/v7e-m+fp/hard/libc_nano.a(lib_a-impure.o)
__sf_fake_stdin                                   /home/slombardo/.arduino15/packages/adafruit/tools/arm-none-eabi-gcc/9-2019q4/bin/../lib/gcc/arm-none-eabi/9.2.1/../../../../arm-none-eabi/lib/thumb/v7e-m+fp/hard/libc_nano.a(lib_a-findfp.o)
                                                  /home/slombardo/.arduino15/packages/adafruit/tools/arm-none-eabi-gcc/9-2019q4/bin/../lib/gcc/arm-none-eabi/9.2.1/../../../../arm-none-eabi/lib/thumb/v7e-m+fp/hard/libc_nano.a(lib_a-putc.o)
                                                  /home/slombardo/.arduino15/packages/adafruit/tools/arm-none-eabi-gcc/9-2019q4/bin/../lib/gcc/arm-none-eabi/9.2.1/../../../../arm-none-eabi/lib/thumb/v7e-m+fp/hard/libc_nano.a(lib_a-nano-vfprintf.o)
                                                  /home/slombardo/.arduino15/packages/adafruit/tools/arm-none-eabi-gcc/9-2019q4/bin/../lib/gcc/arm-none-eabi/9.2.1/../../../../arm-none-eabi/lib/thumb/v7e-m+fp/hard/libc_nano.a(lib_a-fflush.o)
                                                  /home/slombardo/.arduino15/packages/adafruit/tools/arm-none-eabi-gcc/9-2019q4/bin/../lib/gcc/arm-none-eabi/9.2.1/../../../../arm-none-eabi/lib/thumb/v7e-m+fp/hard/libc_nano.a(lib_a-wsetup.o)
                                                  /home/slombardo/.arduino15/packages/adafruit/tools/arm-none-eabi-gcc/9-2019q4/bin/../lib/gcc/arm-none-eabi/9.2.1/../../../../arm-none-eabi/lib/thumb/v7e-m+fp/hard/libc_nano.a(lib_a-wbuf.o)
                                                  /home/slombardo/.arduino15/packages/adafruit/tools/arm-none-eabi-gcc/9-2019q4/bin/../lib/gcc/arm-none-eabi/9.2.1/../../../../arm-none-eabi/lib/thumb/v7e-m+fp/hard/libc_nano.a(lib_a-puts.o)
                                                  /home/slombardo/.arduino15/packages/adafruit/tools/arm-none-eabi-gcc/9-2019q4/bin/../lib/gcc/arm-none-eabi/9.2.1/../../../../arm-none-eabi/lib/thumb/v7e-m+fp/hard/libc_nano.a(lib_a-impure.o)
__sf_fake_stdout                                  /home/slombardo/.arduino15/packages/adafruit/tools/arm-none-eabi-gcc/9-2019q4/bin/../lib/gcc/arm-none-eabi/9.2.1/../../../../arm-none-eabi/lib/thumb/v7e-m+fp/hard/libc_nano.a(lib_a-findfp.o)
                                                  /home/slombardo/.arduino15/packages/adafruit/tools/arm-none-eabi-gcc/9-2019q4/bin/../lib/gcc/arm-none-eabi/9.2.1/../../../../arm-none-eabi/lib/thumb/v7e-m+fp/hard/libc_nano.a(lib_a-putc.o)
                                                  /home/slombardo/.arduino15/packages/adafruit/tools/arm-none-eabi-gcc/9-2019q4/bin/../lib/gcc/arm-none-eabi/9.2.1/../../../../arm-none-eabi/lib/thumb/v7e-m+fp/hard/libc_nano.a(lib_a-nano-vfprintf.o)
                                                  /home/slombardo/.arduino15/packages/adafruit/tools/arm-none-eabi-gcc/9-2019q4/bin/../lib/gcc/arm-none-eabi/9.2.1/../../../../arm-none-eabi/lib/thumb/v7e-m+fp/hard/libc_nano.a(lib_a-fflush.o)
                                                  /home/slombardo/.arduino15/packages/adafruit/tools/arm-none-eabi-gcc/9-2019q4/bin/../lib/gcc/arm-none-eabi/9.2.1/../../../../arm-none-eabi/lib/thumb/v7e-m+fp/hard/libc_nano.a(lib_a-wsetup.o)
                                                  /home/slombardo/.arduino15/packages/adafruit/tools/arm-none-eabi-gcc/9-2019q4/bin/../lib/gcc/arm-none-eabi/9.2.1/../../../../arm-none-eabi/lib/thumb/v7e-m+fp/hard/libc_nano.a(lib_a-wbuf.o)
                                                  /home/slombardo/.arduino15/packages/adafruit/tools/arm-none-eabi-gcc/9-2019q4/bin/../lib/gcc/arm-none-eabi/9.2.1/../../../../arm-none-eabi/lib/thumb/v7e-m+fp/hard/libc_nano.a(lib_a-puts.o)
                                                  /home/slombardo/.arduino15/packages/adafruit/tools/arm-none-eabi-gcc/9-2019q4/bin/../lib/gcc/arm-none-eabi/9.2.1/../../../../arm-none-eabi/lib/thumb/v7e-m+fp/hard/libc_nano.a(lib_a-impure.o)
__sflush_r                                        /home/slombardo/.arduino15/packages/adafruit/tools/arm-none-eabi-gcc/9-2019q4/bin/../lib/gcc/arm-none-eabi/9.2.1/../../../../arm-none-eabi/lib/thumb/v7e-m+fp/hard/libc_nano.a(lib_a-fflush.o)
__sfmoreglue                                      /home/slombardo/.arduino15/packages/adafruit/tools/arm-none-eabi-gcc/9-2019q4/bin/../lib/gcc/arm-none-eabi/9.2.1/../../../../arm-none-eabi/lib/thumb/v7e-m+fp/hard/libc_nano.a(lib_a-findfp.o)
__sfp                                             /home/slombardo/.arduino15/packages/adafruit/tools/arm-none-eabi-gcc/9-2019q4/bin/../lib/gcc/arm-none-eabi/9.2.1/../../../../arm-none-eabi/lib/thumb/v7e-m+fp/hard/libc_nano.a(lib_a-findfp.o)
__sfp_lock_acquire                                /home/slombardo/.arduino15/packages/adafruit/tools/arm-none-eabi-gcc/9-2019q4/bin/../lib/gcc/arm-none-eabi/9.2.1/../../../../arm-none-eabi/lib/thumb/v7e-m+fp/hard/libc_nano.a(lib_a-findfp.o)
__sfp_lock_release                                /home/slombardo/.arduino15/packages/adafruit/tools/arm-none-eabi-gcc/9-2019q4/bin/../lib/gcc/arm-none-eabi/9.2.1/../../../../arm-none-eabi/lib/thumb/v7e-m+fp/hard/libc_nano.a(lib_a-findfp.o)
__sfputs_r                                        /home/slombardo/.arduino15/packages/adafruit/tools/arm-none-eabi-gcc/9-2019q4/bin/../lib/gcc/arm-none-eabi/9.2.1/../../../../arm-none-eabi/lib/thumb/v7e-m+fp/hard/libc_nano.a(lib_a-nano-vfprintf.o)
__sfvwrite_r                                      /home/slombardo/.arduino15/packages/adafruit/tools/arm-none-eabi-gcc/9-2019q4/bin/../lib/gcc/arm-none-eabi/9.2.1/../../../../arm-none-eabi/lib/thumb/v7e-m+fp/hard/libc_nano.a(lib_a-fvwrite.o)
                                                  /home/slombardo/.arduino15/packages/adafruit/tools/arm-none-eabi-gcc/9-2019q4/bin/../lib/gcc/arm-none-eabi/9.2.1/../../../../arm-none-eabi/lib/thumb/v7e-m+fp/hard/libc_nano.a(lib_a-nano-vfprintf.o)
__sinit                                           /home/slombardo/.arduino15/packages/adafruit/tools/arm-none-eabi-gcc/9-2019q4/bin/../lib/gcc/arm-none-eabi/9.2.1/../../../../arm-none-eabi/lib/thumb/v7e-m+fp/hard/libc_nano.a(lib_a-findfp.o)
                                                  /home/slombardo/.arduino15/packages/adafruit/tools/arm-none-eabi-gcc/9-2019q4/bin/../lib/gcc/arm-none-eabi/9.2.1/../../../../arm-none-eabi/lib/thumb/v7e-m+fp/hard/libc_nano.a(lib_a-putc.o)
                                                  /home/slombardo/.arduino15/packages/adafruit/tools/arm-none-eabi-gcc/9-2019q4/bin/../lib/gcc/arm-none-eabi/9.2.1/../../../../arm-none-eabi/lib/thumb/v7e-m+fp/hard/libc_nano.a(lib_a-nano-vfprintf.o)
                                                  /home/slombardo/.arduino15/packages/adafruit/tools/arm-none-eabi-gcc/9-2019q4/bin/../lib/gcc/arm-none-eabi/9.2.1/../../../../arm-none-eabi/lib/thumb/v7e-m+fp/hard/libc_nano.a(lib_a-fflush.o)
                                                  /home/slombardo/.arduino15/packages/adafruit/tools/arm-none-eabi-gcc/9-2019q4/bin/../lib/gcc/arm-none-eabi/9.2.1/../../../../arm-none-eabi/lib/thumb/v7e-m+fp/hard/libc_nano.a(lib_a-wsetup.o)
                                                  /home/slombardo/.arduino15/packages/adafruit/tools/arm-none-eabi-gcc/9-2019q4/bin/../lib/gcc/arm-none-eabi/9.2.1/../../../../arm-none-eabi/lib/thumb/v7e-m+fp/hard/libc_nano.a(lib_a-wbuf.o)
                                                  /home/slombardo/.arduino15/packages/adafruit/tools/arm-none-eabi-gcc/9-2019q4/bin/../lib/gcc/arm-none-eabi/9.2.1/../../../../arm-none-eabi/lib/thumb/v7e-m+fp/hard/libc_nano.a(lib_a-puts.o)
                                                  /home/slombardo/.arduino15/packages/adafruit/tools/arm-none-eabi-gcc/9-2019q4/bin/../lib/gcc/arm-none-eabi/9.2.1/../../../../arm-none-eabi/lib/thumb/v7e-m+fp/hard/libc_nano.a(lib_a-putchar.o)
                                                  /home/slombardo/.arduino15/packages/adafruit/tools/arm-none-eabi-gcc/9-2019q4/bin/../lib/gcc/arm-none-eabi/9.2.1/../../../../arm-none-eabi/lib/thumb/v7e-m+fp/hard/libc_nano.a(lib_a-printf.o)
                                                  /home/slombardo/.arduino15/packages/adafruit/tools/arm-none-eabi-gcc/9-2019q4/bin/../lib/gcc/arm-none-eabi/9.2.1/../../../../arm-none-eabi/lib/thumb/v7e-m+fp/hard/libc_nano.a(lib_a-mstats.o)
__sinit_lock_acquire                              /home/slombardo/.arduino15/packages/adafruit/tools/arm-none-eabi-gcc/9-2019q4/bin/../lib/gcc/arm-none-eabi/9.2.1/../../../../arm-none-eabi/lib/thumb/v7e-m+fp/hard/libc_nano.a(lib_a-findfp.o)
__sinit_lock_release                              /home/slombardo/.arduino15/packages/adafruit/tools/arm-none-eabi-gcc/9-2019q4/bin/../lib/gcc/arm-none-eabi/9.2.1/../../../../arm-none-eabi/lib/thumb/v7e-m+fp/hard/libc_nano.a(lib_a-findfp.o)
__smakebuf_r                                      /home/slombardo/.arduino15/packages/adafruit/tools/arm-none-eabi-gcc/9-2019q4/bin/../lib/gcc/arm-none-eabi/9.2.1/../../../../arm-none-eabi/lib/thumb/v7e-m+fp/hard/libc_nano.a(lib_a-makebuf.o)
                                                  /home/slombardo/.arduino15/packages/adafruit/tools/arm-none-eabi-gcc/9-2019q4/bin/../lib/gcc/arm-none-eabi/9.2.1/../../../../arm-none-eabi/lib/thumb/v7e-m+fp/hard/libc_nano.a(lib_a-wsetup.o)
__sprint_r                                        /home/slombardo/.arduino15/packages/adafruit/tools/arm-none-eabi-gcc/9-2019q4/bin/../lib/gcc/arm-none-eabi/9.2.1/../../../../arm-none-eabi/lib/thumb/v7e-m+fp/hard/libc_nano.a(lib_a-nano-vfprintf.o)
__sread                                           /home/slombardo/.arduino15/packages/adafruit/tools/arm-none-eabi-gcc/9-2019q4/bin/../lib/gcc/arm-none-eabi/9.2.1/../../../../arm-none-eabi/lib/thumb/v7e-m+fp/hard/libc_nano.a(lib_a-stdio.o)
                                                  /home/slombardo/.arduino15/packages/adafruit/tools/arm-none-eabi-gcc/9-2019q4/bin/../lib/gcc/arm-none-eabi/9.2.1/../../../../arm-none-eabi/lib/thumb/v7e-m+fp/hard/libc_nano.a(lib_a-findfp.o)
__sseek                                           /home/slombardo/.arduino15/packages/adafruit/tools/arm-none-eabi-gcc/9-2019q4/bin/../lib/gcc/arm-none-eabi/9.2.1/../../../../arm-none-eabi/lib/thumb/v7e-m+fp/hard/libc_nano.a(lib_a-stdio.o)
                                                  /home/slombardo/.arduino15/packages/adafruit/tools/arm-none-eabi-gcc/9-2019q4/bin/../lib/gcc/arm-none-eabi/9.2.1/../../../../arm-none-eabi/lib/thumb/v7e-m+fp/hard/libc_nano.a(lib_a-findfp.o)
__ssprint_r                                       /home/slombardo/.arduino15/packages/adafruit/tools/arm-none-eabi-gcc/9-2019q4/bin/../lib/gcc/arm-none-eabi/9.2.1/../../../../arm-none-eabi/lib/thumb/v7e-m+fp/hard/libc_nano.a(lib_a-nano-svfprintf.o)
__ssputs_r                                        /home/slombardo/.arduino15/packages/adafruit/tools/arm-none-eabi-gcc/9-2019q4/bin/../lib/gcc/arm-none-eabi/9.2.1/../../../../arm-none-eabi/lib/thumb/v7e-m+fp/hard/libc_nano.a(lib_a-nano-svfprintf.o)
__stack                                           /home/slombardo/.arduino15/packages/adafruit/tools/arm-none-eabi-gcc/9-2019q4/bin/../lib/gcc/arm-none-eabi/9.2.1/../../../../arm-none-eabi/lib/thumb/v7e-m+fp/hard/crt0.o
__subdf3                                          /home/slombardo/.arduino15/packages/adafruit/tools/arm-none-eabi-gcc/9-2019q4/bin/../lib/gcc/arm-none-eabi/9.2.1/thumb/v7e-m+fp/hard/libgcc.a(_arm_addsubdf3.o)
__swbuf                                           /home/slombardo/.arduino15/packages/adafruit/tools/arm-none-eabi-gcc/9-2019q4/bin/../lib/gcc/arm-none-eabi/9.2.1/../../../../arm-none-eabi/lib/thumb/v7e-m+fp/hard/libc_nano.a(lib_a-wbuf.o)
__swbuf_r                                         /home/slombardo/.arduino15/packages/adafruit/tools/arm-none-eabi-gcc/9-2019q4/bin/../lib/gcc/arm-none-eabi/9.2.1/../../../../arm-none-eabi/lib/thumb/v7e-m+fp/hard/libc_nano.a(lib_a-wbuf.o)
                                                  /home/slombardo/.arduino15/packages/adafruit/tools/arm-none-eabi-gcc/9-2019q4/bin/../lib/gcc/arm-none-eabi/9.2.1/../../../../arm-none-eabi/lib/thumb/v7e-m+fp/hard/libc_nano.a(lib_a-putc.o)
                                                  /home/slombardo/.arduino15/packages/adafruit/tools/arm-none-eabi-gcc/9-2019q4/bin/../lib/gcc/arm-none-eabi/9.2.1/../../../../arm-none-eabi/lib/thumb/v7e-m+fp/hard/libc_nano.a(lib_a-nano-vfprintf.o)
                                                  /home/slombardo/.arduino15/packages/adafruit/tools/arm-none-eabi-gcc/9-2019q4/bin/../lib/gcc/arm-none-eabi/9.2.1/../../../../arm-none-eabi/lib/thumb/v7e-m+fp/hard/libc_nano.a(lib_a-puts.o)
__swhatbuf_r                                      /home/slombardo/.arduino15/packages/adafruit/tools/arm-none-eabi-gcc/9-2019q4/bin/../lib/gcc/arm-none-eabi/9.2.1/../../../../arm-none-eabi/lib/thumb/v7e-m+fp/hard/libc_nano.a(lib_a-makebuf.o)
__swrite                                          /home/slombardo/.arduino15/packages/adafruit/tools/arm-none-eabi-gcc/9-2019q4/bin/../lib/gcc/arm-none-eabi/9.2.1/../../../../arm-none-eabi/lib/thumb/v7e-m+fp/hard/libc_nano.a(lib_a-stdio.o)
                                                  /home/slombardo/.arduino15/packages/adafruit/tools/arm-none-eabi-gcc/9-2019q4/bin/../lib/gcc/arm-none-eabi/9.2.1/../../../../arm-none-eabi/lib/thumb/v7e-m+fp/hard/libc_nano.a(lib_a-findfp.o)
__swsetup_r                                       /home/slombardo/.arduino15/packages/adafruit/tools/arm-none-eabi-gcc/9-2019q4/bin/../lib/gcc/arm-none-eabi/9.2.1/../../../../arm-none-eabi/lib/thumb/v7e-m+fp/hard/libc_nano.a(lib_a-wsetup.o)
                                                  /home/slombardo/.arduino15/packages/adafruit/tools/arm-none-eabi-gcc/9-2019q4/bin/../lib/gcc/arm-none-eabi/9.2.1/../../../../arm-none-eabi/lib/thumb/v7e-m+fp/hard/libc_nano.a(lib_a-fvwrite.o)
                                                  /home/slombardo/.arduino15/packages/adafruit/tools/arm-none-eabi-gcc/9-2019q4/bin/../lib/gcc/arm-none-eabi/9.2.1/../../../../arm-none-eabi/lib/thumb/v7e-m+fp/hard/libc_nano.a(lib_a-nano-vfprintf.o)
                                                  /home/slombardo/.arduino15/packages/adafruit/tools/arm-none-eabi-gcc/9-2019q4/bin/../lib/gcc/arm-none-eabi/9.2.1/../../../../arm-none-eabi/lib/thumb/v7e-m+fp/hard/libc_nano.a(lib_a-wbuf.o)
                                                  /home/slombardo/.arduino15/packages/adafruit/tools/arm-none-eabi-gcc/9-2019q4/bin/../lib/gcc/arm-none-eabi/9.2.1/../../../../arm-none-eabi/lib/thumb/v7e-m+fp/hard/libc_nano.a(lib_a-puts.o)
__ulp                                             /home/slombardo/.arduino15/packages/adafruit/tools/arm-none-eabi-gcc/9-2019q4/bin/../lib/gcc/arm-none-eabi/9.2.1/../../../../arm-none-eabi/lib/thumb/v7e-m+fp/hard/libc_nano.a(lib_a-mprec.o)
__unorddf2                                        /home/slombardo/.arduino15/packages/adafruit/tools/arm-none-eabi-gcc/9-2019q4/bin/../lib/gcc/arm-none-eabi/9.2.1/thumb/v7e-m+fp/hard/libgcc.a(_arm_unorddf2.o)
_calloc_r                                         /home/slombardo/.arduino15/packages/adafruit/tools/arm-none-eabi-gcc/9-2019q4/bin/../lib/gcc/arm-none-eabi/9.2.1/../../../../arm-none-eabi/lib/thumb/v7e-m+fp/hard/libc_nano.a(lib_a-nano-callocr.o)
                                                  /home/slombardo/.arduino15/packages/adafruit/tools/arm-none-eabi-gcc/9-2019q4/bin/../lib/gcc/arm-none-eabi/9.2.1/../../../../arm-none-eabi/lib/thumb/v7e-m+fp/hard/libc_nano.a(lib_a-mprec.o)
_cleanup                                          /home/slombardo/.arduino15/packages/adafruit/tools/arm-none-eabi-gcc/9-2019q4/bin/../lib/gcc/arm-none-eabi/9.2.1/../../../../arm-none-eabi/lib/thumb/v7e-m+fp/hard/libc_nano.a(lib_a-findfp.o)
_cleanup_r                                        /home/slombardo/.arduino15/packages/adafruit/tools/arm-none-eabi-gcc/9-2019q4/bin/../lib/gcc/arm-none-eabi/9.2.1/../../../../arm-none-eabi/lib/thumb/v7e-m+fp/hard/libc_nano.a(lib_a-findfp.o)
                                                  /home/slombardo/.arduino15/packages/adafruit/tools/arm-none-eabi-gcc/9-2019q4/bin/../lib/gcc/arm-none-eabi/9.2.1/../../../../arm-none-eabi/lib/thumb/v7e-m+fp/hard/libc_nano.a(lib_a-makebuf.o)
_close                                            /home/slombardo/.arduino15/packages/adafruit/tools/arm-none-eabi-gcc/9-2019q4/bin/../lib/gcc/arm-none-eabi/9.2.1/../../../../arm-none-eabi/lib/thumb/v7e-m+fp/hard/libnosys.a(close.o)
                                                  /home/slombardo/.arduino15/packages/adafruit/tools/arm-none-eabi-gcc/9-2019q4/bin/../lib/gcc/arm-none-eabi/9.2.1/../../../../arm-none-eabi/lib/thumb/v7e-m+fp/hard/libc_nano.a(lib_a-closer.o)
_close_r                                          /home/slombardo/.arduino15/packages/adafruit/tools/arm-none-eabi-gcc/9-2019q4/bin/../lib/gcc/arm-none-eabi/9.2.1/../../../../arm-none-eabi/lib/thumb/v7e-m+fp/hard/libc_nano.a(lib_a-closer.o)
                                                  /home/slombardo/.arduino15/packages/adafruit/tools/arm-none-eabi-gcc/9-2019q4/bin/../lib/gcc/arm-none-eabi/9.2.1/../../../../arm-none-eabi/lib/thumb/v7e-m+fp/hard/libc_nano.a(lib_a-stdio.o)
_ctype_                                           /home/slombardo/.arduino15/packages/adafruit/tools/arm-none-eabi-gcc/9-2019q4/bin/../lib/gcc/arm-none-eabi/9.2.1/../../../../arm-none-eabi/lib/thumb/v7e-m+fp/hard/libc_nano.a(lib_a-ctype_.o)
                                                  /home/slombardo/.arduino15/packages/adafruit/tools/arm-none-eabi-gcc/9-2019q4/bin/../lib/gcc/arm-none-eabi/9.2.1/../../../../arm-none-eabi/lib/thumb/v7e-m+fp/hard/libc_nano.a(lib_a-locale.o)
                                                  /home/slombardo/.arduino15/packages/adafruit/tools/arm-none-eabi-gcc/9-2019q4/bin/../lib/gcc/arm-none-eabi/9.2.1/../../../../arm-none-eabi/lib/thumb/v7e-m+fp/hard/libc_nano.a(lib_a-isprint.o)
_dtoa_r                                           /home/slombardo/.arduino15/packages/adafruit/tools/arm-none-eabi-gcc/9-2019q4/bin/../lib/gcc/arm-none-eabi/9.2.1/../../../../arm-none-eabi/lib/thumb/v7e-m+fp/hard/libc_nano.a(lib_a-dtoa.o)
                                                  /home/slombardo/.arduino15/packages/adafruit/tools/arm-none-eabi-gcc/9-2019q4/bin/../lib/gcc/arm-none-eabi/9.2.1/../../../../arm-none-eabi/lib/thumb/v7e-m+fp/hard/libc_nano.a(lib_a-nano-vfprintf_float.o)
_exit                                             /home/slombardo/.arduino15/packages/adafruit/tools/arm-none-eabi-gcc/9-2019q4/bin/../lib/gcc/arm-none-eabi/9.2.1/../../../../arm-none-eabi/lib/thumb/v7e-m+fp/hard/libnosys.a(_exit.o)
                                                  /home/slombardo/.arduino15/packages/adafruit/tools/arm-none-eabi-gcc/9-2019q4/bin/../lib/gcc/arm-none-eabi/9.2.1/../../../../arm-none-eabi/lib/thumb/v7e-m+fp/hard/libc_nano.a(lib_a-exit.o)
_fflush_r                                         /home/slombardo/.arduino15/packages/adafruit/tools/arm-none-eabi-gcc/9-2019q4/bin/../lib/gcc/arm-none-eabi/9.2.1/../../../../arm-none-eabi/lib/thumb/v7e-m+fp/hard/libc_nano.a(lib_a-fflush.o)
                                                  /home/slombardo/.arduino15/packages/adafruit/tools/arm-none-eabi-gcc/9-2019q4/bin/../lib/gcc/arm-none-eabi/9.2.1/../../../../arm-none-eabi/lib/thumb/v7e-m+fp/hard/libc_nano.a(lib_a-fvwrite.o)
                                                  /home/slombardo/.arduino15/packages/adafruit/tools/arm-none-eabi-gcc/9-2019q4/bin/../lib/gcc/arm-none-eabi/9.2.1/../../../../arm-none-eabi/lib/thumb/v7e-m+fp/hard/libc_nano.a(lib_a-findfp.o)
                                                  /home/slombardo/.arduino15/packages/adafruit/tools/arm-none-eabi-gcc/9-2019q4/bin/../lib/gcc/arm-none-eabi/9.2.1/../../../../arm-none-eabi/lib/thumb/v7e-m+fp/hard/libc_nano.a(lib_a-wbuf.o)
_fini                                             /home/slombardo/.arduino15/packages/adafruit/tools/arm-none-eabi-gcc/9-2019q4/bin/../lib/gcc/arm-none-eabi/9.2.1/thumb/v7e-m+fp/hard/crti.o
_fiprintf_r                                       /home/slombardo/.arduino15/packages/adafruit/tools/arm-none-eabi-gcc/9-2019q4/bin/../lib/gcc/arm-none-eabi/9.2.1/../../../../arm-none-eabi/lib/thumb/v7e-m+fp/hard/libc_nano.a(lib_a-fprintf.o)
_fprintf_r                                        /home/slombardo/.arduino15/packages/adafruit/tools/arm-none-eabi-gcc/9-2019q4/bin/../lib/gcc/arm-none-eabi/9.2.1/../../../../arm-none-eabi/lib/thumb/v7e-m+fp/hard/libc_nano.a(lib_a-fprintf.o)
_free_r                                           /home/slombardo/.arduino15/packages/adafruit/tools/arm-none-eabi-gcc/9-2019q4/bin/../lib/gcc/arm-none-eabi/9.2.1/../../../../arm-none-eabi/lib/thumb/v7e-m+fp/hard/libc_nano.a(lib_a-nano-freer.o)
                                                  /home/slombardo/.arduino15/packages/adafruit/tools/arm-none-eabi-gcc/9-2019q4/bin/../lib/gcc/arm-none-eabi/9.2.1/../../../../arm-none-eabi/lib/thumb/v7e-m+fp/hard/libc_nano.a(lib_a-nano-reallocr.o)
                                                  /home/slombardo/.arduino15/packages/adafruit/tools/arm-none-eabi-gcc/9-2019q4/bin/../lib/gcc/arm-none-eabi/9.2.1/../../../../arm-none-eabi/lib/thumb/v7e-m+fp/hard/libc_nano.a(lib_a-fvwrite.o)
                                                  /home/slombardo/.arduino15/packages/adafruit/tools/arm-none-eabi-gcc/9-2019q4/bin/../lib/gcc/arm-none-eabi/9.2.1/../../../../arm-none-eabi/lib/thumb/v7e-m+fp/hard/libc_nano.a(lib_a-reent.o)
                                                  /home/slombardo/.arduino15/packages/adafruit/tools/arm-none-eabi-gcc/9-2019q4/bin/../lib/gcc/arm-none-eabi/9.2.1/../../../../arm-none-eabi/lib/thumb/v7e-m+fp/hard/libc_nano.a(lib_a-nano-svfprintf.o)
                                                  /home/slombardo/.arduino15/packages/adafruit/tools/arm-none-eabi-gcc/9-2019q4/bin/../lib/gcc/arm-none-eabi/9.2.1/../../../../arm-none-eabi/lib/thumb/v7e-m+fp/hard/libc_nano.a(lib_a-fflush.o)
                                                  /home/slombardo/.arduino15/packages/adafruit/tools/arm-none-eabi-gcc/9-2019q4/bin/../lib/gcc/arm-none-eabi/9.2.1/../../../../arm-none-eabi/lib/thumb/v7e-m+fp/hard/libc_nano.a(lib_a-wsetup.o)
                                                  /home/slombardo/.arduino15/packages/adafruit/tools/arm-none-eabi-gcc/9-2019q4/bin/../lib/gcc/arm-none-eabi/9.2.1/../../../../arm-none-eabi/lib/thumb/v7e-m+fp/hard/libc_nano.a(lib_a-malloc.o)
_fstat                                            /home/slombardo/.arduino15/packages/adafruit/tools/arm-none-eabi-gcc/9-2019q4/bin/../lib/gcc/arm-none-eabi/9.2.1/../../../../arm-none-eabi/lib/thumb/v7e-m+fp/hard/libnosys.a(fstat.o)
                                                  /home/slombardo/.arduino15/packages/adafruit/tools/arm-none-eabi-gcc/9-2019q4/bin/../lib/gcc/arm-none-eabi/9.2.1/../../../../arm-none-eabi/lib/thumb/v7e-m+fp/hard/libc_nano.a(lib_a-fstatr.o)
_fstat_r                                          /home/slombardo/.arduino15/packages/adafruit/tools/arm-none-eabi-gcc/9-2019q4/bin/../lib/gcc/arm-none-eabi/9.2.1/../../../../arm-none-eabi/lib/thumb/v7e-m+fp/hard/libc_nano.a(lib_a-fstatr.o)
                                                  /home/slombardo/.arduino15/packages/adafruit/tools/arm-none-eabi-gcc/9-2019q4/bin/../lib/gcc/arm-none-eabi/9.2.1/../../../../arm-none-eabi/lib/thumb/v7e-m+fp/hard/libc_nano.a(lib_a-makebuf.o)
_fwalk                                            /home/slombardo/.arduino15/packages/adafruit/tools/arm-none-eabi-gcc/9-2019q4/bin/../lib/gcc/arm-none-eabi/9.2.1/../../../../arm-none-eabi/lib/thumb/v7e-m+fp/hard/libc_nano.a(lib_a-fwalk.o)
                                                  /home/slombardo/.arduino15/packages/adafruit/tools/arm-none-eabi-gcc/9-2019q4/bin/../lib/gcc/arm-none-eabi/9.2.1/../../../../arm-none-eabi/lib/thumb/v7e-m+fp/hard/libc_nano.a(lib_a-findfp.o)
_fwalk_reent                                      /home/slombardo/.arduino15/packages/adafruit/tools/arm-none-eabi-gcc/9-2019q4/bin/../lib/gcc/arm-none-eabi/9.2.1/../../../../arm-none-eabi/lib/thumb/v7e-m+fp/hard/libc_nano.a(lib_a-fwalk.o)
                                                  /home/slombardo/.arduino15/packages/adafruit/tools/arm-none-eabi-gcc/9-2019q4/bin/../lib/gcc/arm-none-eabi/9.2.1/../../../../arm-none-eabi/lib/thumb/v7e-m+fp/hard/libc_nano.a(lib_a-findfp.o)
                                                  /home/slombardo/.arduino15/packages/adafruit/tools/arm-none-eabi-gcc/9-2019q4/bin/../lib/gcc/arm-none-eabi/9.2.1/../../../../arm-none-eabi/lib/thumb/v7e-m+fp/hard/libc_nano.a(lib_a-fflush.o)
_global_impure_ptr                                /home/slombardo/.arduino15/packages/adafruit/tools/arm-none-eabi-gcc/9-2019q4/bin/../lib/gcc/arm-none-eabi/9.2.1/../../../../arm-none-eabi/lib/thumb/v7e-m+fp/hard/libc_nano.a(lib_a-impure.o)
                                                  /home/slombardo/.arduino15/packages/adafruit/tools/arm-none-eabi-gcc/9-2019q4/bin/../lib/gcc/arm-none-eabi/9.2.1/../../../../arm-none-eabi/lib/thumb/v7e-m+fp/hard/libc_nano.a(lib_a-findfp.o)
                                                  /home/slombardo/.arduino15/packages/adafruit/tools/arm-none-eabi-gcc/9-2019q4/bin/../lib/gcc/arm-none-eabi/9.2.1/../../../../arm-none-eabi/lib/thumb/v7e-m+fp/hard/libc_nano.a(lib_a-fflush.o)
                                                  /home/slombardo/.arduino15/packages/adafruit/tools/arm-none-eabi-gcc/9-2019q4/bin/../lib/gcc/arm-none-eabi/9.2.1/../../../../arm-none-eabi/lib/thumb/v7e-m+fp/hard/libc_nano.a(lib_a-exit.o)
_impure_ptr                                       /home/slombardo/.arduino15/packages/adafruit/tools/arm-none-eabi-gcc/9-2019q4/bin/../lib/gcc/arm-none-eabi/9.2.1/../../../../arm-none-eabi/lib/thumb/v7e-m+fp/hard/libc_nano.a(lib_a-impure.o)
                                                  /home/slombardo/.arduino15/packages/adafruit/tools/arm-none-eabi-gcc/9-2019q4/bin/../lib/gcc/arm-none-eabi/9.2.1/../../../../arm-none-eabi/lib/thumb/v7e-m+fp/hard/libc_nano.a(lib_a-locale.o)
                                                  /home/slombardo/.arduino15/packages/adafruit/tools/arm-none-eabi-gcc/9-2019q4/bin/../lib/gcc/arm-none-eabi/9.2.1/../../../../arm-none-eabi/lib/thumb/v7e-m+fp/hard/libc_nano.a(lib_a-reent.o)
                                                  /home/slombardo/.arduino15/packages/adafruit/tools/arm-none-eabi-gcc/9-2019q4/bin/../lib/gcc/arm-none-eabi/9.2.1/../../../../arm-none-eabi/lib/thumb/v7e-m+fp/hard/libc_nano.a(lib_a-putc.o)
                                                  /home/slombardo/.arduino15/packages/adafruit/tools/arm-none-eabi-gcc/9-2019q4/bin/../lib/gcc/arm-none-eabi/9.2.1/../../../../arm-none-eabi/lib/thumb/v7e-m+fp/hard/libc_nano.a(lib_a-nano-vfprintf.o)
                                                  /home/slombardo/.arduino15/packages/adafruit/tools/arm-none-eabi-gcc/9-2019q4/bin/../lib/gcc/arm-none-eabi/9.2.1/../../../../arm-none-eabi/lib/thumb/v7e-m+fp/hard/libc_nano.a(lib_a-fprintf.o)
                                                  /home/slombardo/.arduino15/packages/adafruit/tools/arm-none-eabi-gcc/9-2019q4/bin/../lib/gcc/arm-none-eabi/9.2.1/../../../../arm-none-eabi/lib/thumb/v7e-m+fp/hard/libc_nano.a(lib_a-findfp.o)
                                                  /home/slombardo/.arduino15/packages/adafruit/tools/arm-none-eabi-gcc/9-2019q4/bin/../lib/gcc/arm-none-eabi/9.2.1/../../../../arm-none-eabi/lib/thumb/v7e-m+fp/hard/libc_nano.a(lib_a-fflush.o)
                                                  /home/slombardo/.arduino15/packages/adafruit/tools/arm-none-eabi-gcc/9-2019q4/bin/../lib/gcc/arm-none-eabi/9.2.1/../../../../arm-none-eabi/lib/thumb/v7e-m+fp/hard/libc_nano.a(lib_a-wsetup.o)
                                                  /home/slombardo/.arduino15/packages/adafruit/tools/arm-none-eabi-gcc/9-2019q4/bin/../lib/gcc/arm-none-eabi/9.2.1/../../../../arm-none-eabi/lib/thumb/v7e-m+fp/hard/libc_nano.a(lib_a-wbuf.o)
                                                  /home/slombardo/.arduino15/packages/adafruit/tools/arm-none-eabi-gcc/9-2019q4/bin/../lib/gcc/arm-none-eabi/9.2.1/../../../../arm-none-eabi/lib/thumb/v7e-m+fp/hard/libc_nano.a(lib_a-vsnprintf.o)
                                                  /home/slombardo/.arduino15/packages/adafruit/tools/arm-none-eabi-gcc/9-2019q4/bin/../lib/gcc/arm-none-eabi/9.2.1/../../../../arm-none-eabi/lib/thumb/v7e-m+fp/hard/libc_nano.a(lib_a-sprintf.o)
                                                  /home/slombardo/.arduino15/packages/adafruit/tools/arm-none-eabi-gcc/9-2019q4/bin/../lib/gcc/arm-none-eabi/9.2.1/../../../../arm-none-eabi/lib/thumb/v7e-m+fp/hard/libc_nano.a(lib_a-snprintf.o)
                                                  /home/slombardo/.arduino15/packages/adafruit/tools/arm-none-eabi-gcc/9-2019q4/bin/../lib/gcc/arm-none-eabi/9.2.1/../../../../arm-none-eabi/lib/thumb/v7e-m+fp/hard/libc_nano.a(lib_a-puts.o)
                                                  /home/slombardo/.arduino15/packages/adafruit/tools/arm-none-eabi-gcc/9-2019q4/bin/../lib/gcc/arm-none-eabi/9.2.1/../../../../arm-none-eabi/lib/thumb/v7e-m+fp/hard/libc_nano.a(lib_a-putchar.o)
                                                  /home/slombardo/.arduino15/packages/adafruit/tools/arm-none-eabi-gcc/9-2019q4/bin/../lib/gcc/arm-none-eabi/9.2.1/../../../../arm-none-eabi/lib/thumb/v7e-m+fp/hard/libc_nano.a(lib_a-printf.o)
                                                  /home/slombardo/.arduino15/packages/adafruit/tools/arm-none-eabi-gcc/9-2019q4/bin/../lib/gcc/arm-none-eabi/9.2.1/../../../../arm-none-eabi/lib/thumb/v7e-m+fp/hard/libc_nano.a(lib_a-nano-mallstatsr.o)
                                                  /home/slombardo/.arduino15/packages/adafruit/tools/arm-none-eabi-gcc/9-2019q4/bin/../lib/gcc/arm-none-eabi/9.2.1/../../../../arm-none-eabi/lib/thumb/v7e-m+fp/hard/libc_nano.a(lib_a-mstats.o)
                                                  /home/slombardo/.arduino15/packages/adafruit/tools/arm-none-eabi-gcc/9-2019q4/bin/../lib/gcc/arm-none-eabi/9.2.1/../../../../arm-none-eabi/lib/thumb/v7e-m+fp/hard/libc_nano.a(lib_a-malloc.o)
_init                                             /home/slombardo/.arduino15/packages/adafruit/tools/arm-none-eabi-gcc/9-2019q4/bin/../lib/gcc/arm-none-eabi/9.2.1/thumb/v7e-m+fp/hard/crti.o
                                                  /home/slombardo/.arduino15/packages/adafruit/tools/arm-none-eabi-gcc/9-2019q4/bin/../lib/gcc/arm-none-eabi/9.2.1/../../../../arm-none-eabi/lib/thumb/v7e-m+fp/hard/libc_nano.a(lib_a-init.o)
_iprintf_r                                        /home/slombardo/.arduino15/packages/adafruit/tools/arm-none-eabi-gcc/9-2019q4/bin/../lib/gcc/arm-none-eabi/9.2.1/../../../../arm-none-eabi/lib/thumb/v7e-m+fp/hard/libc_nano.a(lib_a-printf.o)
_isatty                                           /home/slombardo/.arduino15/packages/adafruit/tools/arm-none-eabi-gcc/9-2019q4/bin/../lib/gcc/arm-none-eabi/9.2.1/../../../../arm-none-eabi/lib/thumb/v7e-m+fp/hard/libnosys.a(isatty.o)
                                                  /home/slombardo/.arduino15/packages/adafruit/tools/arm-none-eabi-gcc/9-2019q4/bin/../lib/gcc/arm-none-eabi/9.2.1/../../../../arm-none-eabi/lib/thumb/v7e-m+fp/hard/libc_nano.a(lib_a-isattyr.o)
_isatty_r                                         /home/slombardo/.arduino15/packages/adafruit/tools/arm-none-eabi-gcc/9-2019q4/bin/../lib/gcc/arm-none-eabi/9.2.1/../../../../arm-none-eabi/lib/thumb/v7e-m+fp/hard/libc_nano.a(lib_a-isattyr.o)
                                                  /home/slombardo/.arduino15/packages/adafruit/tools/arm-none-eabi-gcc/9-2019q4/bin/../lib/gcc/arm-none-eabi/9.2.1/../../../../arm-none-eabi/lib/thumb/v7e-m+fp/hard/libc_nano.a(lib_a-makebuf.o)
_localeconv_r                                     /home/slombardo/.arduino15/packages/adafruit/tools/arm-none-eabi-gcc/9-2019q4/bin/../lib/gcc/arm-none-eabi/9.2.1/../../../../arm-none-eabi/lib/thumb/v7e-m+fp/hard/libc_nano.a(lib_a-localeconv.o)
                                                  /home/slombardo/.arduino15/packages/adafruit/tools/arm-none-eabi-gcc/9-2019q4/bin/../lib/gcc/arm-none-eabi/9.2.1/../../../../arm-none-eabi/lib/thumb/v7e-m+fp/hard/libc_nano.a(lib_a-nano-vfprintf_float.o)
_lseek                                            /home/slombardo/.arduino15/packages/adafruit/tools/arm-none-eabi-gcc/9-2019q4/bin/../lib/gcc/arm-none-eabi/9.2.1/../../../../arm-none-eabi/lib/thumb/v7e-m+fp/hard/libnosys.a(lseek.o)
                                                  /home/slombardo/.arduino15/packages/adafruit/tools/arm-none-eabi-gcc/9-2019q4/bin/../lib/gcc/arm-none-eabi/9.2.1/../../../../arm-none-eabi/lib/thumb/v7e-m+fp/hard/libc_nano.a(lib_a-lseekr.o)
_lseek_r                                          /home/slombardo/.arduino15/packages/adafruit/tools/arm-none-eabi-gcc/9-2019q4/bin/../lib/gcc/arm-none-eabi/9.2.1/../../../../arm-none-eabi/lib/thumb/v7e-m+fp/hard/libc_nano.a(lib_a-lseekr.o)
                                                  /home/slombardo/.arduino15/packages/adafruit/tools/arm-none-eabi-gcc/9-2019q4/bin/../lib/gcc/arm-none-eabi/9.2.1/../../../../arm-none-eabi/lib/thumb/v7e-m+fp/hard/libc_nano.a(lib_a-stdio.o)
_mainCRTStartup                                   /home/slombardo/.arduino15/packages/adafruit/tools/arm-none-eabi-gcc/9-2019q4/bin/../lib/gcc/arm-none-eabi/9.2.1/../../../../arm-none-eabi/lib/thumb/v7e-m+fp/hard/crt0.o
_mallinfo_r                                       /home/slombardo/.arduino15/packages/adafruit/tools/arm-none-eabi-gcc/9-2019q4/bin/../lib/gcc/arm-none-eabi/9.2.1/../../../../arm-none-eabi/lib/thumb/v7e-m+fp/hard/libc_nano.a(lib_a-nano-mallinfor.o)
                                                  /home/slombardo/.arduino15/packages/adafruit/tools/arm-none-eabi-gcc/9-2019q4/bin/../lib/gcc/arm-none-eabi/9.2.1/../../../../arm-none-eabi/lib/thumb/v7e-m+fp/hard/libc_nano.a(lib_a-nano-mallstatsr.o)
                                                  /home/slombardo/.arduino15/packages/adafruit/tools/arm-none-eabi-gcc/9-2019q4/bin/../lib/gcc/arm-none-eabi/9.2.1/../../../../arm-none-eabi/lib/thumb/v7e-m+fp/hard/libc_nano.a(lib_a-mstats.o)
_malloc_r                                         /home/slombardo/.arduino15/packages/adafruit/tools/arm-none-eabi-gcc/9-2019q4/bin/../lib/gcc/arm-none-eabi/9.2.1/../../../../arm-none-eabi/lib/thumb/v7e-m+fp/hard/libc_nano.a(lib_a-nano-mallocr.o)
                                                  /home/slombardo/.arduino15/packages/adafruit/tools/arm-none-eabi-gcc/9-2019q4/bin/../lib/gcc/arm-none-eabi/9.2.1/../../../../arm-none-eabi/lib/thumb/v7e-m+fp/hard/libc_nano.a(lib_a-nano-reallocr.o)
                                                  /home/slombardo/.arduino15/packages/adafruit/tools/arm-none-eabi-gcc/9-2019q4/bin/../lib/gcc/arm-none-eabi/9.2.1/../../../../arm-none-eabi/lib/thumb/v7e-m+fp/hard/libc_nano.a(lib_a-fvwrite.o)
                                                  /home/slombardo/.arduino15/packages/adafruit/tools/arm-none-eabi-gcc/9-2019q4/bin/../lib/gcc/arm-none-eabi/9.2.1/../../../../arm-none-eabi/lib/thumb/v7e-m+fp/hard/libc_nano.a(lib_a-nano-svfprintf.o)
                                                  /home/slombardo/.arduino15/packages/adafruit/tools/arm-none-eabi-gcc/9-2019q4/bin/../lib/gcc/arm-none-eabi/9.2.1/../../../../arm-none-eabi/lib/thumb/v7e-m+fp/hard/libc_nano.a(lib_a-nano-callocr.o)
                                                  /home/slombardo/.arduino15/packages/adafruit/tools/arm-none-eabi-gcc/9-2019q4/bin/../lib/gcc/arm-none-eabi/9.2.1/../../../../arm-none-eabi/lib/thumb/v7e-m+fp/hard/libc_nano.a(lib_a-makebuf.o)
                                                  /home/slombardo/.arduino15/packages/adafruit/tools/arm-none-eabi-gcc/9-2019q4/bin/../lib/gcc/arm-none-eabi/9.2.1/../../../../arm-none-eabi/lib/thumb/v7e-m+fp/hard/libc_nano.a(lib_a-findfp.o)
                                                  /home/slombardo/.arduino15/packages/adafruit/tools/arm-none-eabi-gcc/9-2019q4/bin/../lib/gcc/arm-none-eabi/9.2.1/../../../../arm-none-eabi/lib/thumb/v7e-m+fp/hard/libc_nano.a(lib_a-malloc.o)
_malloc_stats_r                                   /home/slombardo/.arduino15/packages/adafruit/tools/arm-none-eabi-gcc/9-2019q4/bin/../lib/gcc/arm-none-eabi/9.2.1/../../../../arm-none-eabi/lib/thumb/v7e-m+fp/hard/libc_nano.a(lib_a-nano-mallstatsr.o)
                                                  /home/slombardo/.arduino15/packages/adafruit/tools/arm-none-eabi-gcc/9-2019q4/bin/../lib/gcc/arm-none-eabi/9.2.1/../../../../arm-none-eabi/lib/thumb/v7e-m+fp/hard/libc_nano.a(lib_a-mstats.o)
_malloc_usable_size_r                             /home/slombardo/.arduino15/packages/adafruit/tools/arm-none-eabi-gcc/9-2019q4/bin/../lib/gcc/arm-none-eabi/9.2.1/../../../../arm-none-eabi/lib/thumb/v7e-m+fp/hard/libc_nano.a(lib_a-nano-msizer.o)
                                                  /home/slombardo/.arduino15/packages/adafruit/tools/arm-none-eabi-gcc/9-2019q4/bin/../lib/gcc/arm-none-eabi/9.2.1/../../../../arm-none-eabi/lib/thumb/v7e-m+fp/hard/libc_nano.a(lib_a-nano-reallocr.o)
_mallopt_r                                        /home/slombardo/.arduino15/packages/adafruit/tools/arm-none-eabi-gcc/9-2019q4/bin/../lib/gcc/arm-none-eabi/9.2.1/../../../../arm-none-eabi/lib/thumb/v7e-m+fp/hard/libc_nano.a(lib_a-nano-malloptr.o)
                                                  /home/slombardo/.arduino15/packages/adafruit/tools/arm-none-eabi-gcc/9-2019q4/bin/../lib/gcc/arm-none-eabi/9.2.1/../../../../arm-none-eabi/lib/thumb/v7e-m+fp/hard/libc_nano.a(lib_a-mstats.o)
_mbtowc_r                                         /home/slombardo/.arduino15/packages/adafruit/tools/arm-none-eabi-gcc/9-2019q4/bin/../lib/gcc/arm-none-eabi/9.2.1/../../../../arm-none-eabi/lib/thumb/v7e-m+fp/hard/libc_nano.a(lib_a-mbtowc_r.o)
_mprec_log10                                      /home/slombardo/.arduino15/packages/adafruit/tools/arm-none-eabi-gcc/9-2019q4/bin/../lib/gcc/arm-none-eabi/9.2.1/../../../../arm-none-eabi/lib/thumb/v7e-m+fp/hard/libc_nano.a(lib_a-mprec.o)
_mstats_r                                         /home/slombardo/.arduino15/packages/adafruit/tools/arm-none-eabi-gcc/9-2019q4/bin/../lib/gcc/arm-none-eabi/9.2.1/../../../../arm-none-eabi/lib/thumb/v7e-m+fp/hard/libc_nano.a(lib_a-mstats.o)
_printf_common                                    /home/slombardo/.arduino15/packages/adafruit/tools/arm-none-eabi-gcc/9-2019q4/bin/../lib/gcc/arm-none-eabi/9.2.1/../../../../arm-none-eabi/lib/thumb/v7e-m+fp/hard/libc_nano.a(lib_a-nano-vfprintf_i.o)
                                                  /home/slombardo/.arduino15/packages/adafruit/tools/arm-none-eabi-gcc/9-2019q4/bin/../lib/gcc/arm-none-eabi/9.2.1/../../../../arm-none-eabi/lib/thumb/v7e-m+fp/hard/libc_nano.a(lib_a-nano-vfprintf_float.o)
_printf_float                                     /home/slombardo/.arduino15/packages/adafruit/tools/arm-none-eabi-gcc/9-2019q4/bin/../lib/gcc/arm-none-eabi/9.2.1/../../../../arm-none-eabi/lib/thumb/v7e-m+fp/hard/libc_nano.a(lib_a-nano-vfprintf_float.o)
                                                  /home/slombardo/.arduino15/packages/adafruit/tools/arm-none-eabi-gcc/9-2019q4/bin/../lib/gcc/arm-none-eabi/9.2.1/../../../../arm-none-eabi/lib/thumb/v7e-m+fp/hard/libc_nano.a(lib_a-nano-vfprintf.o)
                                                  /home/slombardo/.arduino15/packages/adafruit/tools/arm-none-eabi-gcc/9-2019q4/bin/../lib/gcc/arm-none-eabi/9.2.1/../../../../arm-none-eabi/lib/thumb/v7e-m+fp/hard/libc_nano.a(lib_a-nano-svfprintf.o)
_printf_i                                         /home/slombardo/.arduino15/packages/adafruit/tools/arm-none-eabi-gcc/9-2019q4/bin/../lib/gcc/arm-none-eabi/9.2.1/../../../../arm-none-eabi/lib/thumb/v7e-m+fp/hard/libc_nano.a(lib_a-nano-vfprintf_i.o)
                                                  /home/slombardo/.arduino15/packages/adafruit/tools/arm-none-eabi-gcc/9-2019q4/bin/../lib/gcc/arm-none-eabi/9.2.1/../../../../arm-none-eabi/lib/thumb/v7e-m+fp/hard/libc_nano.a(lib_a-nano-vfprintf.o)
                                                  /home/slombardo/.arduino15/packages/adafruit/tools/arm-none-eabi-gcc/9-2019q4/bin/../lib/gcc/arm-none-eabi/9.2.1/../../../../arm-none-eabi/lib/thumb/v7e-m+fp/hard/libc_nano.a(lib_a-nano-svfprintf.o)
_printf_r                                         /home/slombardo/.arduino15/packages/adafruit/tools/arm-none-eabi-gcc/9-2019q4/bin/../lib/gcc/arm-none-eabi/9.2.1/../../../../arm-none-eabi/lib/thumb/v7e-m+fp/hard/libc_nano.a(lib_a-printf.o)
_putc_r                                           /home/slombardo/.arduino15/packages/adafruit/tools/arm-none-eabi-gcc/9-2019q4/bin/../lib/gcc/arm-none-eabi/9.2.1/../../../../arm-none-eabi/lib/thumb/v7e-m+fp/hard/libc_nano.a(lib_a-putc.o)
                                                  /home/slombardo/.arduino15/packages/adafruit/tools/arm-none-eabi-gcc/9-2019q4/bin/../lib/gcc/arm-none-eabi/9.2.1/../../../../arm-none-eabi/lib/thumb/v7e-m+fp/hard/libc_nano.a(lib_a-putchar.o)
_putchar_r                                        /home/slombardo/.arduino15/packages/adafruit/tools/arm-none-eabi-gcc/9-2019q4/bin/../lib/gcc/arm-none-eabi/9.2.1/../../../../arm-none-eabi/lib/thumb/v7e-m+fp/hard/libc_nano.a(lib_a-putchar.o)
_puts_r                                           /home/slombardo/.arduino15/packages/adafruit/tools/arm-none-eabi-gcc/9-2019q4/bin/../lib/gcc/arm-none-eabi/9.2.1/../../../../arm-none-eabi/lib/thumb/v7e-m+fp/hard/libc_nano.a(lib_a-puts.o)
_read                                             /home/slombardo/.arduino15/packages/adafruit/tools/arm-none-eabi-gcc/9-2019q4/bin/../lib/gcc/arm-none-eabi/9.2.1/../../../../arm-none-eabi/lib/thumb/v7e-m+fp/hard/libnosys.a(read.o)
                                                  /home/slombardo/.arduino15/packages/adafruit/tools/arm-none-eabi-gcc/9-2019q4/bin/../lib/gcc/arm-none-eabi/9.2.1/../../../../arm-none-eabi/lib/thumb/v7e-m+fp/hard/libc_nano.a(lib_a-readr.o)
_read_r                                           /home/slombardo/.arduino15/packages/adafruit/tools/arm-none-eabi-gcc/9-2019q4/bin/../lib/gcc/arm-none-eabi/9.2.1/../../../../arm-none-eabi/lib/thumb/v7e-m+fp/hard/libc_nano.a(lib_a-readr.o)
                                                  /home/slombardo/.arduino15/packages/adafruit/tools/arm-none-eabi-gcc/9-2019q4/bin/../lib/gcc/arm-none-eabi/9.2.1/../../../../arm-none-eabi/lib/thumb/v7e-m+fp/hard/libc_nano.a(lib_a-stdio.o)
_realloc_r                                        /home/slombardo/.arduino15/packages/adafruit/tools/arm-none-eabi-gcc/9-2019q4/bin/../lib/gcc/arm-none-eabi/9.2.1/../../../../arm-none-eabi/lib/thumb/v7e-m+fp/hard/libc_nano.a(lib_a-nano-reallocr.o)
                                                  /home/slombardo/.arduino15/packages/adafruit/tools/arm-none-eabi-gcc/9-2019q4/bin/../lib/gcc/arm-none-eabi/9.2.1/../../../../arm-none-eabi/lib/thumb/v7e-m+fp/hard/libc_nano.a(lib_a-fvwrite.o)
                                                  /home/slombardo/.arduino15/packages/adafruit/tools/arm-none-eabi-gcc/9-2019q4/bin/../lib/gcc/arm-none-eabi/9.2.1/../../../../arm-none-eabi/lib/thumb/v7e-m+fp/hard/libc_nano.a(lib_a-nano-svfprintf.o)
_reclaim_reent                                    /home/slombardo/.arduino15/packages/adafruit/tools/arm-none-eabi-gcc/9-2019q4/bin/../lib/gcc/arm-none-eabi/9.2.1/../../../../arm-none-eabi/lib/thumb/v7e-m+fp/hard/libc_nano.a(lib_a-reent.o)
_sbrk                                             /home/slombardo/.arduino15/packages/adafruit/tools/arm-none-eabi-gcc/9-2019q4/bin/../lib/gcc/arm-none-eabi/9.2.1/../../../../arm-none-eabi/lib/thumb/v7e-m+fp/hard/libnosys.a(sbrk.o)
                                                  /home/slombardo/.arduino15/packages/adafruit/tools/arm-none-eabi-gcc/9-2019q4/bin/../lib/gcc/arm-none-eabi/9.2.1/../../../../arm-none-eabi/lib/thumb/v7e-m+fp/hard/libc_nano.a(lib_a-sbrkr.o)
_sbrk_r                                           /home/slombardo/.arduino15/packages/adafruit/tools/arm-none-eabi-gcc/9-2019q4/bin/../lib/gcc/arm-none-eabi/9.2.1/../../../../arm-none-eabi/lib/thumb/v7e-m+fp/hard/libc_nano.a(lib_a-sbrkr.o)
                                                  /home/slombardo/.arduino15/packages/adafruit/tools/arm-none-eabi-gcc/9-2019q4/bin/../lib/gcc/arm-none-eabi/9.2.1/../../../../arm-none-eabi/lib/thumb/v7e-m+fp/hard/libc_nano.a(lib_a-nano-mallocr.o)
                                                  /home/slombardo/.arduino15/packages/adafruit/tools/arm-none-eabi-gcc/9-2019q4/bin/../lib/gcc/arm-none-eabi/9.2.1/../../../../arm-none-eabi/lib/thumb/v7e-m+fp/hard/libc_nano.a(lib_a-nano-mallinfor.o)
_setlocale_r                                      /home/slombardo/.arduino15/packages/adafruit/tools/arm-none-eabi-gcc/9-2019q4/bin/../lib/gcc/arm-none-eabi/9.2.1/../../../../arm-none-eabi/lib/thumb/v7e-m+fp/hard/libc_nano.a(lib_a-locale.o)
_siprintf_r                                       /home/slombardo/.arduino15/packages/adafruit/tools/arm-none-eabi-gcc/9-2019q4/bin/../lib/gcc/arm-none-eabi/9.2.1/../../../../arm-none-eabi/lib/thumb/v7e-m+fp/hard/libc_nano.a(lib_a-sprintf.o)
_sniprintf_r                                      /home/slombardo/.arduino15/packages/adafruit/tools/arm-none-eabi-gcc/9-2019q4/bin/../lib/gcc/arm-none-eabi/9.2.1/../../../../arm-none-eabi/lib/thumb/v7e-m+fp/hard/libc_nano.a(lib_a-snprintf.o)
_snprintf_r                                       /home/slombardo/.arduino15/packages/adafruit/tools/arm-none-eabi-gcc/9-2019q4/bin/../lib/gcc/arm-none-eabi/9.2.1/../../../../arm-none-eabi/lib/thumb/v7e-m+fp/hard/libc_nano.a(lib_a-snprintf.o)
_sprintf_r                                        /home/slombardo/.arduino15/packages/adafruit/tools/arm-none-eabi-gcc/9-2019q4/bin/../lib/gcc/arm-none-eabi/9.2.1/../../../../arm-none-eabi/lib/thumb/v7e-m+fp/hard/libc_nano.a(lib_a-sprintf.o)
_start                                            /home/slombardo/.arduino15/packages/adafruit/tools/arm-none-eabi-gcc/9-2019q4/bin/../lib/gcc/arm-none-eabi/9.2.1/../../../../arm-none-eabi/lib/thumb/v7e-m+fp/hard/crt0.o
                                                  /home/slombardo/projects/BadgersRunFirmware/Build/core/core.a(gcc_startup_nrf52.S.o)
_svfiprintf_r                                     /home/slombardo/.arduino15/packages/adafruit/tools/arm-none-eabi-gcc/9-2019q4/bin/../lib/gcc/arm-none-eabi/9.2.1/../../../../arm-none-eabi/lib/thumb/v7e-m+fp/hard/libc_nano.a(lib_a-nano-svfprintf.o)
_svfprintf_r                                      /home/slombardo/.arduino15/packages/adafruit/tools/arm-none-eabi-gcc/9-2019q4/bin/../lib/gcc/arm-none-eabi/9.2.1/../../../../arm-none-eabi/lib/thumb/v7e-m+fp/hard/libc_nano.a(lib_a-nano-svfprintf.o)
                                                  /home/slombardo/.arduino15/packages/adafruit/tools/arm-none-eabi-gcc/9-2019q4/bin/../lib/gcc/arm-none-eabi/9.2.1/../../../../arm-none-eabi/lib/thumb/v7e-m+fp/hard/libc_nano.a(lib_a-vsnprintf.o)
                                                  /home/slombardo/.arduino15/packages/adafruit/tools/arm-none-eabi-gcc/9-2019q4/bin/../lib/gcc/arm-none-eabi/9.2.1/../../../../arm-none-eabi/lib/thumb/v7e-m+fp/hard/libc_nano.a(lib_a-sprintf.o)
                                                  /home/slombardo/.arduino15/packages/adafruit/tools/arm-none-eabi-gcc/9-2019q4/bin/../lib/gcc/arm-none-eabi/9.2.1/../../../../arm-none-eabi/lib/thumb/v7e-m+fp/hard/libc_nano.a(lib_a-snprintf.o)
_vfiprintf_r                                      /home/slombardo/.arduino15/packages/adafruit/tools/arm-none-eabi-gcc/9-2019q4/bin/../lib/gcc/arm-none-eabi/9.2.1/../../../../arm-none-eabi/lib/thumb/v7e-m+fp/hard/libc_nano.a(lib_a-nano-vfprintf.o)
_vfprintf_r                                       /home/slombardo/.arduino15/packages/adafruit/tools/arm-none-eabi-gcc/9-2019q4/bin/../lib/gcc/arm-none-eabi/9.2.1/../../../../arm-none-eabi/lib/thumb/v7e-m+fp/hard/libc_nano.a(lib_a-nano-vfprintf.o)
                                                  /home/slombardo/.arduino15/packages/adafruit/tools/arm-none-eabi-gcc/9-2019q4/bin/../lib/gcc/arm-none-eabi/9.2.1/../../../../arm-none-eabi/lib/thumb/v7e-m+fp/hard/libc_nano.a(lib_a-fprintf.o)
                                                  /home/slombardo/.arduino15/packages/adafruit/tools/arm-none-eabi-gcc/9-2019q4/bin/../lib/gcc/arm-none-eabi/9.2.1/../../../../arm-none-eabi/lib/thumb/v7e-m+fp/hard/libc_nano.a(lib_a-printf.o)
_vsniprintf_r                                     /home/slombardo/.arduino15/packages/adafruit/tools/arm-none-eabi-gcc/9-2019q4/bin/../lib/gcc/arm-none-eabi/9.2.1/../../../../arm-none-eabi/lib/thumb/v7e-m+fp/hard/libc_nano.a(lib_a-vsnprintf.o)
_vsnprintf_r                                      /home/slombardo/.arduino15/packages/adafruit/tools/arm-none-eabi-gcc/9-2019q4/bin/../lib/gcc/arm-none-eabi/9.2.1/../../../../arm-none-eabi/lib/thumb/v7e-m+fp/hard/libc_nano.a(lib_a-vsnprintf.o)
_wctomb_r                                         /home/slombardo/.arduino15/packages/adafruit/tools/arm-none-eabi-gcc/9-2019q4/bin/../lib/gcc/arm-none-eabi/9.2.1/../../../../arm-none-eabi/lib/thumb/v7e-m+fp/hard/libc_nano.a(lib_a-wctomb_r.o)
_write                                            /home/slombardo/projects/BadgersRunFirmware/Build/core/core.a(main.cpp.o)
                                                  /home/slombardo/.arduino15/packages/adafruit/tools/arm-none-eabi-gcc/9-2019q4/bin/../lib/gcc/arm-none-eabi/9.2.1/../../../../arm-none-eabi/lib/thumb/v7e-m+fp/hard/libc_nano.a(lib_a-writer.o)
_write_r                                          /home/slombardo/.arduino15/packages/adafruit/tools/arm-none-eabi-gcc/9-2019q4/bin/../lib/gcc/arm-none-eabi/9.2.1/../../../../arm-none-eabi/lib/thumb/v7e-m+fp/hard/libc_nano.a(lib_a-writer.o)
                                                  /home/slombardo/.arduino15/packages/adafruit/tools/arm-none-eabi-gcc/9-2019q4/bin/../lib/gcc/arm-none-eabi/9.2.1/../../../../arm-none-eabi/lib/thumb/v7e-m+fp/hard/libc_nano.a(lib_a-stdio.o)
ada_callback_init                                 /home/slombardo/projects/BadgersRunFirmware/Build/core/core.a(AdaCallback.c.o)
                                                  /home/slombardo/projects/BadgersRunFirmware/Build/core/core.a(main.cpp.o)
ada_callback_invoke                               /home/slombardo/projects/BadgersRunFirmware/Build/core/core.a(AdaCallback.c.o)
ada_callback_queue                                /home/slombardo/projects/BadgersRunFirmware/Build/core/core.a(AdaCallback.c.o)
ada_callback_queue_resize                         /home/slombardo/projects/BadgersRunFirmware/Build/core/core.a(AdaCallback.c.o)
adafruit_callback_task                            /home/slombardo/projects/BadgersRunFirmware/Build/core/core.a(AdaCallback.c.o)
atexit                                            /home/slombardo/.arduino15/packages/adafruit/tools/arm-none-eabi-gcc/9-2019q4/bin/../lib/gcc/arm-none-eabi/9.2.1/../../../../arm-none-eabi/lib/thumb/v7e-m+fp/hard/crt0.o
bootloaderVersion                                 /home/slombardo/projects/BadgersRunFirmware/Build/core/core.a(wiring.c.o)
cleanup_glue                                      /home/slombardo/.arduino15/packages/adafruit/tools/arm-none-eabi-gcc/9-2019q4/bin/../lib/gcc/arm-none-eabi/9.2.1/../../../../arm-none-eabi/lib/thumb/v7e-m+fp/hard/libc_nano.a(lib_a-reent.o)
cols                                              /home/slombardo/projects/BadgersRunFirmware/Build/sketch/keyboard.ino.cpp.o
dbgDumpMemory                                     /home/slombardo/projects/BadgersRunFirmware/Build/core/core.a(debug.cpp.o)
dbgDumpMemoryCFormat                              /home/slombardo/projects/BadgersRunFirmware/Build/core/core.a(debug.cpp.o)
dbgHeapTotal                                      /home/slombardo/projects/BadgersRunFirmware/Build/core/core.a(debug.cpp.o)
dbgHeapUsed                                       /home/slombardo/projects/BadgersRunFirmware/Build/core/core.a(debug.cpp.o)
dbgMemInfo                                        /home/slombardo/projects/BadgersRunFirmware/Build/core/core.a(debug.cpp.o)
dbgPrintVersion                                   /home/slombardo/projects/BadgersRunFirmware/Build/core/core.a(debug.cpp.o)
                                                  /home/slombardo/projects/BadgersRunFirmware/Build/core/core.a(main.cpp.o)
dbgStackTotal                                     /home/slombardo/projects/BadgersRunFirmware/Build/core/core.a(debug.cpp.o)
dbgStackUsed                                      /home/slombardo/projects/BadgersRunFirmware/Build/core/core.a(debug.cpp.o)
dbg_ble_event_str                                 /home/slombardo/projects/BadgersRunFirmware/Build/core/core.a(debug.cpp.o)
dbg_err_str                                       /home/slombardo/projects/BadgersRunFirmware/Build/core/core.a(debug.cpp.o)
                                                  /home/slombardo/projects/BadgersRunFirmware/Build/core/core.a(AdaCallback.c.o)
dbg_hci_str                                       /home/slombardo/projects/BadgersRunFirmware/Build/core/core.a(debug.cpp.o)
delay                                             /home/slombardo/projects/BadgersRunFirmware/Build/core/core.a(delay.c.o)
                                                  /home/slombardo/projects/BadgersRunFirmware/Build/sketch/keyboard.ino.cpp.o
digitalRead                                       /home/slombardo/projects/BadgersRunFirmware/Build/core/core.a(wiring_digital.c.o)
                                                  /home/slombardo/projects/BadgersRunFirmware/Build/sketch/keyboard.ino.cpp.o
digitalToggle                                     /home/slombardo/projects/BadgersRunFirmware/Build/core/core.a(wiring_digital.c.o)
digitalWrite                                      /home/slombardo/projects/BadgersRunFirmware/Build/core/core.a(wiring_digital.c.o)
                                                  /home/slombardo/projects/BadgersRunFirmware/Build/sketch/keyboard.ino.cpp.o
dwt_disable                                       /home/slombardo/projects/BadgersRunFirmware/Build/core/core.a(delay.c.o)
dwt_enable                                        /home/slombardo/projects/BadgersRunFirmware/Build/core/core.a(delay.c.o)
eTaskConfirmSleepModeStatus                       /home/slombardo/projects/BadgersRunFirmware/Build/core/core.a(tasks.c.o)
                                                  /home/slombardo/projects/BadgersRunFirmware/Build/core/core.a(port_cmsis_systick.c.o)
eTaskGetState                                     /home/slombardo/projects/BadgersRunFirmware/Build/core/core.a(tasks.c.o)
end                                               /home/slombardo/.arduino15/packages/adafruit/tools/arm-none-eabi-gcc/9-2019q4/bin/../lib/gcc/arm-none-eabi/9.2.1/../../../../arm-none-eabi/lib/thumb/v7e-m+fp/hard/libnosys.a(sbrk.o)
enterOTADfu                                       /home/slombardo/projects/BadgersRunFirmware/Build/core/core.a(wiring.c.o)
enterSerialDfu                                    /home/slombardo/projects/BadgersRunFirmware/Build/core/core.a(wiring.c.o)
enterUf2Dfu                                       /home/slombardo/projects/BadgersRunFirmware/Build/core/core.a(wiring.c.o)
errno                                             /home/slombardo/.arduino15/packages/adafruit/tools/arm-none-eabi-gcc/9-2019q4/bin/../lib/gcc/arm-none-eabi/9.2.1/../../../../arm-none-eabi/lib/thumb/v7e-m+fp/hard/libc_nano.a(lib_a-reent.o)
                                                  /home/slombardo/.arduino15/packages/adafruit/tools/arm-none-eabi-gcc/9-2019q4/bin/../lib/gcc/arm-none-eabi/9.2.1/../../../../arm-none-eabi/lib/thumb/v7e-m+fp/hard/libnosys.a(read.o)
                                                  /home/slombardo/.arduino15/packages/adafruit/tools/arm-none-eabi-gcc/9-2019q4/bin/../lib/gcc/arm-none-eabi/9.2.1/../../../../arm-none-eabi/lib/thumb/v7e-m+fp/hard/libnosys.a(lseek.o)
                                                  /home/slombardo/.arduino15/packages/adafruit/tools/arm-none-eabi-gcc/9-2019q4/bin/../lib/gcc/arm-none-eabi/9.2.1/../../../../arm-none-eabi/lib/thumb/v7e-m+fp/hard/libnosys.a(isatty.o)
                                                  /home/slombardo/.arduino15/packages/adafruit/tools/arm-none-eabi-gcc/9-2019q4/bin/../lib/gcc/arm-none-eabi/9.2.1/../../../../arm-none-eabi/lib/thumb/v7e-m+fp/hard/libnosys.a(fstat.o)
                                                  /home/slombardo/.arduino15/packages/adafruit/tools/arm-none-eabi-gcc/9-2019q4/bin/../lib/gcc/arm-none-eabi/9.2.1/../../../../arm-none-eabi/lib/thumb/v7e-m+fp/hard/libnosys.a(close.o)
                                                  /home/slombardo/.arduino15/packages/adafruit/tools/arm-none-eabi-gcc/9-2019q4/bin/../lib/gcc/arm-none-eabi/9.2.1/../../../../arm-none-eabi/lib/thumb/v7e-m+fp/hard/libc_nano.a(lib_a-readr.o)
                                                  /home/slombardo/.arduino15/packages/adafruit/tools/arm-none-eabi-gcc/9-2019q4/bin/../lib/gcc/arm-none-eabi/9.2.1/../../../../arm-none-eabi/lib/thumb/v7e-m+fp/hard/libc_nano.a(lib_a-lseekr.o)
                                                  /home/slombardo/.arduino15/packages/adafruit/tools/arm-none-eabi-gcc/9-2019q4/bin/../lib/gcc/arm-none-eabi/9.2.1/../../../../arm-none-eabi/lib/thumb/v7e-m+fp/hard/libc_nano.a(lib_a-isattyr.o)
                                                  /home/slombardo/.arduino15/packages/adafruit/tools/arm-none-eabi-gcc/9-2019q4/bin/../lib/gcc/arm-none-eabi/9.2.1/../../../../arm-none-eabi/lib/thumb/v7e-m+fp/hard/libc_nano.a(lib_a-fstatr.o)
                                                  /home/slombardo/.arduino15/packages/adafruit/tools/arm-none-eabi-gcc/9-2019q4/bin/../lib/gcc/arm-none-eabi/9.2.1/../../../../arm-none-eabi/lib/thumb/v7e-m+fp/hard/libc_nano.a(lib_a-closer.o)
                                                  /home/slombardo/.arduino15/packages/adafruit/tools/arm-none-eabi-gcc/9-2019q4/bin/../lib/gcc/arm-none-eabi/9.2.1/../../../../arm-none-eabi/lib/thumb/v7e-m+fp/hard/libc_nano.a(lib_a-writer.o)
                                                  /home/slombardo/.arduino15/packages/adafruit/tools/arm-none-eabi-gcc/9-2019q4/bin/../lib/gcc/arm-none-eabi/9.2.1/../../../../arm-none-eabi/lib/thumb/v7e-m+fp/hard/libc_nano.a(lib_a-sbrkr.o)
exit                                              /home/slombardo/.arduino15/packages/adafruit/tools/arm-none-eabi-gcc/9-2019q4/bin/../lib/gcc/arm-none-eabi/9.2.1/../../../../arm-none-eabi/lib/thumb/v7e-m+fp/hard/libc_nano.a(lib_a-exit.o)
                                                  /home/slombardo/.arduino15/packages/adafruit/tools/arm-none-eabi-gcc/9-2019q4/bin/../lib/gcc/arm-none-eabi/9.2.1/../../../../arm-none-eabi/lib/thumb/v7e-m+fp/hard/crt0.o
fflush                                            /home/slombardo/.arduino15/packages/adafruit/tools/arm-none-eabi-gcc/9-2019q4/bin/../lib/gcc/arm-none-eabi/9.2.1/../../../../arm-none-eabi/lib/thumb/v7e-m+fp/hard/libc_nano.a(lib_a-fflush.o)
fiprintf                                          /home/slombardo/.arduino15/packages/adafruit/tools/arm-none-eabi-gcc/9-2019q4/bin/../lib/gcc/arm-none-eabi/9.2.1/../../../../arm-none-eabi/lib/thumb/v7e-m+fp/hard/libc_nano.a(lib_a-fprintf.o)
                                                  /home/slombardo/.arduino15/packages/adafruit/tools/arm-none-eabi-gcc/9-2019q4/bin/../lib/gcc/arm-none-eabi/9.2.1/../../../../arm-none-eabi/lib/thumb/v7e-m+fp/hard/libc_nano.a(lib_a-nano-mallstatsr.o)
                                                  /home/slombardo/.arduino15/packages/adafruit/tools/arm-none-eabi-gcc/9-2019q4/bin/../lib/gcc/arm-none-eabi/9.2.1/../../../../arm-none-eabi/lib/thumb/v7e-m+fp/hard/libc_nano.a(lib_a-mstats.o)
fprintf                                           /home/slombardo/.arduino15/packages/adafruit/tools/arm-none-eabi-gcc/9-2019q4/bin/../lib/gcc/arm-none-eabi/9.2.1/../../../../arm-none-eabi/lib/thumb/v7e-m+fp/hard/libc_nano.a(lib_a-fprintf.o)
free                                              /home/slombardo/.arduino15/packages/adafruit/tools/arm-none-eabi-gcc/9-2019q4/bin/../lib/gcc/arm-none-eabi/9.2.1/../../../../arm-none-eabi/lib/thumb/v7e-m+fp/hard/libc_nano.a(lib_a-malloc.o)
                                                  /home/slombardo/projects/BadgersRunFirmware/Build/core/core.a(AdaCallback.c.o)
                                                  /home/slombardo/projects/BadgersRunFirmware/Build/core/core.a(heap_3.c.o)
                                                  /home/slombardo/projects/BadgersRunFirmware/Build/core/core.a(debug.cpp.o)
g_ADigitalPinMap                                  /home/slombardo/projects/BadgersRunFirmware/Build/core/variant.cpp.o
                                                  /home/slombardo/projects/BadgersRunFirmware/Build/core/core.a(Uart.cpp.o)
                                                  /home/slombardo/projects/BadgersRunFirmware/Build/core/core.a(wiring_digital.c.o)
                                                  /home/slombardo/projects/BadgersRunFirmware/Build/core/core.a(wiring.c.o)
getBootloaderVersion                              /home/slombardo/projects/BadgersRunFirmware/Build/core/core.a(utilities.c.o)
                                                  /home/slombardo/projects/BadgersRunFirmware/Build/core/core.a(debug.cpp.o)
getMcuUniqueID                                    /home/slombardo/projects/BadgersRunFirmware/Build/core/core.a(utilities.c.o)
                                                  /home/slombardo/projects/BadgersRunFirmware/Build/core/core.a(debug.cpp.o)
hardware_init_hook                                /home/slombardo/.arduino15/packages/adafruit/tools/arm-none-eabi-gcc/9-2019q4/bin/../lib/gcc/arm-none-eabi/9.2.1/../../../../arm-none-eabi/lib/thumb/v7e-m+fp/hard/crt0.o
init                                              /home/slombardo/projects/BadgersRunFirmware/Build/core/core.a(wiring.c.o)
                                                  /home/slombardo/projects/BadgersRunFirmware/Build/core/core.a(main.cpp.o)
initVariant()                                     /home/slombardo/projects/BadgersRunFirmware/Build/core/variant.cpp.o
iprintf                                           /home/slombardo/.arduino15/packages/adafruit/tools/arm-none-eabi-gcc/9-2019q4/bin/../lib/gcc/arm-none-eabi/9.2.1/../../../../arm-none-eabi/lib/thumb/v7e-m+fp/hard/libc_nano.a(lib_a-printf.o)
isgraph                                           /home/slombardo/.arduino15/packages/adafruit/tools/arm-none-eabi-gcc/9-2019q4/bin/../lib/gcc/arm-none-eabi/9.2.1/../../../../arm-none-eabi/lib/thumb/v7e-m+fp/hard/libc_nano.a(lib_a-isprint.o)
isprint                                           /home/slombardo/.arduino15/packages/adafruit/tools/arm-none-eabi-gcc/9-2019q4/bin/../lib/gcc/arm-none-eabi/9.2.1/../../../../arm-none-eabi/lib/thumb/v7e-m+fp/hard/libc_nano.a(lib_a-isprint.o)
                                                  /home/slombardo/projects/BadgersRunFirmware/Build/core/core.a(debug.cpp.o)
ledOff                                            /home/slombardo/projects/BadgersRunFirmware/Build/core/core.a(wiring_digital.c.o)
                                                  /home/slombardo/projects/BadgersRunFirmware/Build/core/variant.cpp.o
ledOn                                             /home/slombardo/projects/BadgersRunFirmware/Build/core/core.a(wiring_digital.c.o)
localeconv                                        /home/slombardo/.arduino15/packages/adafruit/tools/arm-none-eabi-gcc/9-2019q4/bin/../lib/gcc/arm-none-eabi/9.2.1/../../../../arm-none-eabi/lib/thumb/v7e-m+fp/hard/libc_nano.a(lib_a-localeconv.o)
lookup_find                                       /home/slombardo/projects/BadgersRunFirmware/Build/core/core.a(utilities.c.o)
                                                  /home/slombardo/projects/BadgersRunFirmware/Build/core/core.a(debug.cpp.o)
loop                                              /home/slombardo/projects/BadgersRunFirmware/Build/sketch/keyboard.ino.cpp.o
                                                  /home/slombardo/projects/BadgersRunFirmware/Build/core/core.a(main.cpp.o)
main                                              /home/slombardo/projects/BadgersRunFirmware/Build/core/core.a(main.cpp.o)
                                                  /home/slombardo/.arduino15/packages/adafruit/tools/arm-none-eabi-gcc/9-2019q4/bin/../lib/gcc/arm-none-eabi/9.2.1/../../../../arm-none-eabi/lib/thumb/v7e-m+fp/hard/crt0.o
mallinfo                                          /home/slombardo/.arduino15/packages/adafruit/tools/arm-none-eabi-gcc/9-2019q4/bin/../lib/gcc/arm-none-eabi/9.2.1/../../../../arm-none-eabi/lib/thumb/v7e-m+fp/hard/libc_nano.a(lib_a-mstats.o)
                                                  /home/slombardo/projects/BadgersRunFirmware/Build/core/core.a(debug.cpp.o)
malloc                                            /home/slombardo/.arduino15/packages/adafruit/tools/arm-none-eabi-gcc/9-2019q4/bin/../lib/gcc/arm-none-eabi/9.2.1/../../../../arm-none-eabi/lib/thumb/v7e-m+fp/hard/libc_nano.a(lib_a-malloc.o)
                                                  /home/slombardo/.arduino15/packages/adafruit/tools/arm-none-eabi-gcc/9-2019q4/bin/../lib/gcc/arm-none-eabi/9.2.1/../../../../arm-none-eabi/lib/thumb/v7e-m+fp/hard/libc_nano.a(lib_a-mprec.o)
                                                  /home/slombardo/.arduino15/packages/adafruit/tools/arm-none-eabi-gcc/9-2019q4/bin/../lib/gcc/arm-none-eabi/9.2.1/../../../../arm-none-eabi/lib/thumb/v7e-m+fp/hard/libc_nano.a(lib_a-dtoa.o)
                                                  /home/slombardo/projects/BadgersRunFirmware/Build/core/core.a(AdaCallback.c.o)
                                                  /home/slombardo/projects/BadgersRunFirmware/Build/core/core.a(heap_3.c.o)
                                                  /home/slombardo/projects/BadgersRunFirmware/Build/core/core.a(debug.cpp.o)
malloc_stats                                      /home/slombardo/.arduino15/packages/adafruit/tools/arm-none-eabi-gcc/9-2019q4/bin/../lib/gcc/arm-none-eabi/9.2.1/../../../../arm-none-eabi/lib/thumb/v7e-m+fp/hard/libc_nano.a(lib_a-mstats.o)
mallopt                                           /home/slombardo/.arduino15/packages/adafruit/tools/arm-none-eabi-gcc/9-2019q4/bin/../lib/gcc/arm-none-eabi/9.2.1/../../../../arm-none-eabi/lib/thumb/v7e-m+fp/hard/libc_nano.a(lib_a-mstats.o)
memchr                                            /home/slombardo/.arduino15/packages/adafruit/tools/arm-none-eabi-gcc/9-2019q4/bin/../lib/gcc/arm-none-eabi/9.2.1/../../../../arm-none-eabi/lib/thumb/v7e-m+fp/hard/libc_nano.a(lib_a-memchr.o)
                                                  /home/slombardo/.arduino15/packages/adafruit/tools/arm-none-eabi-gcc/9-2019q4/bin/../lib/gcc/arm-none-eabi/9.2.1/../../../../arm-none-eabi/lib/thumb/v7e-m+fp/hard/libc_nano.a(lib_a-fvwrite.o)
                                                  /home/slombardo/.arduino15/packages/adafruit/tools/arm-none-eabi-gcc/9-2019q4/bin/../lib/gcc/arm-none-eabi/9.2.1/../../../../arm-none-eabi/lib/thumb/v7e-m+fp/hard/libc_nano.a(lib_a-nano-vfprintf.o)
                                                  /home/slombardo/.arduino15/packages/adafruit/tools/arm-none-eabi-gcc/9-2019q4/bin/../lib/gcc/arm-none-eabi/9.2.1/../../../../arm-none-eabi/lib/thumb/v7e-m+fp/hard/libc_nano.a(lib_a-nano-svfprintf.o)
                                                  /home/slombardo/.arduino15/packages/adafruit/tools/arm-none-eabi-gcc/9-2019q4/bin/../lib/gcc/arm-none-eabi/9.2.1/../../../../arm-none-eabi/lib/thumb/v7e-m+fp/hard/libc_nano.a(lib_a-nano-vfprintf_i.o)
memcpy                                            /home/slombardo/.arduino15/packages/adafruit/tools/arm-none-eabi-gcc/9-2019q4/bin/../lib/gcc/arm-none-eabi/9.2.1/../../../../arm-none-eabi/lib/thumb/v7e-m+fp/hard/libc_nano.a(lib_a-memcpy-stub.o)
                                                  /home/slombardo/.arduino15/packages/adafruit/tools/arm-none-eabi-gcc/9-2019q4/bin/../lib/gcc/arm-none-eabi/9.2.1/../../../../arm-none-eabi/lib/thumb/v7e-m+fp/hard/libc_nano.a(lib_a-nano-reallocr.o)
                                                  /home/slombardo/.arduino15/packages/adafruit/tools/arm-none-eabi-gcc/9-2019q4/bin/../lib/gcc/arm-none-eabi/9.2.1/../../../../arm-none-eabi/lib/thumb/v7e-m+fp/hard/libc_nano.a(lib_a-fvwrite.o)
                                                  /home/slombardo/.arduino15/packages/adafruit/tools/arm-none-eabi-gcc/9-2019q4/bin/../lib/gcc/arm-none-eabi/9.2.1/../../../../arm-none-eabi/lib/thumb/v7e-m+fp/hard/libc_nano.a(lib_a-nano-svfprintf.o)
                                                  /home/slombardo/.arduino15/packages/adafruit/tools/arm-none-eabi-gcc/9-2019q4/bin/../lib/gcc/arm-none-eabi/9.2.1/../../../../arm-none-eabi/lib/thumb/v7e-m+fp/hard/libc_nano.a(lib_a-mprec.o)
                                                  /home/slombardo/.arduino15/packages/adafruit/tools/arm-none-eabi-gcc/9-2019q4/bin/../lib/gcc/arm-none-eabi/9.2.1/../../../../arm-none-eabi/lib/thumb/v7e-m+fp/hard/libc_nano.a(lib_a-dtoa.o)
                                                  /home/slombardo/projects/BadgersRunFirmware/Build/core/core.a(AdaCallback.c.o)
                                                  /home/slombardo/projects/BadgersRunFirmware/Build/core/core.a(queue.c.o)
                                                  /home/slombardo/projects/BadgersRunFirmware/Build/core/core.a(debug.cpp.o)
                                                  /home/slombardo/projects/BadgersRunFirmware/Build/core/core.a(Uart.cpp.o)
memmove                                           /home/slombardo/.arduino15/packages/adafruit/tools/arm-none-eabi-gcc/9-2019q4/bin/../lib/gcc/arm-none-eabi/9.2.1/../../../../arm-none-eabi/lib/thumb/v7e-m+fp/hard/libc_nano.a(lib_a-memmove.o)
                                                  /home/slombardo/.arduino15/packages/adafruit/tools/arm-none-eabi-gcc/9-2019q4/bin/../lib/gcc/arm-none-eabi/9.2.1/../../../../arm-none-eabi/lib/thumb/v7e-m+fp/hard/libc_nano.a(lib_a-fvwrite.o)
                                                  /home/slombardo/.arduino15/packages/adafruit/tools/arm-none-eabi-gcc/9-2019q4/bin/../lib/gcc/arm-none-eabi/9.2.1/../../../../arm-none-eabi/lib/thumb/v7e-m+fp/hard/libc_nano.a(lib_a-nano-svfprintf.o)
memset                                            /home/slombardo/.arduino15/packages/adafruit/tools/arm-none-eabi-gcc/9-2019q4/bin/../lib/gcc/arm-none-eabi/9.2.1/../../../../arm-none-eabi/lib/thumb/v7e-m+fp/hard/libc_nano.a(lib_a-memset.o)
                                                  /home/slombardo/.arduino15/packages/adafruit/tools/arm-none-eabi-gcc/9-2019q4/bin/../lib/gcc/arm-none-eabi/9.2.1/../../../../arm-none-eabi/lib/thumb/v7e-m+fp/hard/libc_nano.a(lib_a-nano-callocr.o)
                                                  /home/slombardo/.arduino15/packages/adafruit/tools/arm-none-eabi-gcc/9-2019q4/bin/../lib/gcc/arm-none-eabi/9.2.1/../../../../arm-none-eabi/lib/thumb/v7e-m+fp/hard/libc_nano.a(lib_a-findfp.o)
                                                  /home/slombardo/projects/BadgersRunFirmware/Build/core/core.a(RingBuffer.cpp.o)
                                                  /home/slombardo/projects/BadgersRunFirmware/Build/core/core.a(tasks.c.o)
                                                  /home/slombardo/.arduino15/packages/adafruit/tools/arm-none-eabi-gcc/9-2019q4/bin/../lib/gcc/arm-none-eabi/9.2.1/../../../../arm-none-eabi/lib/thumb/v7e-m+fp/hard/crt0.o
millis                                            /home/slombardo/projects/BadgersRunFirmware/Build/core/core.a(delay.c.o)
mstats                                            /home/slombardo/.arduino15/packages/adafruit/tools/arm-none-eabi-gcc/9-2019q4/bin/../lib/gcc/arm-none-eabi/9.2.1/../../../../arm-none-eabi/lib/thumb/v7e-m+fp/hard/libc_nano.a(lib_a-mstats.o)
nrf_nvic_state                                    /home/slombardo/projects/BadgersRunFirmware/Build/core/core.a(wiring.c.o)
                                                  /home/slombardo/projects/BadgersRunFirmware/Build/core/core.a(port_cmsis_systick.c.o)
pcQueueGetName                                    /home/slombardo/projects/BadgersRunFirmware/Build/core/core.a(queue.c.o)
pcTaskGetName                                     /home/slombardo/projects/BadgersRunFirmware/Build/core/core.a(tasks.c.o)
                                                  /home/slombardo/projects/BadgersRunFirmware/Build/core/core.a(rtos.cpp.o)
pcTimerGetName                                    /home/slombardo/projects/BadgersRunFirmware/Build/core/core.a(timers.c.o)
pendSVHook                                        /home/slombardo/projects/BadgersRunFirmware/Build/core/core.a(hooks.c.o)
pinMode                                           /home/slombardo/projects/BadgersRunFirmware/Build/core/core.a(wiring_digital.c.o)
                                                  /home/slombardo/projects/BadgersRunFirmware/Build/core/variant.cpp.o
                                                  /home/slombardo/projects/BadgersRunFirmware/Build/sketch/keyboard.ino.cpp.o
printf                                            /home/slombardo/.arduino15/packages/adafruit/tools/arm-none-eabi-gcc/9-2019q4/bin/../lib/gcc/arm-none-eabi/9.2.1/../../../../arm-none-eabi/lib/thumb/v7e-m+fp/hard/libc_nano.a(lib_a-printf.o)
                                                  /home/slombardo/projects/BadgersRunFirmware/Build/core/core.a(AdaCallback.c.o)
                                                  /home/slombardo/projects/BadgersRunFirmware/Build/core/core.a(debug.cpp.o)
                                                  /home/slombardo/projects/BadgersRunFirmware/Build/core/core.a(rtos.cpp.o)
putc                                              /home/slombardo/.arduino15/packages/adafruit/tools/arm-none-eabi-gcc/9-2019q4/bin/../lib/gcc/arm-none-eabi/9.2.1/../../../../arm-none-eabi/lib/thumb/v7e-m+fp/hard/libc_nano.a(lib_a-putc.o)
putchar                                           /home/slombardo/.arduino15/packages/adafruit/tools/arm-none-eabi-gcc/9-2019q4/bin/../lib/gcc/arm-none-eabi/9.2.1/../../../../arm-none-eabi/lib/thumb/v7e-m+fp/hard/libc_nano.a(lib_a-putchar.o)
                                                  /home/slombardo/projects/BadgersRunFirmware/Build/core/core.a(AdaCallback.c.o)
                                                  /home/slombardo/projects/BadgersRunFirmware/Build/core/core.a(debug.cpp.o)
                                                  /home/slombardo/projects/BadgersRunFirmware/Build/core/core.a(rtos.cpp.o)
puts                                              /home/slombardo/.arduino15/packages/adafruit/tools/arm-none-eabi-gcc/9-2019q4/bin/../lib/gcc/arm-none-eabi/9.2.1/../../../../arm-none-eabi/lib/thumb/v7e-m+fp/hard/libc_nano.a(lib_a-puts.o)
                                                  /home/slombardo/projects/BadgersRunFirmware/Build/core/core.a(debug.cpp.o)
pvPortMalloc                                      /home/slombardo/projects/BadgersRunFirmware/Build/core/core.a(heap_3.c.o)
                                                  /home/slombardo/projects/BadgersRunFirmware/Build/core/core.a(AdaCallback.c.o)
                                                  /home/slombardo/projects/BadgersRunFirmware/Build/core/core.a(queue.c.o)
                                                  /home/slombardo/projects/BadgersRunFirmware/Build/core/core.a(debug.cpp.o)
                                                  /home/slombardo/projects/BadgersRunFirmware/Build/core/core.a(timers.c.o)
                                                  /home/slombardo/projects/BadgersRunFirmware/Build/core/core.a(tasks.c.o)
pvTaskIncrementMutexHeldCount                     /home/slombardo/projects/BadgersRunFirmware/Build/core/core.a(tasks.c.o)
                                                  /home/slombardo/projects/BadgersRunFirmware/Build/core/core.a(queue.c.o)
pvTimerGetTimerID                                 /home/slombardo/projects/BadgersRunFirmware/Build/core/core.a(timers.c.o)
pxCurrentTCB                                      /home/slombardo/projects/BadgersRunFirmware/Build/core/core.a(tasks.c.o)
                                                  /home/slombardo/projects/BadgersRunFirmware/Build/core/core.a(port.c.o)
pxPortInitialiseStack                             /home/slombardo/projects/BadgersRunFirmware/Build/core/core.a(port_cmsis.c.o)
                                                  /home/slombardo/projects/BadgersRunFirmware/Build/core/core.a(tasks.c.o)
resumeLoop                                        /home/slombardo/projects/BadgersRunFirmware/Build/core/core.a(main.cpp.o)
rows                                              /home/slombardo/projects/BadgersRunFirmware/Build/sketch/keyboard.ino.cpp.o
serialEvent()                                     /home/slombardo/projects/BadgersRunFirmware/Build/core/core.a(main.cpp.o)
                                                  /home/slombardo/projects/BadgersRunFirmware/Build/core/core.a(Uart.cpp.o)
serialEventRun()                                  /home/slombardo/projects/BadgersRunFirmware/Build/core/core.a(Uart.cpp.o)
                                                  /home/slombardo/projects/BadgersRunFirmware/Build/core/core.a(main.cpp.o)
setlocale                                         /home/slombardo/.arduino15/packages/adafruit/tools/arm-none-eabi-gcc/9-2019q4/bin/../lib/gcc/arm-none-eabi/9.2.1/../../../../arm-none-eabi/lib/thumb/v7e-m+fp/hard/libc_nano.a(lib_a-locale.o)
setup                                             /home/slombardo/projects/BadgersRunFirmware/Build/sketch/keyboard.ino.cpp.o
                                                  /home/slombardo/projects/BadgersRunFirmware/Build/core/core.a(main.cpp.o)
siprintf                                          /home/slombardo/.arduino15/packages/adafruit/tools/arm-none-eabi-gcc/9-2019q4/bin/../lib/gcc/arm-none-eabi/9.2.1/../../../../arm-none-eabi/lib/thumb/v7e-m+fp/hard/libc_nano.a(lib_a-sprintf.o)
sniprintf                                         /home/slombardo/.arduino15/packages/adafruit/tools/arm-none-eabi-gcc/9-2019q4/bin/../lib/gcc/arm-none-eabi/9.2.1/../../../../arm-none-eabi/lib/thumb/v7e-m+fp/hard/libc_nano.a(lib_a-snprintf.o)
snprintf                                          /home/slombardo/.arduino15/packages/adafruit/tools/arm-none-eabi-gcc/9-2019q4/bin/../lib/gcc/arm-none-eabi/9.2.1/../../../../arm-none-eabi/lib/thumb/v7e-m+fp/hard/libc_nano.a(lib_a-snprintf.o)
                                                  /home/slombardo/projects/BadgersRunFirmware/Build/core/core.a(Print.cpp.o)
software_init_hook                                /home/slombardo/.arduino15/packages/adafruit/tools/arm-none-eabi-gcc/9-2019q4/bin/../lib/gcc/arm-none-eabi/9.2.1/../../../../arm-none-eabi/lib/thumb/v7e-m+fp/hard/crt0.o
sprintf                                           /home/slombardo/.arduino15/packages/adafruit/tools/arm-none-eabi-gcc/9-2019q4/bin/../lib/gcc/arm-none-eabi/9.2.1/../../../../arm-none-eabi/lib/thumb/v7e-m+fp/hard/libc_nano.a(lib_a-sprintf.o)
                                                  /home/slombardo/projects/BadgersRunFirmware/Build/core/core.a(utilities.c.o)
                                                  /home/slombardo/projects/BadgersRunFirmware/Build/core/core.a(debug.cpp.o)
                                                  /home/slombardo/projects/BadgersRunFirmware/Build/core/core.a(tasks.c.o)
stpcpy                                            /home/slombardo/.arduino15/packages/adafruit/tools/arm-none-eabi-gcc/9-2019q4/bin/../lib/gcc/arm-none-eabi/9.2.1/../../../../arm-none-eabi/lib/thumb/v7e-m+fp/hard/libc_nano.a(lib_a-stpcpy.o)
                                                  /home/slombardo/projects/BadgersRunFirmware/Build/core/core.a(tasks.c.o)
strcmp                                            /home/slombardo/.arduino15/packages/adafruit/tools/arm-none-eabi-gcc/9-2019q4/bin/../lib/gcc/arm-none-eabi/9.2.1/../../../../arm-none-eabi/lib/thumb/v7e-m+fp/hard/libc_nano.a(lib_a-strcmp.o)
                                                  /home/slombardo/.arduino15/packages/adafruit/tools/arm-none-eabi-gcc/9-2019q4/bin/../lib/gcc/arm-none-eabi/9.2.1/../../../../arm-none-eabi/lib/thumb/v7e-m+fp/hard/libc_nano.a(lib_a-locale.o)
strlen                                            /home/slombardo/.arduino15/packages/adafruit/tools/arm-none-eabi-gcc/9-2019q4/bin/../lib/gcc/arm-none-eabi/9.2.1/../../../../arm-none-eabi/lib/thumb/v7e-m+fp/hard/libc_nano.a(lib_a-strlen.o)
                                                  /home/slombardo/.arduino15/packages/adafruit/tools/arm-none-eabi-gcc/9-2019q4/bin/../lib/gcc/arm-none-eabi/9.2.1/../../../../arm-none-eabi/lib/thumb/v7e-m+fp/hard/libc_nano.a(lib_a-nano-vfprintf_float.o)
                                                  /home/slombardo/projects/BadgersRunFirmware/Build/core/core.a(Print.cpp.o)
                                                  /home/slombardo/projects/BadgersRunFirmware/Build/core/core.a(tasks.c.o)
suspendLoop                                       /home/slombardo/projects/BadgersRunFirmware/Build/core/core.a(main.cpp.o)
svcHook                                           /home/slombardo/projects/BadgersRunFirmware/Build/core/core.a(hooks.c.o)
sysTickHook                                       /home/slombardo/projects/BadgersRunFirmware/Build/core/core.a(hooks.c.o)
systemOff                                         /home/slombardo/projects/BadgersRunFirmware/Build/core/core.a(wiring.c.o)
ucQueueGetQueueType                               /home/slombardo/projects/BadgersRunFirmware/Build/core/core.a(queue.c.o)
ulTaskNotifyTake                                  /home/slombardo/projects/BadgersRunFirmware/Build/core/core.a(tasks.c.o)
uxListRemove                                      /home/slombardo/projects/BadgersRunFirmware/Build/core/core.a(list.c.o)
                                                  /home/slombardo/projects/BadgersRunFirmware/Build/core/core.a(timers.c.o)
                                                  /home/slombardo/projects/BadgersRunFirmware/Build/core/core.a(tasks.c.o)
uxQueueGetQueueNumber                             /home/slombardo/projects/BadgersRunFirmware/Build/core/core.a(queue.c.o)
uxQueueMessagesWaiting                            /home/slombardo/projects/BadgersRunFirmware/Build/core/core.a(queue.c.o)
uxQueueMessagesWaitingFromISR                     /home/slombardo/projects/BadgersRunFirmware/Build/core/core.a(queue.c.o)
uxQueueSpacesAvailable                            /home/slombardo/projects/BadgersRunFirmware/Build/core/core.a(queue.c.o)
uxTaskGetNumberOfTasks                            /home/slombardo/projects/BadgersRunFirmware/Build/core/core.a(tasks.c.o)
                                                  /home/slombardo/projects/BadgersRunFirmware/Build/core/core.a(debug.cpp.o)
uxTaskGetStackHighWaterMark                       /home/slombardo/projects/BadgersRunFirmware/Build/core/core.a(tasks.c.o)
uxTaskGetSystemState                              /home/slombardo/projects/BadgersRunFirmware/Build/core/core.a(tasks.c.o)
uxTaskGetTaskNumber                               /home/slombardo/projects/BadgersRunFirmware/Build/core/core.a(tasks.c.o)
uxTaskPriorityGet                                 /home/slombardo/projects/BadgersRunFirmware/Build/core/core.a(tasks.c.o)
uxTaskPriorityGetFromISR                          /home/slombardo/projects/BadgersRunFirmware/Build/core/core.a(tasks.c.o)
uxTaskResetEventItemValue                         /home/slombardo/projects/BadgersRunFirmware/Build/core/core.a(tasks.c.o)
uxTimerGetTimerNumber                             /home/slombardo/projects/BadgersRunFirmware/Build/core/core.a(timers.c.o)
vApplicationGetIdleTaskMemory                     /home/slombardo/projects/BadgersRunFirmware/Build/core/core.a(rtos.cpp.o)
                                                  /home/slombardo/projects/BadgersRunFirmware/Build/core/core.a(tasks.c.o)
vApplicationGetTimerTaskMemory                    /home/slombardo/projects/BadgersRunFirmware/Build/core/core.a(rtos.cpp.o)
                                                  /home/slombardo/projects/BadgersRunFirmware/Build/core/core.a(timers.c.o)
vApplicationIdleHook                              /home/slombardo/projects/BadgersRunFirmware/Build/core/core.a(hooks.c.o)
                                                  /home/slombardo/projects/BadgersRunFirmware/Build/core/core.a(tasks.c.o)
vApplicationMallocFailedHook                      /home/slombardo/projects/BadgersRunFirmware/Build/core/core.a(rtos.cpp.o)
                                                  /home/slombardo/projects/BadgersRunFirmware/Build/core/core.a(heap_3.c.o)
vApplicationStackOverflowHook                     /home/slombardo/projects/BadgersRunFirmware/Build/core/core.a(rtos.cpp.o)
                                                  /home/slombardo/projects/BadgersRunFirmware/Build/core/core.a(tasks.c.o)
vListInitialise                                   /home/slombardo/projects/BadgersRunFirmware/Build/core/core.a(list.c.o)
                                                  /home/slombardo/projects/BadgersRunFirmware/Build/core/core.a(queue.c.o)
                                                  /home/slombardo/projects/BadgersRunFirmware/Build/core/core.a(timers.c.o)
                                                  /home/slombardo/projects/BadgersRunFirmware/Build/core/core.a(tasks.c.o)
vListInitialiseItem                               /home/slombardo/projects/BadgersRunFirmware/Build/core/core.a(list.c.o)
                                                  /home/slombardo/projects/BadgersRunFirmware/Build/core/core.a(timers.c.o)
                                                  /home/slombardo/projects/BadgersRunFirmware/Build/core/core.a(tasks.c.o)
vListInsert                                       /home/slombardo/projects/BadgersRunFirmware/Build/core/core.a(list.c.o)
                                                  /home/slombardo/projects/BadgersRunFirmware/Build/core/core.a(timers.c.o)
                                                  /home/slombardo/projects/BadgersRunFirmware/Build/core/core.a(tasks.c.o)
vListInsertEnd                                    /home/slombardo/projects/BadgersRunFirmware/Build/core/core.a(list.c.o)
                                                  /home/slombardo/projects/BadgersRunFirmware/Build/core/core.a(tasks.c.o)
vPortEndScheduler                                 /home/slombardo/projects/BadgersRunFirmware/Build/core/core.a(port_cmsis.c.o)
                                                  /home/slombardo/projects/BadgersRunFirmware/Build/core/core.a(tasks.c.o)
vPortEnterCritical                                /home/slombardo/projects/BadgersRunFirmware/Build/core/core.a(port_cmsis.c.o)
                                                  /home/slombardo/projects/BadgersRunFirmware/Build/core/core.a(AdaCallback.c.o)
                                                  /home/slombardo/projects/BadgersRunFirmware/Build/core/core.a(queue.c.o)
                                                  /home/slombardo/projects/BadgersRunFirmware/Build/core/core.a(timers.c.o)
                                                  /home/slombardo/projects/BadgersRunFirmware/Build/core/core.a(tasks.c.o)
vPortExitCritical                                 /home/slombardo/projects/BadgersRunFirmware/Build/core/core.a(port_cmsis.c.o)
                                                  /home/slombardo/projects/BadgersRunFirmware/Build/core/core.a(AdaCallback.c.o)
                                                  /home/slombardo/projects/BadgersRunFirmware/Build/core/core.a(queue.c.o)
                                                  /home/slombardo/projects/BadgersRunFirmware/Build/core/core.a(timers.c.o)
                                                  /home/slombardo/projects/BadgersRunFirmware/Build/core/core.a(tasks.c.o)
vPortFree                                         /home/slombardo/projects/BadgersRunFirmware/Build/core/core.a(heap_3.c.o)
                                                  /home/slombardo/projects/BadgersRunFirmware/Build/core/core.a(AdaCallback.c.o)
                                                  /home/slombardo/projects/BadgersRunFirmware/Build/core/core.a(queue.c.o)
                                                  /home/slombardo/projects/BadgersRunFirmware/Build/core/core.a(debug.cpp.o)
                                                  /home/slombardo/projects/BadgersRunFirmware/Build/core/core.a(timers.c.o)
                                                  /home/slombardo/projects/BadgersRunFirmware/Build/core/core.a(tasks.c.o)
vPortSetupTimerInterrupt                          /home/slombardo/projects/BadgersRunFirmware/Build/core/core.a(port_cmsis_systick.c.o)
                                                  /home/slombardo/projects/BadgersRunFirmware/Build/core/core.a(port_cmsis.c.o)
vPortStartFirstTask                               /home/slombardo/projects/BadgersRunFirmware/Build/core/core.a(port.c.o)
                                                  /home/slombardo/projects/BadgersRunFirmware/Build/core/core.a(port_cmsis.c.o)
vPortSuppressTicksAndSleep                        /home/slombardo/projects/BadgersRunFirmware/Build/core/core.a(port_cmsis_systick.c.o)
                                                  /home/slombardo/projects/BadgersRunFirmware/Build/core/core.a(tasks.c.o)
vQueueAddToRegistry                               /home/slombardo/projects/BadgersRunFirmware/Build/core/core.a(queue.c.o)
                                                  /home/slombardo/projects/BadgersRunFirmware/Build/core/core.a(timers.c.o)
vQueueDelete                                      /home/slombardo/projects/BadgersRunFirmware/Build/core/core.a(queue.c.o)
                                                  /home/slombardo/projects/BadgersRunFirmware/Build/core/core.a(AdaCallback.c.o)
                                                  /home/slombardo/projects/BadgersRunFirmware/Build/core/core.a(Uart.cpp.o)
vQueueSetQueueNumber                              /home/slombardo/projects/BadgersRunFirmware/Build/core/core.a(queue.c.o)
vQueueUnregisterQueue                             /home/slombardo/projects/BadgersRunFirmware/Build/core/core.a(queue.c.o)
vQueueWaitForMessageRestricted                    /home/slombardo/projects/BadgersRunFirmware/Build/core/core.a(queue.c.o)
                                                  /home/slombardo/projects/BadgersRunFirmware/Build/core/core.a(timers.c.o)
vTaskDelay                                        /home/slombardo/projects/BadgersRunFirmware/Build/core/core.a(tasks.c.o)
                                                  /home/slombardo/projects/BadgersRunFirmware/Build/core/core.a(delay.c.o)
vTaskDelayUntil                                   /home/slombardo/projects/BadgersRunFirmware/Build/core/core.a(tasks.c.o)
vTaskDelete                                       /home/slombardo/projects/BadgersRunFirmware/Build/core/core.a(tasks.c.o)
vTaskEndScheduler                                 /home/slombardo/projects/BadgersRunFirmware/Build/core/core.a(tasks.c.o)
vTaskGetInfo                                      /home/slombardo/projects/BadgersRunFirmware/Build/core/core.a(tasks.c.o)
vTaskInternalSetTimeOutState                      /home/slombardo/projects/BadgersRunFirmware/Build/core/core.a(tasks.c.o)
                                                  /home/slombardo/projects/BadgersRunFirmware/Build/core/core.a(queue.c.o)
vTaskList                                         /home/slombardo/projects/BadgersRunFirmware/Build/core/core.a(tasks.c.o)
                                                  /home/slombardo/projects/BadgersRunFirmware/Build/core/core.a(debug.cpp.o)
vTaskMissedYield                                  /home/slombardo/projects/BadgersRunFirmware/Build/core/core.a(tasks.c.o)
                                                  /home/slombardo/projects/BadgersRunFirmware/Build/core/core.a(queue.c.o)
vTaskNotifyGiveFromISR                            /home/slombardo/projects/BadgersRunFirmware/Build/core/core.a(tasks.c.o)
vTaskPlaceOnEventList                             /home/slombardo/projects/BadgersRunFirmware/Build/core/core.a(tasks.c.o)
                                                  /home/slombardo/projects/BadgersRunFirmware/Build/core/core.a(queue.c.o)
vTaskPlaceOnEventListRestricted                   /home/slombardo/projects/BadgersRunFirmware/Build/core/core.a(tasks.c.o)
                                                  /home/slombardo/projects/BadgersRunFirmware/Build/core/core.a(queue.c.o)
vTaskPlaceOnUnorderedEventList                    /home/slombardo/projects/BadgersRunFirmware/Build/core/core.a(tasks.c.o)
vTaskPriorityDisinheritAfterTimeout               /home/slombardo/projects/BadgersRunFirmware/Build/core/core.a(tasks.c.o)
                                                  /home/slombardo/projects/BadgersRunFirmware/Build/core/core.a(queue.c.o)
vTaskPrioritySet                                  /home/slombardo/projects/BadgersRunFirmware/Build/core/core.a(tasks.c.o)
vTaskRemoveFromUnorderedEventList                 /home/slombardo/projects/BadgersRunFirmware/Build/core/core.a(tasks.c.o)
vTaskResume                                       /home/slombardo/projects/BadgersRunFirmware/Build/core/core.a(tasks.c.o)
                                                  /home/slombardo/projects/BadgersRunFirmware/Build/core/core.a(AdaCallback.c.o)
                                                  /home/slombardo/projects/BadgersRunFirmware/Build/core/core.a(main.cpp.o)
vTaskSetTaskNumber                                /home/slombardo/projects/BadgersRunFirmware/Build/core/core.a(tasks.c.o)
vTaskSetTimeOutState                              /home/slombardo/projects/BadgersRunFirmware/Build/core/core.a(tasks.c.o)
vTaskStartScheduler                               /home/slombardo/projects/BadgersRunFirmware/Build/core/core.a(tasks.c.o)
                                                  /home/slombardo/projects/BadgersRunFirmware/Build/core/core.a(main.cpp.o)
vTaskStepTick                                     /home/slombardo/projects/BadgersRunFirmware/Build/core/core.a(tasks.c.o)
                                                  /home/slombardo/projects/BadgersRunFirmware/Build/core/core.a(port_cmsis_systick.c.o)
vTaskSuspend                                      /home/slombardo/projects/BadgersRunFirmware/Build/core/core.a(tasks.c.o)
                                                  /home/slombardo/projects/BadgersRunFirmware/Build/core/core.a(AdaCallback.c.o)
                                                  /home/slombardo/projects/BadgersRunFirmware/Build/core/core.a(main.cpp.o)
vTaskSuspendAll                                   /home/slombardo/projects/BadgersRunFirmware/Build/core/core.a(tasks.c.o)
                                                  /home/slombardo/projects/BadgersRunFirmware/Build/core/core.a(queue.c.o)
                                                  /home/slombardo/projects/BadgersRunFirmware/Build/core/core.a(heap_3.c.o)
                                                  /home/slombardo/projects/BadgersRunFirmware/Build/core/core.a(timers.c.o)
vTaskSwitchContext                                /home/slombardo/projects/BadgersRunFirmware/Build/core/core.a(tasks.c.o)
                                                  /home/slombardo/projects/BadgersRunFirmware/Build/core/core.a(port.c.o)
vTimerSetTimerID                                  /home/slombardo/projects/BadgersRunFirmware/Build/core/core.a(timers.c.o)
vTimerSetTimerNumber                              /home/slombardo/projects/BadgersRunFirmware/Build/core/core.a(timers.c.o)
vfiprintf                                         /home/slombardo/.arduino15/packages/adafruit/tools/arm-none-eabi-gcc/9-2019q4/bin/../lib/gcc/arm-none-eabi/9.2.1/../../../../arm-none-eabi/lib/thumb/v7e-m+fp/hard/libc_nano.a(lib_a-nano-vfprintf.o)
vfprintf                                          /home/slombardo/.arduino15/packages/adafruit/tools/arm-none-eabi-gcc/9-2019q4/bin/../lib/gcc/arm-none-eabi/9.2.1/../../../../arm-none-eabi/lib/thumb/v7e-m+fp/hard/libc_nano.a(lib_a-nano-vfprintf.o)
vsniprintf                                        /home/slombardo/.arduino15/packages/adafruit/tools/arm-none-eabi-gcc/9-2019q4/bin/../lib/gcc/arm-none-eabi/9.2.1/../../../../arm-none-eabi/lib/thumb/v7e-m+fp/hard/libc_nano.a(lib_a-vsnprintf.o)
vsnprintf                                         /home/slombardo/.arduino15/packages/adafruit/tools/arm-none-eabi-gcc/9-2019q4/bin/../lib/gcc/arm-none-eabi/9.2.1/../../../../arm-none-eabi/lib/thumb/v7e-m+fp/hard/libc_nano.a(lib_a-vsnprintf.o)
                                                  /home/slombardo/projects/BadgersRunFirmware/Build/core/core.a(Print.cpp.o)
vtable for Print                                  /home/slombardo/projects/BadgersRunFirmware/Build/core/core.a(Print.cpp.o)
vtable for Uart                                   /home/slombardo/projects/BadgersRunFirmware/Build/core/core.a(Uart.cpp.o)
waitForEvent                                      /home/slombardo/projects/BadgersRunFirmware/Build/core/core.a(wiring.c.o)
xPortStartScheduler                               /home/slombardo/projects/BadgersRunFirmware/Build/core/core.a(port_cmsis.c.o)
                                                  /home/slombardo/projects/BadgersRunFirmware/Build/core/core.a(tasks.c.o)
xQueueCreateCountingSemaphore                     /home/slombardo/projects/BadgersRunFirmware/Build/core/core.a(queue.c.o)
xQueueCreateCountingSemaphoreStatic               /home/slombardo/projects/BadgersRunFirmware/Build/core/core.a(queue.c.o)
xQueueCreateMutex                                 /home/slombardo/projects/BadgersRunFirmware/Build/core/core.a(queue.c.o)
                                                  /home/slombardo/projects/BadgersRunFirmware/Build/core/core.a(Uart.cpp.o)
xQueueCreateMutexStatic                           /home/slombardo/projects/BadgersRunFirmware/Build/core/core.a(queue.c.o)
xQueueGenericCreate                               /home/slombardo/projects/BadgersRunFirmware/Build/core/core.a(queue.c.o)
                                                  /home/slombardo/projects/BadgersRunFirmware/Build/core/core.a(AdaCallback.c.o)
xQueueGenericCreateStatic                         /home/slombardo/projects/BadgersRunFirmware/Build/core/core.a(queue.c.o)
                                                  /home/slombardo/projects/BadgersRunFirmware/Build/core/core.a(timers.c.o)
xQueueGenericReset                                /home/slombardo/projects/BadgersRunFirmware/Build/core/core.a(queue.c.o)
xQueueGenericSend                                 /home/slombardo/projects/BadgersRunFirmware/Build/core/core.a(queue.c.o)
                                                  /home/slombardo/projects/BadgersRunFirmware/Build/core/core.a(AdaCallback.c.o)
                                                  /home/slombardo/projects/BadgersRunFirmware/Build/core/core.a(Uart.cpp.o)
                                                  /home/slombardo/projects/BadgersRunFirmware/Build/core/core.a(timers.c.o)
xQueueGenericSendFromISR                          /home/slombardo/projects/BadgersRunFirmware/Build/core/core.a(queue.c.o)
                                                  /home/slombardo/projects/BadgersRunFirmware/Build/core/core.a(AdaCallback.c.o)
                                                  /home/slombardo/projects/BadgersRunFirmware/Build/core/core.a(timers.c.o)
xQueueGiveFromISR                                 /home/slombardo/projects/BadgersRunFirmware/Build/core/core.a(queue.c.o)
                                                  /home/slombardo/projects/BadgersRunFirmware/Build/core/core.a(Uart.cpp.o)
xQueueGiveMutexRecursive                          /home/slombardo/projects/BadgersRunFirmware/Build/core/core.a(queue.c.o)
xQueueIsQueueEmptyFromISR                         /home/slombardo/projects/BadgersRunFirmware/Build/core/core.a(queue.c.o)
xQueueIsQueueFullFromISR                          /home/slombardo/projects/BadgersRunFirmware/Build/core/core.a(queue.c.o)
xQueuePeek                                        /home/slombardo/projects/BadgersRunFirmware/Build/core/core.a(queue.c.o)
xQueuePeekFromISR                                 /home/slombardo/projects/BadgersRunFirmware/Build/core/core.a(queue.c.o)
xQueueReceive                                     /home/slombardo/projects/BadgersRunFirmware/Build/core/core.a(queue.c.o)
                                                  /home/slombardo/projects/BadgersRunFirmware/Build/core/core.a(AdaCallback.c.o)
                                                  /home/slombardo/projects/BadgersRunFirmware/Build/core/core.a(timers.c.o)
xQueueReceiveFromISR                              /home/slombardo/projects/BadgersRunFirmware/Build/core/core.a(queue.c.o)
xQueueRegistry                                    /home/slombardo/projects/BadgersRunFirmware/Build/core/core.a(queue.c.o)
xQueueSemaphoreTake                               /home/slombardo/projects/BadgersRunFirmware/Build/core/core.a(queue.c.o)
                                                  /home/slombardo/projects/BadgersRunFirmware/Build/core/core.a(Uart.cpp.o)
xQueueTakeMutexRecursive                          /home/slombardo/projects/BadgersRunFirmware/Build/core/core.a(queue.c.o)
xTaskCheckForTimeOut                              /home/slombardo/projects/BadgersRunFirmware/Build/core/core.a(tasks.c.o)
                                                  /home/slombardo/projects/BadgersRunFirmware/Build/core/core.a(queue.c.o)
xTaskCreate                                       /home/slombardo/projects/BadgersRunFirmware/Build/core/core.a(tasks.c.o)
                                                  /home/slombardo/projects/BadgersRunFirmware/Build/core/core.a(AdaCallback.c.o)
                                                  /home/slombardo/projects/BadgersRunFirmware/Build/core/core.a(rtos.cpp.o)
                                                  /home/slombardo/projects/BadgersRunFirmware/Build/core/core.a(main.cpp.o)
xTaskCreateStatic                                 /home/slombardo/projects/BadgersRunFirmware/Build/core/core.a(tasks.c.o)
                                                  /home/slombardo/projects/BadgersRunFirmware/Build/core/core.a(timers.c.o)
xTaskGenericNotify                                /home/slombardo/projects/BadgersRunFirmware/Build/core/core.a(tasks.c.o)
xTaskGenericNotifyFromISR                         /home/slombardo/projects/BadgersRunFirmware/Build/core/core.a(tasks.c.o)
xTaskGetCurrentTaskHandle                         /home/slombardo/projects/BadgersRunFirmware/Build/core/core.a(tasks.c.o)
                                                  /home/slombardo/projects/BadgersRunFirmware/Build/core/core.a(queue.c.o)
                                                  /home/slombardo/projects/BadgersRunFirmware/Build/core/core.a(rtos.cpp.o)
xTaskGetIdleTaskHandle                            /home/slombardo/projects/BadgersRunFirmware/Build/core/core.a(tasks.c.o)
xTaskGetSchedulerState                            /home/slombardo/projects/BadgersRunFirmware/Build/core/core.a(tasks.c.o)
                                                  /home/slombardo/projects/BadgersRunFirmware/Build/core/core.a(AdaCallback.c.o)
                                                  /home/slombardo/projects/BadgersRunFirmware/Build/core/core.a(debug.cpp.o)
                                                  /home/slombardo/projects/BadgersRunFirmware/Build/core/core.a(port_cmsis_systick.c.o)
                                                  /home/slombardo/projects/BadgersRunFirmware/Build/core/core.a(timers.c.o)
xTaskGetTickCount                                 /home/slombardo/projects/BadgersRunFirmware/Build/core/core.a(tasks.c.o)
                                                  /home/slombardo/projects/BadgersRunFirmware/Build/core/core.a(port_cmsis_systick.c.o)
                                                  /home/slombardo/projects/BadgersRunFirmware/Build/core/core.a(timers.c.o)
                                                  /home/slombardo/projects/BadgersRunFirmware/Build/core/core.a(delay.c.o)
xTaskGetTickCountFromISR                          /home/slombardo/projects/BadgersRunFirmware/Build/core/core.a(tasks.c.o)
xTaskIncrementTick                                /home/slombardo/projects/BadgersRunFirmware/Build/core/core.a(tasks.c.o)
                                                  /home/slombardo/projects/BadgersRunFirmware/Build/core/core.a(port_cmsis_systick.c.o)
xTaskNotifyStateClear                             /home/slombardo/projects/BadgersRunFirmware/Build/core/core.a(tasks.c.o)
xTaskNotifyWait                                   /home/slombardo/projects/BadgersRunFirmware/Build/core/core.a(tasks.c.o)
xTaskPriorityDisinherit                           /home/slombardo/projects/BadgersRunFirmware/Build/core/core.a(tasks.c.o)
                                                  /home/slombardo/projects/BadgersRunFirmware/Build/core/core.a(queue.c.o)
xTaskPriorityInherit                              /home/slombardo/projects/BadgersRunFirmware/Build/core/core.a(tasks.c.o)
                                                  /home/slombardo/projects/BadgersRunFirmware/Build/core/core.a(queue.c.o)
xTaskRemoveFromEventList                          /home/slombardo/projects/BadgersRunFirmware/Build/core/core.a(tasks.c.o)
                                                  /home/slombardo/projects/BadgersRunFirmware/Build/core/core.a(queue.c.o)
xTaskResumeAll                                    /home/slombardo/projects/BadgersRunFirmware/Build/core/core.a(tasks.c.o)
                                                  /home/slombardo/projects/BadgersRunFirmware/Build/core/core.a(queue.c.o)
                                                  /home/slombardo/projects/BadgersRunFirmware/Build/core/core.a(heap_3.c.o)
                                                  /home/slombardo/projects/BadgersRunFirmware/Build/core/core.a(timers.c.o)
xTaskResumeFromISR                                /home/slombardo/projects/BadgersRunFirmware/Build/core/core.a(tasks.c.o)
                                                  /home/slombardo/projects/BadgersRunFirmware/Build/core/core.a(main.cpp.o)
xTimerCreate                                      /home/slombardo/projects/BadgersRunFirmware/Build/core/core.a(timers.c.o)
xTimerCreateStatic                                /home/slombardo/projects/BadgersRunFirmware/Build/core/core.a(timers.c.o)
xTimerCreateTimerTask                             /home/slombardo/projects/BadgersRunFirmware/Build/core/core.a(timers.c.o)
                                                  /home/slombardo/projects/BadgersRunFirmware/Build/core/core.a(tasks.c.o)
xTimerGenericCommand                              /home/slombardo/projects/BadgersRunFirmware/Build/core/core.a(timers.c.o)
xTimerGetExpiryTime                               /home/slombardo/projects/BadgersRunFirmware/Build/core/core.a(timers.c.o)
xTimerGetPeriod                                   /home/slombardo/projects/BadgersRunFirmware/Build/core/core.a(timers.c.o)
xTimerGetTimerDaemonTaskHandle                    /home/slombardo/projects/BadgersRunFirmware/Build/core/core.a(timers.c.o)
xTimerIsTimerActive                               /home/slombardo/projects/BadgersRunFirmware/Build/core/core.a(timers.c.o)
xTimerPendFunctionCall                            /home/slombardo/projects/BadgersRunFirmware/Build/core/core.a(timers.c.o)
xTimerPendFunctionCallFromISR                     /home/slombardo/projects/BadgersRunFirmware/Build/core/core.a(timers.c.o)
yield                                             /home/slombardo/projects/BadgersRunFirmware/Build/core/core.a(rtos.cpp.o)
                                                  /home/slombardo/projects/BadgersRunFirmware/Build/core/core.a(hooks.c.o)
                                                  /home/slombardo/projects/BadgersRunFirmware/Build/core/core.a(main.cpp.o)
