Archive member included to satisfy reference by file (symbol)

c:\Users\Spencer\Desktop\Keyboard\Firmware\BadgersRunFirmware\Build/core\core.a(gcc_startup_nrf52.S.o)
                              (Reset_Handler)
c:\Users\Spencer\Desktop\Keyboard\Firmware\BadgersRunFirmware\Build/core\core.a(system_nrf52.c.o)
                              c:\Users\Spencer\Desktop\Keyboard\Firmware\BadgersRunFirmware\Build/core\core.a(gcc_startup_nrf52.S.o) (SystemInit)
c:\Users\Spencer\Desktop\Keyboard\Firmware\BadgersRunFirmware\Build/core\core.a(wiring_digital.c.o)
                              c:\Users\Spencer\Desktop\Keyboard\Firmware\BadgersRunFirmware\Build\core\variant.cpp.o (pinMode)
c:\Users\Spencer\Desktop\Keyboard\Firmware\BadgersRunFirmware\Build/core\core.a(main.cpp.o)
                              c:/users/spencer/appdata/local/arduino15/packages/adafruit/tools/arm-none-eabi-gcc/9-2019q4/bin/../lib/gcc/arm-none-eabi/9.2.1/../../../../arm-none-eabi/lib/thumb/v7e-m+fp/hard/crt0.o (main)
c:\Users\Spencer\Desktop\Keyboard\Firmware\BadgersRunFirmware\Build/core\core.a(rtos.cpp.o)
                              c:\Users\Spencer\Desktop\Keyboard\Firmware\BadgersRunFirmware\Build/core\core.a(main.cpp.o) (yield)
c:\Users\Spencer\Desktop\Keyboard\Firmware\BadgersRunFirmware\Build/core\core.a(debug.cpp.o)
                              c:\Users\Spencer\Desktop\Keyboard\Firmware\BadgersRunFirmware\Build/core\core.a(main.cpp.o) (dbgPrintVersion)
c:\Users\Spencer\Desktop\Keyboard\Firmware\BadgersRunFirmware\Build/core\core.a(heap_3.c.o)
                              c:\Users\Spencer\Desktop\Keyboard\Firmware\BadgersRunFirmware\Build/core\core.a(debug.cpp.o) (pvPortMalloc)
c:\Users\Spencer\Desktop\Keyboard\Firmware\BadgersRunFirmware\Build/core\core.a(tasks.c.o)
                              c:\Users\Spencer\Desktop\Keyboard\Firmware\BadgersRunFirmware\Build/core\core.a(main.cpp.o) (xTaskCreate)
c:\Users\Spencer\Desktop\Keyboard\Firmware\BadgersRunFirmware\Build/core\core.a(timers.c.o)
                              c:\Users\Spencer\Desktop\Keyboard\Firmware\BadgersRunFirmware\Build/core\core.a(tasks.c.o) (xTimerCreateTimerTask)
c:\Users\Spencer\Desktop\Keyboard\Firmware\BadgersRunFirmware\Build/core\core.a(port_cmsis.c.o)
                              c:\Users\Spencer\Desktop\Keyboard\Firmware\BadgersRunFirmware\Build/core\core.a(tasks.c.o) (pxPortInitialiseStack)
c:\Users\Spencer\Desktop\Keyboard\Firmware\BadgersRunFirmware\Build/core\core.a(port_cmsis_systick.c.o)
                              c:\Users\Spencer\Desktop\Keyboard\Firmware\BadgersRunFirmware\Build/core\core.a(port_cmsis.c.o) (vPortSetupTimerInterrupt)
c:\Users\Spencer\Desktop\Keyboard\Firmware\BadgersRunFirmware\Build/core\core.a(port.c.o)
                              c:\Users\Spencer\Desktop\Keyboard\Firmware\BadgersRunFirmware\Build/core\core.a(port_cmsis.c.o) (vPortStartFirstTask)
c:\Users\Spencer\Desktop\Keyboard\Firmware\BadgersRunFirmware\Build/core\core.a(hooks.c.o)
                              c:\Users\Spencer\Desktop\Keyboard\Firmware\BadgersRunFirmware\Build/core\core.a(tasks.c.o) (vApplicationIdleHook)
c:\Users\Spencer\Desktop\Keyboard\Firmware\BadgersRunFirmware\Build/core\core.a(AdaCallback.c.o)
                              c:\Users\Spencer\Desktop\Keyboard\Firmware\BadgersRunFirmware\Build/core\core.a(main.cpp.o) (ada_callback_init)
c:\Users\Spencer\Desktop\Keyboard\Firmware\BadgersRunFirmware\Build/core\core.a(utilities.c.o)
                              c:\Users\Spencer\Desktop\Keyboard\Firmware\BadgersRunFirmware\Build/core\core.a(debug.cpp.o) (lookup_find)
c:\Users\Spencer\Desktop\Keyboard\Firmware\BadgersRunFirmware\Build/core\core.a(wiring.c.o)
                              c:\Users\Spencer\Desktop\Keyboard\Firmware\BadgersRunFirmware\Build/core\core.a(main.cpp.o) (init)
c:\Users\Spencer\Desktop\Keyboard\Firmware\BadgersRunFirmware\Build/core\core.a(Uart.cpp.o)
                              c:\Users\Spencer\Desktop\Keyboard\Firmware\BadgersRunFirmware\Build/core\core.a(main.cpp.o) (Uart::write(unsigned char const*, unsigned int))
c:\Users\Spencer\Desktop\Keyboard\Firmware\BadgersRunFirmware\Build/core\core.a(list.c.o)
                              c:\Users\Spencer\Desktop\Keyboard\Firmware\BadgersRunFirmware\Build/core\core.a(tasks.c.o) (vListInitialise)
c:\Users\Spencer\Desktop\Keyboard\Firmware\BadgersRunFirmware\Build/core\core.a(queue.c.o)
                              c:\Users\Spencer\Desktop\Keyboard\Firmware\BadgersRunFirmware\Build/core\core.a(timers.c.o) (xQueueGenericCreateStatic)
c:\Users\Spencer\Desktop\Keyboard\Firmware\BadgersRunFirmware\Build/core\core.a(RingBuffer.cpp.o)
                              c:\Users\Spencer\Desktop\Keyboard\Firmware\BadgersRunFirmware\Build/core\core.a(Uart.cpp.o) (RingBuffer::RingBuffer())
c:/users/spencer/appdata/local/arduino15/packages/adafruit/tools/arm-none-eabi-gcc/9-2019q4/bin/../lib/gcc/arm-none-eabi/9.2.1/../../../../arm-none-eabi/lib/thumb/v7e-m+fp/hard\libc_nano.a(lib_a-exit.o)
                              c:/users/spencer/appdata/local/arduino15/packages/adafruit/tools/arm-none-eabi-gcc/9-2019q4/bin/../lib/gcc/arm-none-eabi/9.2.1/../../../../arm-none-eabi/lib/thumb/v7e-m+fp/hard/crt0.o (exit)
c:/users/spencer/appdata/local/arduino15/packages/adafruit/tools/arm-none-eabi-gcc/9-2019q4/bin/../lib/gcc/arm-none-eabi/9.2.1/../../../../arm-none-eabi/lib/thumb/v7e-m+fp/hard\libc_nano.a(lib_a-impure.o)
                              c:/users/spencer/appdata/local/arduino15/packages/adafruit/tools/arm-none-eabi-gcc/9-2019q4/bin/../lib/gcc/arm-none-eabi/9.2.1/../../../../arm-none-eabi/lib/thumb/v7e-m+fp/hard\libc_nano.a(lib_a-exit.o) (_global_impure_ptr)
c:/users/spencer/appdata/local/arduino15/packages/adafruit/tools/arm-none-eabi-gcc/9-2019q4/bin/../lib/gcc/arm-none-eabi/9.2.1/../../../../arm-none-eabi/lib/thumb/v7e-m+fp/hard\libc_nano.a(lib_a-init.o)
                              c:/users/spencer/appdata/local/arduino15/packages/adafruit/tools/arm-none-eabi-gcc/9-2019q4/bin/../lib/gcc/arm-none-eabi/9.2.1/../../../../arm-none-eabi/lib/thumb/v7e-m+fp/hard/crt0.o (__libc_init_array)
c:/users/spencer/appdata/local/arduino15/packages/adafruit/tools/arm-none-eabi-gcc/9-2019q4/bin/../lib/gcc/arm-none-eabi/9.2.1/../../../../arm-none-eabi/lib/thumb/v7e-m+fp/hard\libc_nano.a(lib_a-isprint.o)
                              c:\Users\Spencer\Desktop\Keyboard\Firmware\BadgersRunFirmware\Build/core\core.a(debug.cpp.o) (isprint)
c:/users/spencer/appdata/local/arduino15/packages/adafruit/tools/arm-none-eabi-gcc/9-2019q4/bin/../lib/gcc/arm-none-eabi/9.2.1/../../../../arm-none-eabi/lib/thumb/v7e-m+fp/hard\libc_nano.a(lib_a-malloc.o)
                              c:\Users\Spencer\Desktop\Keyboard\Firmware\BadgersRunFirmware\Build/core\core.a(debug.cpp.o) (malloc)
c:/users/spencer/appdata/local/arduino15/packages/adafruit/tools/arm-none-eabi-gcc/9-2019q4/bin/../lib/gcc/arm-none-eabi/9.2.1/../../../../arm-none-eabi/lib/thumb/v7e-m+fp/hard\libc_nano.a(lib_a-memcpy-stub.o)
                              c:\Users\Spencer\Desktop\Keyboard\Firmware\BadgersRunFirmware\Build/core\core.a(debug.cpp.o) (memcpy)
c:/users/spencer/appdata/local/arduino15/packages/adafruit/tools/arm-none-eabi-gcc/9-2019q4/bin/../lib/gcc/arm-none-eabi/9.2.1/../../../../arm-none-eabi/lib/thumb/v7e-m+fp/hard\libc_nano.a(lib_a-memset.o)
                              c:/users/spencer/appdata/local/arduino15/packages/adafruit/tools/arm-none-eabi-gcc/9-2019q4/bin/../lib/gcc/arm-none-eabi/9.2.1/../../../../arm-none-eabi/lib/thumb/v7e-m+fp/hard/crt0.o (memset)
c:/users/spencer/appdata/local/arduino15/packages/adafruit/tools/arm-none-eabi-gcc/9-2019q4/bin/../lib/gcc/arm-none-eabi/9.2.1/../../../../arm-none-eabi/lib/thumb/v7e-m+fp/hard\libc_nano.a(lib_a-mstats.o)
                              c:\Users\Spencer\Desktop\Keyboard\Firmware\BadgersRunFirmware\Build/core\core.a(debug.cpp.o) (mallinfo)
c:/users/spencer/appdata/local/arduino15/packages/adafruit/tools/arm-none-eabi-gcc/9-2019q4/bin/../lib/gcc/arm-none-eabi/9.2.1/../../../../arm-none-eabi/lib/thumb/v7e-m+fp/hard\libc_nano.a(lib_a-nano-freer.o)
                              c:/users/spencer/appdata/local/arduino15/packages/adafruit/tools/arm-none-eabi-gcc/9-2019q4/bin/../lib/gcc/arm-none-eabi/9.2.1/../../../../arm-none-eabi/lib/thumb/v7e-m+fp/hard\libc_nano.a(lib_a-malloc.o) (_free_r)
c:/users/spencer/appdata/local/arduino15/packages/adafruit/tools/arm-none-eabi-gcc/9-2019q4/bin/../lib/gcc/arm-none-eabi/9.2.1/../../../../arm-none-eabi/lib/thumb/v7e-m+fp/hard\libc_nano.a(lib_a-nano-mallinfor.o)
                              c:/users/spencer/appdata/local/arduino15/packages/adafruit/tools/arm-none-eabi-gcc/9-2019q4/bin/../lib/gcc/arm-none-eabi/9.2.1/../../../../arm-none-eabi/lib/thumb/v7e-m+fp/hard\libc_nano.a(lib_a-mstats.o) (_mallinfo_r)
c:/users/spencer/appdata/local/arduino15/packages/adafruit/tools/arm-none-eabi-gcc/9-2019q4/bin/../lib/gcc/arm-none-eabi/9.2.1/../../../../arm-none-eabi/lib/thumb/v7e-m+fp/hard\libc_nano.a(lib_a-nano-mallocr.o)
                              c:/users/spencer/appdata/local/arduino15/packages/adafruit/tools/arm-none-eabi-gcc/9-2019q4/bin/../lib/gcc/arm-none-eabi/9.2.1/../../../../arm-none-eabi/lib/thumb/v7e-m+fp/hard\libc_nano.a(lib_a-malloc.o) (_malloc_r)
c:/users/spencer/appdata/local/arduino15/packages/adafruit/tools/arm-none-eabi-gcc/9-2019q4/bin/../lib/gcc/arm-none-eabi/9.2.1/../../../../arm-none-eabi/lib/thumb/v7e-m+fp/hard\libc_nano.a(lib_a-nano-malloptr.o)
                              c:/users/spencer/appdata/local/arduino15/packages/adafruit/tools/arm-none-eabi-gcc/9-2019q4/bin/../lib/gcc/arm-none-eabi/9.2.1/../../../../arm-none-eabi/lib/thumb/v7e-m+fp/hard\libc_nano.a(lib_a-mstats.o) (_mallopt_r)
c:/users/spencer/appdata/local/arduino15/packages/adafruit/tools/arm-none-eabi-gcc/9-2019q4/bin/../lib/gcc/arm-none-eabi/9.2.1/../../../../arm-none-eabi/lib/thumb/v7e-m+fp/hard\libc_nano.a(lib_a-nano-mallstatsr.o)
                              c:/users/spencer/appdata/local/arduino15/packages/adafruit/tools/arm-none-eabi-gcc/9-2019q4/bin/../lib/gcc/arm-none-eabi/9.2.1/../../../../arm-none-eabi/lib/thumb/v7e-m+fp/hard\libc_nano.a(lib_a-mstats.o) (_malloc_stats_r)
c:/users/spencer/appdata/local/arduino15/packages/adafruit/tools/arm-none-eabi-gcc/9-2019q4/bin/../lib/gcc/arm-none-eabi/9.2.1/../../../../arm-none-eabi/lib/thumb/v7e-m+fp/hard\libc_nano.a(lib_a-nano-vfprintf_float.o)
                              (_printf_float)
c:/users/spencer/appdata/local/arduino15/packages/adafruit/tools/arm-none-eabi-gcc/9-2019q4/bin/../lib/gcc/arm-none-eabi/9.2.1/../../../../arm-none-eabi/lib/thumb/v7e-m+fp/hard\libc_nano.a(lib_a-nano-vfprintf_i.o)
                              c:/users/spencer/appdata/local/arduino15/packages/adafruit/tools/arm-none-eabi-gcc/9-2019q4/bin/../lib/gcc/arm-none-eabi/9.2.1/../../../../arm-none-eabi/lib/thumb/v7e-m+fp/hard\libc_nano.a(lib_a-nano-vfprintf_float.o) (_printf_common)
c:/users/spencer/appdata/local/arduino15/packages/adafruit/tools/arm-none-eabi-gcc/9-2019q4/bin/../lib/gcc/arm-none-eabi/9.2.1/../../../../arm-none-eabi/lib/thumb/v7e-m+fp/hard\libc_nano.a(lib_a-printf.o)
                              c:\Users\Spencer\Desktop\Keyboard\Firmware\BadgersRunFirmware\Build/core\core.a(rtos.cpp.o) (printf)
c:/users/spencer/appdata/local/arduino15/packages/adafruit/tools/arm-none-eabi-gcc/9-2019q4/bin/../lib/gcc/arm-none-eabi/9.2.1/../../../../arm-none-eabi/lib/thumb/v7e-m+fp/hard\libc_nano.a(lib_a-putchar.o)
                              c:\Users\Spencer\Desktop\Keyboard\Firmware\BadgersRunFirmware\Build/core\core.a(rtos.cpp.o) (putchar)
c:/users/spencer/appdata/local/arduino15/packages/adafruit/tools/arm-none-eabi-gcc/9-2019q4/bin/../lib/gcc/arm-none-eabi/9.2.1/../../../../arm-none-eabi/lib/thumb/v7e-m+fp/hard\libc_nano.a(lib_a-puts.o)
                              c:\Users\Spencer\Desktop\Keyboard\Firmware\BadgersRunFirmware\Build/core\core.a(debug.cpp.o) (puts)
c:/users/spencer/appdata/local/arduino15/packages/adafruit/tools/arm-none-eabi-gcc/9-2019q4/bin/../lib/gcc/arm-none-eabi/9.2.1/../../../../arm-none-eabi/lib/thumb/v7e-m+fp/hard\libc_nano.a(lib_a-sbrkr.o)
                              c:/users/spencer/appdata/local/arduino15/packages/adafruit/tools/arm-none-eabi-gcc/9-2019q4/bin/../lib/gcc/arm-none-eabi/9.2.1/../../../../arm-none-eabi/lib/thumb/v7e-m+fp/hard\libc_nano.a(lib_a-nano-mallinfor.o) (_sbrk_r)
c:/users/spencer/appdata/local/arduino15/packages/adafruit/tools/arm-none-eabi-gcc/9-2019q4/bin/../lib/gcc/arm-none-eabi/9.2.1/../../../../arm-none-eabi/lib/thumb/v7e-m+fp/hard\libc_nano.a(lib_a-sprintf.o)
                              c:\Users\Spencer\Desktop\Keyboard\Firmware\BadgersRunFirmware\Build/core\core.a(debug.cpp.o) (sprintf)
c:/users/spencer/appdata/local/arduino15/packages/adafruit/tools/arm-none-eabi-gcc/9-2019q4/bin/../lib/gcc/arm-none-eabi/9.2.1/../../../../arm-none-eabi/lib/thumb/v7e-m+fp/hard\libc_nano.a(lib_a-stpcpy.o)
                              c:\Users\Spencer\Desktop\Keyboard\Firmware\BadgersRunFirmware\Build/core\core.a(tasks.c.o) (stpcpy)
c:/users/spencer/appdata/local/arduino15/packages/adafruit/tools/arm-none-eabi-gcc/9-2019q4/bin/../lib/gcc/arm-none-eabi/9.2.1/../../../../arm-none-eabi/lib/thumb/v7e-m+fp/hard\libc_nano.a(lib_a-strlen.o)
                              c:\Users\Spencer\Desktop\Keyboard\Firmware\BadgersRunFirmware\Build/core\core.a(tasks.c.o) (strlen)
c:/users/spencer/appdata/local/arduino15/packages/adafruit/tools/arm-none-eabi-gcc/9-2019q4/bin/../lib/gcc/arm-none-eabi/9.2.1/../../../../arm-none-eabi/lib/thumb/v7e-m+fp/hard\libc_nano.a(lib_a-wbuf.o)
                              c:/users/spencer/appdata/local/arduino15/packages/adafruit/tools/arm-none-eabi-gcc/9-2019q4/bin/../lib/gcc/arm-none-eabi/9.2.1/../../../../arm-none-eabi/lib/thumb/v7e-m+fp/hard\libc_nano.a(lib_a-puts.o) (__swbuf_r)
c:/users/spencer/appdata/local/arduino15/packages/adafruit/tools/arm-none-eabi-gcc/9-2019q4/bin/../lib/gcc/arm-none-eabi/9.2.1/../../../../arm-none-eabi/lib/thumb/v7e-m+fp/hard\libc_nano.a(lib_a-wsetup.o)
                              c:/users/spencer/appdata/local/arduino15/packages/adafruit/tools/arm-none-eabi-gcc/9-2019q4/bin/../lib/gcc/arm-none-eabi/9.2.1/../../../../arm-none-eabi/lib/thumb/v7e-m+fp/hard\libc_nano.a(lib_a-puts.o) (__swsetup_r)
c:/users/spencer/appdata/local/arduino15/packages/adafruit/tools/arm-none-eabi-gcc/9-2019q4/bin/../lib/gcc/arm-none-eabi/9.2.1/../../../../arm-none-eabi/lib/thumb/v7e-m+fp/hard\libc_nano.a(lib_a-ctype_.o)
                              c:/users/spencer/appdata/local/arduino15/packages/adafruit/tools/arm-none-eabi-gcc/9-2019q4/bin/../lib/gcc/arm-none-eabi/9.2.1/../../../../arm-none-eabi/lib/thumb/v7e-m+fp/hard\libc_nano.a(lib_a-isprint.o) (_ctype_)
c:/users/spencer/appdata/local/arduino15/packages/adafruit/tools/arm-none-eabi-gcc/9-2019q4/bin/../lib/gcc/arm-none-eabi/9.2.1/../../../../arm-none-eabi/lib/thumb/v7e-m+fp/hard\libc_nano.a(lib_a-dtoa.o)
                              c:/users/spencer/appdata/local/arduino15/packages/adafruit/tools/arm-none-eabi-gcc/9-2019q4/bin/../lib/gcc/arm-none-eabi/9.2.1/../../../../arm-none-eabi/lib/thumb/v7e-m+fp/hard\libc_nano.a(lib_a-nano-vfprintf_float.o) (_dtoa_r)
c:/users/spencer/appdata/local/arduino15/packages/adafruit/tools/arm-none-eabi-gcc/9-2019q4/bin/../lib/gcc/arm-none-eabi/9.2.1/../../../../arm-none-eabi/lib/thumb/v7e-m+fp/hard\libc_nano.a(lib_a-fflush.o)
                              c:/users/spencer/appdata/local/arduino15/packages/adafruit/tools/arm-none-eabi-gcc/9-2019q4/bin/../lib/gcc/arm-none-eabi/9.2.1/../../../../arm-none-eabi/lib/thumb/v7e-m+fp/hard\libc_nano.a(lib_a-wbuf.o) (_fflush_r)
c:/users/spencer/appdata/local/arduino15/packages/adafruit/tools/arm-none-eabi-gcc/9-2019q4/bin/../lib/gcc/arm-none-eabi/9.2.1/../../../../arm-none-eabi/lib/thumb/v7e-m+fp/hard\libc_nano.a(lib_a-findfp.o)
                              c:/users/spencer/appdata/local/arduino15/packages/adafruit/tools/arm-none-eabi-gcc/9-2019q4/bin/../lib/gcc/arm-none-eabi/9.2.1/../../../../arm-none-eabi/lib/thumb/v7e-m+fp/hard\libc_nano.a(lib_a-mstats.o) (__sinit)
c:/users/spencer/appdata/local/arduino15/packages/adafruit/tools/arm-none-eabi-gcc/9-2019q4/bin/../lib/gcc/arm-none-eabi/9.2.1/../../../../arm-none-eabi/lib/thumb/v7e-m+fp/hard\libc_nano.a(lib_a-fprintf.o)
                              c:/users/spencer/appdata/local/arduino15/packages/adafruit/tools/arm-none-eabi-gcc/9-2019q4/bin/../lib/gcc/arm-none-eabi/9.2.1/../../../../arm-none-eabi/lib/thumb/v7e-m+fp/hard\libc_nano.a(lib_a-mstats.o) (fiprintf)
c:/users/spencer/appdata/local/arduino15/packages/adafruit/tools/arm-none-eabi-gcc/9-2019q4/bin/../lib/gcc/arm-none-eabi/9.2.1/../../../../arm-none-eabi/lib/thumb/v7e-m+fp/hard\libc_nano.a(lib_a-fwalk.o)
                              c:/users/spencer/appdata/local/arduino15/packages/adafruit/tools/arm-none-eabi-gcc/9-2019q4/bin/../lib/gcc/arm-none-eabi/9.2.1/../../../../arm-none-eabi/lib/thumb/v7e-m+fp/hard\libc_nano.a(lib_a-findfp.o) (_fwalk)
c:/users/spencer/appdata/local/arduino15/packages/adafruit/tools/arm-none-eabi-gcc/9-2019q4/bin/../lib/gcc/arm-none-eabi/9.2.1/../../../../arm-none-eabi/lib/thumb/v7e-m+fp/hard\libc_nano.a(lib_a-localeconv.o)
                              c:/users/spencer/appdata/local/arduino15/packages/adafruit/tools/arm-none-eabi-gcc/9-2019q4/bin/../lib/gcc/arm-none-eabi/9.2.1/../../../../arm-none-eabi/lib/thumb/v7e-m+fp/hard\libc_nano.a(lib_a-nano-vfprintf_float.o) (_localeconv_r)
c:/users/spencer/appdata/local/arduino15/packages/adafruit/tools/arm-none-eabi-gcc/9-2019q4/bin/../lib/gcc/arm-none-eabi/9.2.1/../../../../arm-none-eabi/lib/thumb/v7e-m+fp/hard\libc_nano.a(lib_a-lock.o)
                              c:/users/spencer/appdata/local/arduino15/packages/adafruit/tools/arm-none-eabi-gcc/9-2019q4/bin/../lib/gcc/arm-none-eabi/9.2.1/../../../../arm-none-eabi/lib/thumb/v7e-m+fp/hard\libc_nano.a(lib_a-findfp.o) (__retarget_lock_init_recursive)
c:/users/spencer/appdata/local/arduino15/packages/adafruit/tools/arm-none-eabi-gcc/9-2019q4/bin/../lib/gcc/arm-none-eabi/9.2.1/../../../../arm-none-eabi/lib/thumb/v7e-m+fp/hard\libc_nano.a(lib_a-makebuf.o)
                              c:/users/spencer/appdata/local/arduino15/packages/adafruit/tools/arm-none-eabi-gcc/9-2019q4/bin/../lib/gcc/arm-none-eabi/9.2.1/../../../../arm-none-eabi/lib/thumb/v7e-m+fp/hard\libc_nano.a(lib_a-wsetup.o) (__smakebuf_r)
c:/users/spencer/appdata/local/arduino15/packages/adafruit/tools/arm-none-eabi-gcc/9-2019q4/bin/../lib/gcc/arm-none-eabi/9.2.1/../../../../arm-none-eabi/lib/thumb/v7e-m+fp/hard\libc_nano.a(lib_a-memchr.o)
                              c:/users/spencer/appdata/local/arduino15/packages/adafruit/tools/arm-none-eabi-gcc/9-2019q4/bin/../lib/gcc/arm-none-eabi/9.2.1/../../../../arm-none-eabi/lib/thumb/v7e-m+fp/hard\libc_nano.a(lib_a-nano-vfprintf_i.o) (memchr)
c:/users/spencer/appdata/local/arduino15/packages/adafruit/tools/arm-none-eabi-gcc/9-2019q4/bin/../lib/gcc/arm-none-eabi/9.2.1/../../../../arm-none-eabi/lib/thumb/v7e-m+fp/hard\libc_nano.a(lib_a-mlock.o)
                              c:/users/spencer/appdata/local/arduino15/packages/adafruit/tools/arm-none-eabi-gcc/9-2019q4/bin/../lib/gcc/arm-none-eabi/9.2.1/../../../../arm-none-eabi/lib/thumb/v7e-m+fp/hard\libc_nano.a(lib_a-nano-freer.o) (__malloc_lock)
c:/users/spencer/appdata/local/arduino15/packages/adafruit/tools/arm-none-eabi-gcc/9-2019q4/bin/../lib/gcc/arm-none-eabi/9.2.1/../../../../arm-none-eabi/lib/thumb/v7e-m+fp/hard\libc_nano.a(lib_a-mprec.o)
                              c:/users/spencer/appdata/local/arduino15/packages/adafruit/tools/arm-none-eabi-gcc/9-2019q4/bin/../lib/gcc/arm-none-eabi/9.2.1/../../../../arm-none-eabi/lib/thumb/v7e-m+fp/hard\libc_nano.a(lib_a-dtoa.o) (_Balloc)
c:/users/spencer/appdata/local/arduino15/packages/adafruit/tools/arm-none-eabi-gcc/9-2019q4/bin/../lib/gcc/arm-none-eabi/9.2.1/../../../../arm-none-eabi/lib/thumb/v7e-m+fp/hard\libc_nano.a(lib_a-nano-callocr.o)
                              c:/users/spencer/appdata/local/arduino15/packages/adafruit/tools/arm-none-eabi-gcc/9-2019q4/bin/../lib/gcc/arm-none-eabi/9.2.1/../../../../arm-none-eabi/lib/thumb/v7e-m+fp/hard\libc_nano.a(lib_a-mprec.o) (_calloc_r)
c:/users/spencer/appdata/local/arduino15/packages/adafruit/tools/arm-none-eabi-gcc/9-2019q4/bin/../lib/gcc/arm-none-eabi/9.2.1/../../../../arm-none-eabi/lib/thumb/v7e-m+fp/hard\libc_nano.a(lib_a-nano-svfprintf.o)
                              c:/users/spencer/appdata/local/arduino15/packages/adafruit/tools/arm-none-eabi-gcc/9-2019q4/bin/../lib/gcc/arm-none-eabi/9.2.1/../../../../arm-none-eabi/lib/thumb/v7e-m+fp/hard\libc_nano.a(lib_a-sprintf.o) (_svfprintf_r)
c:/users/spencer/appdata/local/arduino15/packages/adafruit/tools/arm-none-eabi-gcc/9-2019q4/bin/../lib/gcc/arm-none-eabi/9.2.1/../../../../arm-none-eabi/lib/thumb/v7e-m+fp/hard\libc_nano.a(lib_a-nano-vfprintf.o)
                              c:/users/spencer/appdata/local/arduino15/packages/adafruit/tools/arm-none-eabi-gcc/9-2019q4/bin/../lib/gcc/arm-none-eabi/9.2.1/../../../../arm-none-eabi/lib/thumb/v7e-m+fp/hard\libc_nano.a(lib_a-printf.o) (_vfprintf_r)
c:/users/spencer/appdata/local/arduino15/packages/adafruit/tools/arm-none-eabi-gcc/9-2019q4/bin/../lib/gcc/arm-none-eabi/9.2.1/../../../../arm-none-eabi/lib/thumb/v7e-m+fp/hard\libc_nano.a(lib_a-putc.o)
                              c:/users/spencer/appdata/local/arduino15/packages/adafruit/tools/arm-none-eabi-gcc/9-2019q4/bin/../lib/gcc/arm-none-eabi/9.2.1/../../../../arm-none-eabi/lib/thumb/v7e-m+fp/hard\libc_nano.a(lib_a-putchar.o) (_putc_r)
c:/users/spencer/appdata/local/arduino15/packages/adafruit/tools/arm-none-eabi-gcc/9-2019q4/bin/../lib/gcc/arm-none-eabi/9.2.1/../../../../arm-none-eabi/lib/thumb/v7e-m+fp/hard\libc_nano.a(lib_a-reent.o)
                              c:/users/spencer/appdata/local/arduino15/packages/adafruit/tools/arm-none-eabi-gcc/9-2019q4/bin/../lib/gcc/arm-none-eabi/9.2.1/../../../../arm-none-eabi/lib/thumb/v7e-m+fp/hard\libc_nano.a(lib_a-sbrkr.o) (errno)
c:/users/spencer/appdata/local/arduino15/packages/adafruit/tools/arm-none-eabi-gcc/9-2019q4/bin/../lib/gcc/arm-none-eabi/9.2.1/../../../../arm-none-eabi/lib/thumb/v7e-m+fp/hard\libc_nano.a(lib_a-stdio.o)
                              c:/users/spencer/appdata/local/arduino15/packages/adafruit/tools/arm-none-eabi-gcc/9-2019q4/bin/../lib/gcc/arm-none-eabi/9.2.1/../../../../arm-none-eabi/lib/thumb/v7e-m+fp/hard\libc_nano.a(lib_a-findfp.o) (__sread)
c:/users/spencer/appdata/local/arduino15/packages/adafruit/tools/arm-none-eabi-gcc/9-2019q4/bin/../lib/gcc/arm-none-eabi/9.2.1/../../../../arm-none-eabi/lib/thumb/v7e-m+fp/hard\libc_nano.a(lib_a-writer.o)
                              c:/users/spencer/appdata/local/arduino15/packages/adafruit/tools/arm-none-eabi-gcc/9-2019q4/bin/../lib/gcc/arm-none-eabi/9.2.1/../../../../arm-none-eabi/lib/thumb/v7e-m+fp/hard\libc_nano.a(lib_a-stdio.o) (_write_r)
c:/users/spencer/appdata/local/arduino15/packages/adafruit/tools/arm-none-eabi-gcc/9-2019q4/bin/../lib/gcc/arm-none-eabi/9.2.1/../../../../arm-none-eabi/lib/thumb/v7e-m+fp/hard\libc_nano.a(lib_a-closer.o)
                              c:/users/spencer/appdata/local/arduino15/packages/adafruit/tools/arm-none-eabi-gcc/9-2019q4/bin/../lib/gcc/arm-none-eabi/9.2.1/../../../../arm-none-eabi/lib/thumb/v7e-m+fp/hard\libc_nano.a(lib_a-stdio.o) (_close_r)
c:/users/spencer/appdata/local/arduino15/packages/adafruit/tools/arm-none-eabi-gcc/9-2019q4/bin/../lib/gcc/arm-none-eabi/9.2.1/../../../../arm-none-eabi/lib/thumb/v7e-m+fp/hard\libc_nano.a(lib_a-fstatr.o)
                              c:/users/spencer/appdata/local/arduino15/packages/adafruit/tools/arm-none-eabi-gcc/9-2019q4/bin/../lib/gcc/arm-none-eabi/9.2.1/../../../../arm-none-eabi/lib/thumb/v7e-m+fp/hard\libc_nano.a(lib_a-makebuf.o) (_fstat_r)
c:/users/spencer/appdata/local/arduino15/packages/adafruit/tools/arm-none-eabi-gcc/9-2019q4/bin/../lib/gcc/arm-none-eabi/9.2.1/../../../../arm-none-eabi/lib/thumb/v7e-m+fp/hard\libc_nano.a(lib_a-fvwrite.o)
                              c:/users/spencer/appdata/local/arduino15/packages/adafruit/tools/arm-none-eabi-gcc/9-2019q4/bin/../lib/gcc/arm-none-eabi/9.2.1/../../../../arm-none-eabi/lib/thumb/v7e-m+fp/hard\libc_nano.a(lib_a-nano-vfprintf.o) (__sfvwrite_r)
c:/users/spencer/appdata/local/arduino15/packages/adafruit/tools/arm-none-eabi-gcc/9-2019q4/bin/../lib/gcc/arm-none-eabi/9.2.1/../../../../arm-none-eabi/lib/thumb/v7e-m+fp/hard\libc_nano.a(lib_a-isattyr.o)
                              c:/users/spencer/appdata/local/arduino15/packages/adafruit/tools/arm-none-eabi-gcc/9-2019q4/bin/../lib/gcc/arm-none-eabi/9.2.1/../../../../arm-none-eabi/lib/thumb/v7e-m+fp/hard\libc_nano.a(lib_a-makebuf.o) (_isatty_r)
c:/users/spencer/appdata/local/arduino15/packages/adafruit/tools/arm-none-eabi-gcc/9-2019q4/bin/../lib/gcc/arm-none-eabi/9.2.1/../../../../arm-none-eabi/lib/thumb/v7e-m+fp/hard\libc_nano.a(lib_a-locale.o)
                              c:/users/spencer/appdata/local/arduino15/packages/adafruit/tools/arm-none-eabi-gcc/9-2019q4/bin/../lib/gcc/arm-none-eabi/9.2.1/../../../../arm-none-eabi/lib/thumb/v7e-m+fp/hard\libc_nano.a(lib_a-localeconv.o) (__global_locale)
c:/users/spencer/appdata/local/arduino15/packages/adafruit/tools/arm-none-eabi-gcc/9-2019q4/bin/../lib/gcc/arm-none-eabi/9.2.1/../../../../arm-none-eabi/lib/thumb/v7e-m+fp/hard\libc_nano.a(lib_a-lseekr.o)
                              c:/users/spencer/appdata/local/arduino15/packages/adafruit/tools/arm-none-eabi-gcc/9-2019q4/bin/../lib/gcc/arm-none-eabi/9.2.1/../../../../arm-none-eabi/lib/thumb/v7e-m+fp/hard\libc_nano.a(lib_a-stdio.o) (_lseek_r)
c:/users/spencer/appdata/local/arduino15/packages/adafruit/tools/arm-none-eabi-gcc/9-2019q4/bin/../lib/gcc/arm-none-eabi/9.2.1/../../../../arm-none-eabi/lib/thumb/v7e-m+fp/hard\libc_nano.a(lib_a-mbtowc_r.o)
                              c:/users/spencer/appdata/local/arduino15/packages/adafruit/tools/arm-none-eabi-gcc/9-2019q4/bin/../lib/gcc/arm-none-eabi/9.2.1/../../../../arm-none-eabi/lib/thumb/v7e-m+fp/hard\libc_nano.a(lib_a-locale.o) (__ascii_mbtowc)
c:/users/spencer/appdata/local/arduino15/packages/adafruit/tools/arm-none-eabi-gcc/9-2019q4/bin/../lib/gcc/arm-none-eabi/9.2.1/../../../../arm-none-eabi/lib/thumb/v7e-m+fp/hard\libc_nano.a(lib_a-memmove.o)
                              c:/users/spencer/appdata/local/arduino15/packages/adafruit/tools/arm-none-eabi-gcc/9-2019q4/bin/../lib/gcc/arm-none-eabi/9.2.1/../../../../arm-none-eabi/lib/thumb/v7e-m+fp/hard\libc_nano.a(lib_a-nano-svfprintf.o) (memmove)
c:/users/spencer/appdata/local/arduino15/packages/adafruit/tools/arm-none-eabi-gcc/9-2019q4/bin/../lib/gcc/arm-none-eabi/9.2.1/../../../../arm-none-eabi/lib/thumb/v7e-m+fp/hard\libc_nano.a(lib_a-nano-reallocr.o)
                              c:/users/spencer/appdata/local/arduino15/packages/adafruit/tools/arm-none-eabi-gcc/9-2019q4/bin/../lib/gcc/arm-none-eabi/9.2.1/../../../../arm-none-eabi/lib/thumb/v7e-m+fp/hard\libc_nano.a(lib_a-nano-svfprintf.o) (_realloc_r)
c:/users/spencer/appdata/local/arduino15/packages/adafruit/tools/arm-none-eabi-gcc/9-2019q4/bin/../lib/gcc/arm-none-eabi/9.2.1/../../../../arm-none-eabi/lib/thumb/v7e-m+fp/hard\libc_nano.a(lib_a-readr.o)
                              c:/users/spencer/appdata/local/arduino15/packages/adafruit/tools/arm-none-eabi-gcc/9-2019q4/bin/../lib/gcc/arm-none-eabi/9.2.1/../../../../arm-none-eabi/lib/thumb/v7e-m+fp/hard\libc_nano.a(lib_a-stdio.o) (_read_r)
c:/users/spencer/appdata/local/arduino15/packages/adafruit/tools/arm-none-eabi-gcc/9-2019q4/bin/../lib/gcc/arm-none-eabi/9.2.1/../../../../arm-none-eabi/lib/thumb/v7e-m+fp/hard\libc_nano.a(lib_a-strcmp.o)
                              c:/users/spencer/appdata/local/arduino15/packages/adafruit/tools/arm-none-eabi-gcc/9-2019q4/bin/../lib/gcc/arm-none-eabi/9.2.1/../../../../arm-none-eabi/lib/thumb/v7e-m+fp/hard\libc_nano.a(lib_a-locale.o) (strcmp)
c:/users/spencer/appdata/local/arduino15/packages/adafruit/tools/arm-none-eabi-gcc/9-2019q4/bin/../lib/gcc/arm-none-eabi/9.2.1/../../../../arm-none-eabi/lib/thumb/v7e-m+fp/hard\libc_nano.a(lib_a-wctomb_r.o)
                              c:/users/spencer/appdata/local/arduino15/packages/adafruit/tools/arm-none-eabi-gcc/9-2019q4/bin/../lib/gcc/arm-none-eabi/9.2.1/../../../../arm-none-eabi/lib/thumb/v7e-m+fp/hard\libc_nano.a(lib_a-locale.o) (__ascii_wctomb)
c:/users/spencer/appdata/local/arduino15/packages/adafruit/tools/arm-none-eabi-gcc/9-2019q4/bin/../lib/gcc/arm-none-eabi/9.2.1/../../../../arm-none-eabi/lib/thumb/v7e-m+fp/hard\libc_nano.a(lib_a-nano-msizer.o)
                              c:/users/spencer/appdata/local/arduino15/packages/adafruit/tools/arm-none-eabi-gcc/9-2019q4/bin/../lib/gcc/arm-none-eabi/9.2.1/../../../../arm-none-eabi/lib/thumb/v7e-m+fp/hard\libc_nano.a(lib_a-nano-reallocr.o) (_malloc_usable_size_r)
c:/users/spencer/appdata/local/arduino15/packages/adafruit/tools/arm-none-eabi-gcc/9-2019q4/bin/../lib/gcc/arm-none-eabi/9.2.1/thumb/v7e-m+fp/hard\libgcc.a(_arm_muldf3.o)
                              c:/users/spencer/appdata/local/arduino15/packages/adafruit/tools/arm-none-eabi-gcc/9-2019q4/bin/../lib/gcc/arm-none-eabi/9.2.1/../../../../arm-none-eabi/lib/thumb/v7e-m+fp/hard\libc_nano.a(lib_a-dtoa.o) (__aeabi_dmul)
c:/users/spencer/appdata/local/arduino15/packages/adafruit/tools/arm-none-eabi-gcc/9-2019q4/bin/../lib/gcc/arm-none-eabi/9.2.1/thumb/v7e-m+fp/hard\libgcc.a(_arm_addsubdf3.o)
                              c:/users/spencer/appdata/local/arduino15/packages/adafruit/tools/arm-none-eabi-gcc/9-2019q4/bin/../lib/gcc/arm-none-eabi/9.2.1/../../../../arm-none-eabi/lib/thumb/v7e-m+fp/hard\libc_nano.a(lib_a-dtoa.o) (__aeabi_dsub)
c:/users/spencer/appdata/local/arduino15/packages/adafruit/tools/arm-none-eabi-gcc/9-2019q4/bin/../lib/gcc/arm-none-eabi/9.2.1/thumb/v7e-m+fp/hard\libgcc.a(_arm_muldivdf3.o)
                              c:/users/spencer/appdata/local/arduino15/packages/adafruit/tools/arm-none-eabi-gcc/9-2019q4/bin/../lib/gcc/arm-none-eabi/9.2.1/../../../../arm-none-eabi/lib/thumb/v7e-m+fp/hard\libc_nano.a(lib_a-dtoa.o) (__aeabi_ddiv)
c:/users/spencer/appdata/local/arduino15/packages/adafruit/tools/arm-none-eabi-gcc/9-2019q4/bin/../lib/gcc/arm-none-eabi/9.2.1/thumb/v7e-m+fp/hard\libgcc.a(_arm_cmpdf2.o)
                              c:/users/spencer/appdata/local/arduino15/packages/adafruit/tools/arm-none-eabi-gcc/9-2019q4/bin/../lib/gcc/arm-none-eabi/9.2.1/../../../../arm-none-eabi/lib/thumb/v7e-m+fp/hard\libc_nano.a(lib_a-nano-vfprintf_float.o) (__aeabi_dcmpeq)
c:/users/spencer/appdata/local/arduino15/packages/adafruit/tools/arm-none-eabi-gcc/9-2019q4/bin/../lib/gcc/arm-none-eabi/9.2.1/thumb/v7e-m+fp/hard\libgcc.a(_arm_unorddf2.o)
                              c:/users/spencer/appdata/local/arduino15/packages/adafruit/tools/arm-none-eabi-gcc/9-2019q4/bin/../lib/gcc/arm-none-eabi/9.2.1/../../../../arm-none-eabi/lib/thumb/v7e-m+fp/hard\libc_nano.a(lib_a-nano-vfprintf_float.o) (__aeabi_dcmpun)
c:/users/spencer/appdata/local/arduino15/packages/adafruit/tools/arm-none-eabi-gcc/9-2019q4/bin/../lib/gcc/arm-none-eabi/9.2.1/thumb/v7e-m+fp/hard\libgcc.a(_arm_fixdfsi.o)
                              c:/users/spencer/appdata/local/arduino15/packages/adafruit/tools/arm-none-eabi-gcc/9-2019q4/bin/../lib/gcc/arm-none-eabi/9.2.1/../../../../arm-none-eabi/lib/thumb/v7e-m+fp/hard\libc_nano.a(lib_a-dtoa.o) (__aeabi_d2iz)
c:/users/spencer/appdata/local/arduino15/packages/adafruit/tools/arm-none-eabi-gcc/9-2019q4/bin/../lib/gcc/arm-none-eabi/9.2.1/../../../../arm-none-eabi/lib/thumb/v7e-m+fp/hard\libnosys.a(close.o)
                              c:/users/spencer/appdata/local/arduino15/packages/adafruit/tools/arm-none-eabi-gcc/9-2019q4/bin/../lib/gcc/arm-none-eabi/9.2.1/../../../../arm-none-eabi/lib/thumb/v7e-m+fp/hard\libc_nano.a(lib_a-closer.o) (_close)
c:/users/spencer/appdata/local/arduino15/packages/adafruit/tools/arm-none-eabi-gcc/9-2019q4/bin/../lib/gcc/arm-none-eabi/9.2.1/../../../../arm-none-eabi/lib/thumb/v7e-m+fp/hard\libnosys.a(fstat.o)
                              c:/users/spencer/appdata/local/arduino15/packages/adafruit/tools/arm-none-eabi-gcc/9-2019q4/bin/../lib/gcc/arm-none-eabi/9.2.1/../../../../arm-none-eabi/lib/thumb/v7e-m+fp/hard\libc_nano.a(lib_a-fstatr.o) (_fstat)
c:/users/spencer/appdata/local/arduino15/packages/adafruit/tools/arm-none-eabi-gcc/9-2019q4/bin/../lib/gcc/arm-none-eabi/9.2.1/../../../../arm-none-eabi/lib/thumb/v7e-m+fp/hard\libnosys.a(isatty.o)
                              c:/users/spencer/appdata/local/arduino15/packages/adafruit/tools/arm-none-eabi-gcc/9-2019q4/bin/../lib/gcc/arm-none-eabi/9.2.1/../../../../arm-none-eabi/lib/thumb/v7e-m+fp/hard\libc_nano.a(lib_a-isattyr.o) (_isatty)
c:/users/spencer/appdata/local/arduino15/packages/adafruit/tools/arm-none-eabi-gcc/9-2019q4/bin/../lib/gcc/arm-none-eabi/9.2.1/../../../../arm-none-eabi/lib/thumb/v7e-m+fp/hard\libnosys.a(lseek.o)
                              c:/users/spencer/appdata/local/arduino15/packages/adafruit/tools/arm-none-eabi-gcc/9-2019q4/bin/../lib/gcc/arm-none-eabi/9.2.1/../../../../arm-none-eabi/lib/thumb/v7e-m+fp/hard\libc_nano.a(lib_a-lseekr.o) (_lseek)
c:/users/spencer/appdata/local/arduino15/packages/adafruit/tools/arm-none-eabi-gcc/9-2019q4/bin/../lib/gcc/arm-none-eabi/9.2.1/../../../../arm-none-eabi/lib/thumb/v7e-m+fp/hard\libnosys.a(read.o)
                              c:/users/spencer/appdata/local/arduino15/packages/adafruit/tools/arm-none-eabi-gcc/9-2019q4/bin/../lib/gcc/arm-none-eabi/9.2.1/../../../../arm-none-eabi/lib/thumb/v7e-m+fp/hard\libc_nano.a(lib_a-readr.o) (_read)
c:/users/spencer/appdata/local/arduino15/packages/adafruit/tools/arm-none-eabi-gcc/9-2019q4/bin/../lib/gcc/arm-none-eabi/9.2.1/../../../../arm-none-eabi/lib/thumb/v7e-m+fp/hard\libnosys.a(sbrk.o)
                              c:/users/spencer/appdata/local/arduino15/packages/adafruit/tools/arm-none-eabi-gcc/9-2019q4/bin/../lib/gcc/arm-none-eabi/9.2.1/../../../../arm-none-eabi/lib/thumb/v7e-m+fp/hard\libc_nano.a(lib_a-sbrkr.o) (_sbrk)
c:/users/spencer/appdata/local/arduino15/packages/adafruit/tools/arm-none-eabi-gcc/9-2019q4/bin/../lib/gcc/arm-none-eabi/9.2.1/../../../../arm-none-eabi/lib/thumb/v7e-m+fp/hard\libnosys.a(_exit.o)
                              c:/users/spencer/appdata/local/arduino15/packages/adafruit/tools/arm-none-eabi-gcc/9-2019q4/bin/../lib/gcc/arm-none-eabi/9.2.1/../../../../arm-none-eabi/lib/thumb/v7e-m+fp/hard\libc_nano.a(lib_a-exit.o) (_exit)

Allocating common symbols
Common symbol       size              file

nrf_nvic_state      0xc               c:\Users\Spencer\Desktop\Keyboard\Firmware\BadgersRunFirmware\Build/core\core.a(wiring.c.o)
__lock___atexit_recursive_mutex
                    0x1               c:/users/spencer/appdata/local/arduino15/packages/adafruit/tools/arm-none-eabi-gcc/9-2019q4/bin/../lib/gcc/arm-none-eabi/9.2.1/../../../../arm-none-eabi/lib/thumb/v7e-m+fp/hard\libc_nano.a(lib_a-lock.o)
__lock___arc4random_mutex
                    0x1               c:/users/spencer/appdata/local/arduino15/packages/adafruit/tools/arm-none-eabi-gcc/9-2019q4/bin/../lib/gcc/arm-none-eabi/9.2.1/../../../../arm-none-eabi/lib/thumb/v7e-m+fp/hard\libc_nano.a(lib_a-lock.o)
errno               0x4               c:/users/spencer/appdata/local/arduino15/packages/adafruit/tools/arm-none-eabi-gcc/9-2019q4/bin/../lib/gcc/arm-none-eabi/9.2.1/../../../../arm-none-eabi/lib/thumb/v7e-m+fp/hard\libc_nano.a(lib_a-reent.o)
xQueueRegistry      0x10              c:\Users\Spencer\Desktop\Keyboard\Firmware\BadgersRunFirmware\Build/core\core.a(queue.c.o)
__lock___env_recursive_mutex
                    0x1               c:/users/spencer/appdata/local/arduino15/packages/adafruit/tools/arm-none-eabi-gcc/9-2019q4/bin/../lib/gcc/arm-none-eabi/9.2.1/../../../../arm-none-eabi/lib/thumb/v7e-m+fp/hard\libc_nano.a(lib_a-lock.o)
__lock___sinit_recursive_mutex
                    0x1               c:/users/spencer/appdata/local/arduino15/packages/adafruit/tools/arm-none-eabi-gcc/9-2019q4/bin/../lib/gcc/arm-none-eabi/9.2.1/../../../../arm-none-eabi/lib/thumb/v7e-m+fp/hard\libc_nano.a(lib_a-lock.o)
__lock___malloc_recursive_mutex
                    0x1               c:/users/spencer/appdata/local/arduino15/packages/adafruit/tools/arm-none-eabi-gcc/9-2019q4/bin/../lib/gcc/arm-none-eabi/9.2.1/../../../../arm-none-eabi/lib/thumb/v7e-m+fp/hard\libc_nano.a(lib_a-lock.o)
__lock___at_quick_exit_mutex
                    0x1               c:/users/spencer/appdata/local/arduino15/packages/adafruit/tools/arm-none-eabi-gcc/9-2019q4/bin/../lib/gcc/arm-none-eabi/9.2.1/../../../../arm-none-eabi/lib/thumb/v7e-m+fp/hard\libc_nano.a(lib_a-lock.o)
__lock___dd_hash_mutex
                    0x1               c:/users/spencer/appdata/local/arduino15/packages/adafruit/tools/arm-none-eabi-gcc/9-2019q4/bin/../lib/gcc/arm-none-eabi/9.2.1/../../../../arm-none-eabi/lib/thumb/v7e-m+fp/hard\libc_nano.a(lib_a-lock.o)
__lock___tz_mutex   0x1               c:/users/spencer/appdata/local/arduino15/packages/adafruit/tools/arm-none-eabi-gcc/9-2019q4/bin/../lib/gcc/arm-none-eabi/9.2.1/../../../../arm-none-eabi/lib/thumb/v7e-m+fp/hard\libc_nano.a(lib_a-lock.o)
__lock___sfp_recursive_mutex
                    0x1               c:/users/spencer/appdata/local/arduino15/packages/adafruit/tools/arm-none-eabi-gcc/9-2019q4/bin/../lib/gcc/arm-none-eabi/9.2.1/../../../../arm-none-eabi/lib/thumb/v7e-m+fp/hard\libc_nano.a(lib_a-lock.o)

Discarded input sections

 .text          0x00000000        0x0 c:/users/spencer/appdata/local/arduino15/packages/adafruit/tools/arm-none-eabi-gcc/9-2019q4/bin/../lib/gcc/arm-none-eabi/9.2.1/thumb/v7e-m+fp/hard/crtfastmath.o
 .data          0x00000000        0x0 c:/users/spencer/appdata/local/arduino15/packages/adafruit/tools/arm-none-eabi-gcc/9-2019q4/bin/../lib/gcc/arm-none-eabi/9.2.1/thumb/v7e-m+fp/hard/crtfastmath.o
 .bss           0x00000000        0x0 c:/users/spencer/appdata/local/arduino15/packages/adafruit/tools/arm-none-eabi-gcc/9-2019q4/bin/../lib/gcc/arm-none-eabi/9.2.1/thumb/v7e-m+fp/hard/crtfastmath.o
 .text          0x00000000        0x0 c:/users/spencer/appdata/local/arduino15/packages/adafruit/tools/arm-none-eabi-gcc/9-2019q4/bin/../lib/gcc/arm-none-eabi/9.2.1/thumb/v7e-m+fp/hard/crti.o
 .data          0x00000000        0x0 c:/users/spencer/appdata/local/arduino15/packages/adafruit/tools/arm-none-eabi-gcc/9-2019q4/bin/../lib/gcc/arm-none-eabi/9.2.1/thumb/v7e-m+fp/hard/crti.o
 .bss           0x00000000        0x0 c:/users/spencer/appdata/local/arduino15/packages/adafruit/tools/arm-none-eabi-gcc/9-2019q4/bin/../lib/gcc/arm-none-eabi/9.2.1/thumb/v7e-m+fp/hard/crti.o
 .data          0x00000000        0x4 c:/users/spencer/appdata/local/arduino15/packages/adafruit/tools/arm-none-eabi-gcc/9-2019q4/bin/../lib/gcc/arm-none-eabi/9.2.1/thumb/v7e-m+fp/hard/crtbegin.o
 .data          0x00000000        0x0 c:/users/spencer/appdata/local/arduino15/packages/adafruit/tools/arm-none-eabi-gcc/9-2019q4/bin/../lib/gcc/arm-none-eabi/9.2.1/../../../../arm-none-eabi/lib/thumb/v7e-m+fp/hard/crt0.o
 .bss           0x00000000        0x0 c:/users/spencer/appdata/local/arduino15/packages/adafruit/tools/arm-none-eabi-gcc/9-2019q4/bin/../lib/gcc/arm-none-eabi/9.2.1/../../../../arm-none-eabi/lib/thumb/v7e-m+fp/hard/crt0.o
 .ARM.extab     0x00000000        0x0 c:/users/spencer/appdata/local/arduino15/packages/adafruit/tools/arm-none-eabi-gcc/9-2019q4/bin/../lib/gcc/arm-none-eabi/9.2.1/../../../../arm-none-eabi/lib/thumb/v7e-m+fp/hard/crt0.o
 .text          0x00000000        0x0 c:\Users\Spencer\Desktop\Keyboard\Firmware\BadgersRunFirmware\Build\sketch\keyboard.ino.cpp.o
 .data          0x00000000        0x0 c:\Users\Spencer\Desktop\Keyboard\Firmware\BadgersRunFirmware\Build\sketch\keyboard.ino.cpp.o
 .bss           0x00000000        0x0 c:\Users\Spencer\Desktop\Keyboard\Firmware\BadgersRunFirmware\Build\sketch\keyboard.ino.cpp.o
 .text          0x00000000        0x0 c:\Users\Spencer\Desktop\Keyboard\Firmware\BadgersRunFirmware\Build\core\variant.cpp.o
 .data          0x00000000        0x0 c:\Users\Spencer\Desktop\Keyboard\Firmware\BadgersRunFirmware\Build\core\variant.cpp.o
 .bss           0x00000000        0x0 c:\Users\Spencer\Desktop\Keyboard\Firmware\BadgersRunFirmware\Build\core\variant.cpp.o
 .data          0x00000000        0x0 c:\Users\Spencer\Desktop\Keyboard\Firmware\BadgersRunFirmware\Build/core\core.a(gcc_startup_nrf52.S.o)
 .bss           0x00000000        0x0 c:\Users\Spencer\Desktop\Keyboard\Firmware\BadgersRunFirmware\Build/core\core.a(gcc_startup_nrf52.S.o)
 .text          0x00000000        0x0 c:\Users\Spencer\Desktop\Keyboard\Firmware\BadgersRunFirmware\Build/core\core.a(system_nrf52.c.o)
 .data          0x00000000        0x0 c:\Users\Spencer\Desktop\Keyboard\Firmware\BadgersRunFirmware\Build/core\core.a(system_nrf52.c.o)
 .bss           0x00000000        0x0 c:\Users\Spencer\Desktop\Keyboard\Firmware\BadgersRunFirmware\Build/core\core.a(system_nrf52.c.o)
 .text.SystemCoreClockUpdate
                0x00000000       0x10 c:\Users\Spencer\Desktop\Keyboard\Firmware\BadgersRunFirmware\Build/core\core.a(system_nrf52.c.o)
 .text          0x00000000        0x0 c:\Users\Spencer\Desktop\Keyboard\Firmware\BadgersRunFirmware\Build/core\core.a(wiring_digital.c.o)
 .data          0x00000000        0x0 c:\Users\Spencer\Desktop\Keyboard\Firmware\BadgersRunFirmware\Build/core\core.a(wiring_digital.c.o)
 .bss           0x00000000        0x0 c:\Users\Spencer\Desktop\Keyboard\Firmware\BadgersRunFirmware\Build/core\core.a(wiring_digital.c.o)
 .text.digitalWrite
                0x00000000       0x2c c:\Users\Spencer\Desktop\Keyboard\Firmware\BadgersRunFirmware\Build/core\core.a(wiring_digital.c.o)
 .text.digitalRead
                0x00000000       0x34 c:\Users\Spencer\Desktop\Keyboard\Firmware\BadgersRunFirmware\Build/core\core.a(wiring_digital.c.o)
 .text.digitalToggle
                0x00000000       0x40 c:\Users\Spencer\Desktop\Keyboard\Firmware\BadgersRunFirmware\Build/core\core.a(wiring_digital.c.o)
 .text.ledOn    0x00000000       0x1c c:\Users\Spencer\Desktop\Keyboard\Firmware\BadgersRunFirmware\Build/core\core.a(wiring_digital.c.o)
 .text          0x00000000        0x0 c:\Users\Spencer\Desktop\Keyboard\Firmware\BadgersRunFirmware\Build/core\core.a(main.cpp.o)
 .data          0x00000000        0x0 c:\Users\Spencer\Desktop\Keyboard\Firmware\BadgersRunFirmware\Build/core\core.a(main.cpp.o)
 .bss           0x00000000        0x0 c:\Users\Spencer\Desktop\Keyboard\Firmware\BadgersRunFirmware\Build/core\core.a(main.cpp.o)
 .text._Z11initVariantv
                0x00000000        0x4 c:\Users\Spencer\Desktop\Keyboard\Firmware\BadgersRunFirmware\Build/core\core.a(main.cpp.o)
 .text.suspendLoop
                0x00000000        0xc c:\Users\Spencer\Desktop\Keyboard\Firmware\BadgersRunFirmware\Build/core\core.a(main.cpp.o)
 .text.resumeLoop
                0x00000000       0x24 c:\Users\Spencer\Desktop\Keyboard\Firmware\BadgersRunFirmware\Build/core\core.a(main.cpp.o)
 .text          0x00000000        0x0 c:\Users\Spencer\Desktop\Keyboard\Firmware\BadgersRunFirmware\Build/core\core.a(rtos.cpp.o)
 .data          0x00000000        0x0 c:\Users\Spencer\Desktop\Keyboard\Firmware\BadgersRunFirmware\Build/core\core.a(rtos.cpp.o)
 .bss           0x00000000        0x0 c:\Users\Spencer\Desktop\Keyboard\Firmware\BadgersRunFirmware\Build/core\core.a(rtos.cpp.o)
 .text._ZL14_redirect_taskPv
                0x00000000       0x20 c:\Users\Spencer\Desktop\Keyboard\Firmware\BadgersRunFirmware\Build/core\core.a(rtos.cpp.o)
 .text._ZN13SchedulerRTOSC2Ev
                0x00000000        0x4 c:\Users\Spencer\Desktop\Keyboard\Firmware\BadgersRunFirmware\Build/core\core.a(rtos.cpp.o)
 .rodata._ZN13SchedulerRTOS9startLoopEPFvvEmmPKc.str1.4
                0x00000000        0xd c:\Users\Spencer\Desktop\Keyboard\Firmware\BadgersRunFirmware\Build/core\core.a(rtos.cpp.o)
 .text._ZN13SchedulerRTOS9startLoopEPFvvEmmPKc
                0x00000000       0x38 c:\Users\Spencer\Desktop\Keyboard\Firmware\BadgersRunFirmware\Build/core\core.a(rtos.cpp.o)
 .bss.Scheduler
                0x00000000        0x1 c:\Users\Spencer\Desktop\Keyboard\Firmware\BadgersRunFirmware\Build/core\core.a(rtos.cpp.o)
 .text          0x00000000        0x0 c:\Users\Spencer\Desktop\Keyboard\Firmware\BadgersRunFirmware\Build/core\core.a(debug.cpp.o)
 .data          0x00000000        0x0 c:\Users\Spencer\Desktop\Keyboard\Firmware\BadgersRunFirmware\Build/core\core.a(debug.cpp.o)
 .bss           0x00000000        0x0 c:\Users\Spencer\Desktop\Keyboard\Firmware\BadgersRunFirmware\Build/core\core.a(debug.cpp.o)
 .text.dbgHeapTotal
                0x00000000       0x10 c:\Users\Spencer\Desktop\Keyboard\Firmware\BadgersRunFirmware\Build/core\core.a(debug.cpp.o)
 .text.dbgHeapUsed
                0x00000000       0x14 c:\Users\Spencer\Desktop\Keyboard\Firmware\BadgersRunFirmware\Build/core\core.a(debug.cpp.o)
 .text.dbgStackTotal
                0x00000000       0x10 c:\Users\Spencer\Desktop\Keyboard\Firmware\BadgersRunFirmware\Build/core\core.a(debug.cpp.o)
 .text.dbgStackUsed
                0x00000000       0x34 c:\Users\Spencer\Desktop\Keyboard\Firmware\BadgersRunFirmware\Build/core\core.a(debug.cpp.o)
 .rodata.dbgMemInfo.str1.4
                0x00000000      0x16c c:\Users\Spencer\Desktop\Keyboard\Firmware\BadgersRunFirmware\Build/core\core.a(debug.cpp.o)
 .text.dbgMemInfo
                0x00000000      0x1c4 c:\Users\Spencer\Desktop\Keyboard\Firmware\BadgersRunFirmware\Build/core\core.a(debug.cpp.o)
 .rodata.dbgDumpMemory.str1.4
                0x00000000       0x22 c:\Users\Spencer\Desktop\Keyboard\Firmware\BadgersRunFirmware\Build/core\core.a(debug.cpp.o)
 .text.dbgDumpMemory
                0x00000000      0x164 c:\Users\Spencer\Desktop\Keyboard\Firmware\BadgersRunFirmware\Build/core\core.a(debug.cpp.o)
 .rodata.dbgDumpMemoryCFormat.str1.4
                0x00000000       0x24 c:\Users\Spencer\Desktop\Keyboard\Firmware\BadgersRunFirmware\Build/core\core.a(debug.cpp.o)
 .text.dbgDumpMemoryCFormat
                0x00000000       0x70 c:\Users\Spencer\Desktop\Keyboard\Firmware\BadgersRunFirmware\Build/core\core.a(debug.cpp.o)
 .rodata.dbg_ble_event_str.str1.4
                0x00000000        0x7 c:\Users\Spencer\Desktop\Keyboard\Firmware\BadgersRunFirmware\Build/core\core.a(debug.cpp.o)
 .text.dbg_ble_event_str
                0x00000000       0x2c c:\Users\Spencer\Desktop\Keyboard\Firmware\BadgersRunFirmware\Build/core\core.a(debug.cpp.o)
 .text.dbg_hci_str
                0x00000000        0xc c:\Users\Spencer\Desktop\Keyboard\Firmware\BadgersRunFirmware\Build/core\core.a(debug.cpp.o)
 .bss._ZZ17dbg_ble_event_strE11unknown_str
                0x00000000        0x7 c:\Users\Spencer\Desktop\Keyboard\Firmware\BadgersRunFirmware\Build/core\core.a(debug.cpp.o)
 .rodata._ZL13_strevt_table
                0x00000000        0x8 c:\Users\Spencer\Desktop\Keyboard\Firmware\BadgersRunFirmware\Build/core\core.a(debug.cpp.o)
 .rodata._ZL13_strhci_table
                0x00000000        0x8 c:\Users\Spencer\Desktop\Keyboard\Firmware\BadgersRunFirmware\Build/core\core.a(debug.cpp.o)
 .rodata._ZL14_strevt_lookup
                0x00000000      0x170 c:\Users\Spencer\Desktop\Keyboard\Firmware\BadgersRunFirmware\Build/core\core.a(debug.cpp.o)
 .rodata._ZL14_strhci_lookup
                0x00000000       0xe0 c:\Users\Spencer\Desktop\Keyboard\Firmware\BadgersRunFirmware\Build/core\core.a(debug.cpp.o)
 .text          0x00000000        0x0 c:\Users\Spencer\Desktop\Keyboard\Firmware\BadgersRunFirmware\Build/core\core.a(heap_3.c.o)
 .data          0x00000000        0x0 c:\Users\Spencer\Desktop\Keyboard\Firmware\BadgersRunFirmware\Build/core\core.a(heap_3.c.o)
 .bss           0x00000000        0x0 c:\Users\Spencer\Desktop\Keyboard\Firmware\BadgersRunFirmware\Build/core\core.a(heap_3.c.o)
 .text          0x00000000        0x0 c:\Users\Spencer\Desktop\Keyboard\Firmware\BadgersRunFirmware\Build/core\core.a(tasks.c.o)
 .data          0x00000000        0x0 c:\Users\Spencer\Desktop\Keyboard\Firmware\BadgersRunFirmware\Build/core\core.a(tasks.c.o)
 .bss           0x00000000        0x0 c:\Users\Spencer\Desktop\Keyboard\Firmware\BadgersRunFirmware\Build/core\core.a(tasks.c.o)
 .text.vTaskDelete
                0x00000000       0xe0 c:\Users\Spencer\Desktop\Keyboard\Firmware\BadgersRunFirmware\Build/core\core.a(tasks.c.o)
 .text.eTaskGetState
                0x00000000       0x68 c:\Users\Spencer\Desktop\Keyboard\Firmware\BadgersRunFirmware\Build/core\core.a(tasks.c.o)
 .text.uxTaskPriorityGet
                0x00000000       0x24 c:\Users\Spencer\Desktop\Keyboard\Firmware\BadgersRunFirmware\Build/core\core.a(tasks.c.o)
 .text.uxTaskPriorityGetFromISR
                0x00000000       0x24 c:\Users\Spencer\Desktop\Keyboard\Firmware\BadgersRunFirmware\Build/core\core.a(tasks.c.o)
 .text.vTaskPrioritySet
                0x00000000       0xc0 c:\Users\Spencer\Desktop\Keyboard\Firmware\BadgersRunFirmware\Build/core\core.a(tasks.c.o)
 .text.vTaskSuspend
                0x00000000      0x180 c:\Users\Spencer\Desktop\Keyboard\Firmware\BadgersRunFirmware\Build/core\core.a(tasks.c.o)
 .text.vTaskResume
                0x00000000       0x94 c:\Users\Spencer\Desktop\Keyboard\Firmware\BadgersRunFirmware\Build/core\core.a(tasks.c.o)
 .text.xTaskResumeFromISR
                0x00000000       0x98 c:\Users\Spencer\Desktop\Keyboard\Firmware\BadgersRunFirmware\Build/core\core.a(tasks.c.o)
 .text.vTaskEndScheduler
                0x00000000       0x14 c:\Users\Spencer\Desktop\Keyboard\Firmware\BadgersRunFirmware\Build/core\core.a(tasks.c.o)
 .text.xTaskGetTickCountFromISR
                0x00000000        0xc c:\Users\Spencer\Desktop\Keyboard\Firmware\BadgersRunFirmware\Build/core\core.a(tasks.c.o)
 .text.uxTaskGetNumberOfTasks
                0x00000000        0xc c:\Users\Spencer\Desktop\Keyboard\Firmware\BadgersRunFirmware\Build/core\core.a(tasks.c.o)
 .text.xTaskGetIdleTaskHandle
                0x00000000        0xc c:\Users\Spencer\Desktop\Keyboard\Firmware\BadgersRunFirmware\Build/core\core.a(tasks.c.o)
 .text.vTaskDelayUntil
                0x00000000       0x9c c:\Users\Spencer\Desktop\Keyboard\Firmware\BadgersRunFirmware\Build/core\core.a(tasks.c.o)
 .text.vTaskDelay
                0x00000000       0x84 c:\Users\Spencer\Desktop\Keyboard\Firmware\BadgersRunFirmware\Build/core\core.a(tasks.c.o)
 .text.prvListTasksWithinSingleList.part.0
                0x00000000       0xec c:\Users\Spencer\Desktop\Keyboard\Firmware\BadgersRunFirmware\Build/core\core.a(tasks.c.o)
 .text.uxTaskGetSystemState
                0x00000000       0xe8 c:\Users\Spencer\Desktop\Keyboard\Firmware\BadgersRunFirmware\Build/core\core.a(tasks.c.o)
 .text.vTaskPlaceOnUnorderedEventList
                0x00000000       0x80 c:\Users\Spencer\Desktop\Keyboard\Firmware\BadgersRunFirmware\Build/core\core.a(tasks.c.o)
 .text.vTaskRemoveFromUnorderedEventList
                0x00000000       0x58 c:\Users\Spencer\Desktop\Keyboard\Firmware\BadgersRunFirmware\Build/core\core.a(tasks.c.o)
 .text.vTaskSetTimeOutState
                0x00000000       0x24 c:\Users\Spencer\Desktop\Keyboard\Firmware\BadgersRunFirmware\Build/core\core.a(tasks.c.o)
 .text.uxTaskGetTaskNumber
                0x00000000        0x8 c:\Users\Spencer\Desktop\Keyboard\Firmware\BadgersRunFirmware\Build/core\core.a(tasks.c.o)
 .text.vTaskSetTaskNumber
                0x00000000        0x8 c:\Users\Spencer\Desktop\Keyboard\Firmware\BadgersRunFirmware\Build/core\core.a(tasks.c.o)
 .text.vTaskGetInfo
                0x00000000       0xec c:\Users\Spencer\Desktop\Keyboard\Firmware\BadgersRunFirmware\Build/core\core.a(tasks.c.o)
 .text.uxTaskGetStackHighWaterMark
                0x00000000       0x34 c:\Users\Spencer\Desktop\Keyboard\Firmware\BadgersRunFirmware\Build/core\core.a(tasks.c.o)
 .rodata.vTaskList.str1.4
                0x00000000        0xf c:\Users\Spencer\Desktop\Keyboard\Firmware\BadgersRunFirmware\Build/core\core.a(tasks.c.o)
 .text.vTaskList
                0x00000000       0xe8 c:\Users\Spencer\Desktop\Keyboard\Firmware\BadgersRunFirmware\Build/core\core.a(tasks.c.o)
 .text.uxTaskResetEventItemValue
                0x00000000       0x18 c:\Users\Spencer\Desktop\Keyboard\Firmware\BadgersRunFirmware\Build/core\core.a(tasks.c.o)
 .text.ulTaskNotifyTake
                0x00000000       0xc0 c:\Users\Spencer\Desktop\Keyboard\Firmware\BadgersRunFirmware\Build/core\core.a(tasks.c.o)
 .text.xTaskNotifyWait
                0x00000000       0xec c:\Users\Spencer\Desktop\Keyboard\Firmware\BadgersRunFirmware\Build/core\core.a(tasks.c.o)
 .text.xTaskGenericNotify
                0x00000000       0xd8 c:\Users\Spencer\Desktop\Keyboard\Firmware\BadgersRunFirmware\Build/core\core.a(tasks.c.o)
 .text.xTaskGenericNotifyFromISR
                0x00000000       0xc8 c:\Users\Spencer\Desktop\Keyboard\Firmware\BadgersRunFirmware\Build/core\core.a(tasks.c.o)
 .text.vTaskNotifyGiveFromISR
                0x00000000       0xa4 c:\Users\Spencer\Desktop\Keyboard\Firmware\BadgersRunFirmware\Build/core\core.a(tasks.c.o)
 .text.xTaskNotifyStateClear
                0x00000000       0x34 c:\Users\Spencer\Desktop\Keyboard\Firmware\BadgersRunFirmware\Build/core\core.a(tasks.c.o)
 .rodata.CSWTCH.225
                0x00000000        0x5 c:\Users\Spencer\Desktop\Keyboard\Firmware\BadgersRunFirmware\Build/core\core.a(tasks.c.o)
 .text          0x00000000        0x0 c:\Users\Spencer\Desktop\Keyboard\Firmware\BadgersRunFirmware\Build/core\core.a(timers.c.o)
 .data          0x00000000        0x0 c:\Users\Spencer\Desktop\Keyboard\Firmware\BadgersRunFirmware\Build/core\core.a(timers.c.o)
 .bss           0x00000000        0x0 c:\Users\Spencer\Desktop\Keyboard\Firmware\BadgersRunFirmware\Build/core\core.a(timers.c.o)
 .text.xTimerCreate
                0x00000000       0xac c:\Users\Spencer\Desktop\Keyboard\Firmware\BadgersRunFirmware\Build/core\core.a(timers.c.o)
 .text.xTimerCreateStatic
                0x00000000       0xa8 c:\Users\Spencer\Desktop\Keyboard\Firmware\BadgersRunFirmware\Build/core\core.a(timers.c.o)
 .text.xTimerGenericCommand
                0x00000000       0x58 c:\Users\Spencer\Desktop\Keyboard\Firmware\BadgersRunFirmware\Build/core\core.a(timers.c.o)
 .text.xTimerGetTimerDaemonTaskHandle
                0x00000000        0xc c:\Users\Spencer\Desktop\Keyboard\Firmware\BadgersRunFirmware\Build/core\core.a(timers.c.o)
 .text.xTimerGetPeriod
                0x00000000        0x4 c:\Users\Spencer\Desktop\Keyboard\Firmware\BadgersRunFirmware\Build/core\core.a(timers.c.o)
 .text.xTimerGetExpiryTime
                0x00000000        0x4 c:\Users\Spencer\Desktop\Keyboard\Firmware\BadgersRunFirmware\Build/core\core.a(timers.c.o)
 .text.pcTimerGetName
                0x00000000        0x4 c:\Users\Spencer\Desktop\Keyboard\Firmware\BadgersRunFirmware\Build/core\core.a(timers.c.o)
 .text.xTimerIsTimerActive
                0x00000000       0x20 c:\Users\Spencer\Desktop\Keyboard\Firmware\BadgersRunFirmware\Build/core\core.a(timers.c.o)
 .text.pvTimerGetTimerID
                0x00000000       0x18 c:\Users\Spencer\Desktop\Keyboard\Firmware\BadgersRunFirmware\Build/core\core.a(timers.c.o)
 .text.vTimerSetTimerID
                0x00000000       0x14 c:\Users\Spencer\Desktop\Keyboard\Firmware\BadgersRunFirmware\Build/core\core.a(timers.c.o)
 .text.xTimerPendFunctionCallFromISR
                0x00000000       0x2c c:\Users\Spencer\Desktop\Keyboard\Firmware\BadgersRunFirmware\Build/core\core.a(timers.c.o)
 .text.xTimerPendFunctionCall
                0x00000000       0x2c c:\Users\Spencer\Desktop\Keyboard\Firmware\BadgersRunFirmware\Build/core\core.a(timers.c.o)
 .text.uxTimerGetTimerNumber
                0x00000000        0x4 c:\Users\Spencer\Desktop\Keyboard\Firmware\BadgersRunFirmware\Build/core\core.a(timers.c.o)
 .text.vTimerSetTimerNumber
                0x00000000        0x4 c:\Users\Spencer\Desktop\Keyboard\Firmware\BadgersRunFirmware\Build/core\core.a(timers.c.o)
 .text          0x00000000        0x0 c:\Users\Spencer\Desktop\Keyboard\Firmware\BadgersRunFirmware\Build/core\core.a(port_cmsis.c.o)
 .data          0x00000000        0x0 c:\Users\Spencer\Desktop\Keyboard\Firmware\BadgersRunFirmware\Build/core\core.a(port_cmsis.c.o)
 .bss           0x00000000        0x0 c:\Users\Spencer\Desktop\Keyboard\Firmware\BadgersRunFirmware\Build/core\core.a(port_cmsis.c.o)
 .text.vPortEndScheduler
                0x00000000        0x4 c:\Users\Spencer\Desktop\Keyboard\Firmware\BadgersRunFirmware\Build/core\core.a(port_cmsis.c.o)
 .text          0x00000000        0x0 c:\Users\Spencer\Desktop\Keyboard\Firmware\BadgersRunFirmware\Build/core\core.a(port_cmsis_systick.c.o)
 .data          0x00000000        0x0 c:\Users\Spencer\Desktop\Keyboard\Firmware\BadgersRunFirmware\Build/core\core.a(port_cmsis_systick.c.o)
 .bss           0x00000000        0x0 c:\Users\Spencer\Desktop\Keyboard\Firmware\BadgersRunFirmware\Build/core\core.a(port_cmsis_systick.c.o)
 .text          0x00000000        0x0 c:\Users\Spencer\Desktop\Keyboard\Firmware\BadgersRunFirmware\Build/core\core.a(port.c.o)
 .data          0x00000000        0x0 c:\Users\Spencer\Desktop\Keyboard\Firmware\BadgersRunFirmware\Build/core\core.a(port.c.o)
 .bss           0x00000000        0x0 c:\Users\Spencer\Desktop\Keyboard\Firmware\BadgersRunFirmware\Build/core\core.a(port.c.o)
 .text          0x00000000        0x0 c:\Users\Spencer\Desktop\Keyboard\Firmware\BadgersRunFirmware\Build/core\core.a(hooks.c.o)
 .data          0x00000000        0x0 c:\Users\Spencer\Desktop\Keyboard\Firmware\BadgersRunFirmware\Build/core\core.a(hooks.c.o)
 .bss           0x00000000        0x0 c:\Users\Spencer\Desktop\Keyboard\Firmware\BadgersRunFirmware\Build/core\core.a(hooks.c.o)
 .text.__false  0x00000000        0x4 c:\Users\Spencer\Desktop\Keyboard\Firmware\BadgersRunFirmware\Build/core\core.a(hooks.c.o)
 .text.__halt   0x00000000        0x4 c:\Users\Spencer\Desktop\Keyboard\Firmware\BadgersRunFirmware\Build/core\core.a(hooks.c.o)
 .text          0x00000000        0x0 c:\Users\Spencer\Desktop\Keyboard\Firmware\BadgersRunFirmware\Build/core\core.a(AdaCallback.c.o)
 .data          0x00000000        0x0 c:\Users\Spencer\Desktop\Keyboard\Firmware\BadgersRunFirmware\Build/core\core.a(AdaCallback.c.o)
 .bss           0x00000000        0x0 c:\Users\Spencer\Desktop\Keyboard\Firmware\BadgersRunFirmware\Build/core\core.a(AdaCallback.c.o)
 .rodata.ada_callback_queue_resize.str1.4
                0x00000000       0x38 c:\Users\Spencer\Desktop\Keyboard\Firmware\BadgersRunFirmware\Build/core\core.a(AdaCallback.c.o)
 .text.ada_callback_queue_resize
                0x00000000       0x80 c:\Users\Spencer\Desktop\Keyboard\Firmware\BadgersRunFirmware\Build/core\core.a(AdaCallback.c.o)
 .rodata.ada_callback_queue.str1.4
                0x00000000       0x24 c:\Users\Spencer\Desktop\Keyboard\Firmware\BadgersRunFirmware\Build/core\core.a(AdaCallback.c.o)
 .text.ada_callback_queue
                0x00000000       0xa0 c:\Users\Spencer\Desktop\Keyboard\Firmware\BadgersRunFirmware\Build/core\core.a(AdaCallback.c.o)
 .text.ada_callback_invoke
                0x00000000       0xd4 c:\Users\Spencer\Desktop\Keyboard\Firmware\BadgersRunFirmware\Build/core\core.a(AdaCallback.c.o)
 .text          0x00000000        0x0 c:\Users\Spencer\Desktop\Keyboard\Firmware\BadgersRunFirmware\Build/core\core.a(utilities.c.o)
 .data          0x00000000        0x0 c:\Users\Spencer\Desktop\Keyboard\Firmware\BadgersRunFirmware\Build/core\core.a(utilities.c.o)
 .bss           0x00000000        0x0 c:\Users\Spencer\Desktop\Keyboard\Firmware\BadgersRunFirmware\Build/core\core.a(utilities.c.o)
 .text          0x00000000        0x0 c:\Users\Spencer\Desktop\Keyboard\Firmware\BadgersRunFirmware\Build/core\core.a(wiring.c.o)
 .data          0x00000000        0x0 c:\Users\Spencer\Desktop\Keyboard\Firmware\BadgersRunFirmware\Build/core\core.a(wiring.c.o)
 .bss           0x00000000        0x0 c:\Users\Spencer\Desktop\Keyboard\Firmware\BadgersRunFirmware\Build/core\core.a(wiring.c.o)
 .text.__NVIC_SystemReset
                0x00000000       0x24 c:\Users\Spencer\Desktop\Keyboard\Firmware\BadgersRunFirmware\Build/core\core.a(wiring.c.o)
 .text.sd_power_system_off
                0x00000000        0x4 c:\Users\Spencer\Desktop\Keyboard\Firmware\BadgersRunFirmware\Build/core\core.a(wiring.c.o)
 .text.sd_app_evt_wait
                0x00000000        0x4 c:\Users\Spencer\Desktop\Keyboard\Firmware\BadgersRunFirmware\Build/core\core.a(wiring.c.o)
 .text.sd_softdevice_is_enabled
                0x00000000        0x4 c:\Users\Spencer\Desktop\Keyboard\Firmware\BadgersRunFirmware\Build/core\core.a(wiring.c.o)
 .text.enterUf2Dfu
                0x00000000       0x10 c:\Users\Spencer\Desktop\Keyboard\Firmware\BadgersRunFirmware\Build/core\core.a(wiring.c.o)
 .text.enterSerialDfu
                0x00000000       0x10 c:\Users\Spencer\Desktop\Keyboard\Firmware\BadgersRunFirmware\Build/core\core.a(wiring.c.o)
 .text.enterOTADfu
                0x00000000       0x10 c:\Users\Spencer\Desktop\Keyboard\Firmware\BadgersRunFirmware\Build/core\core.a(wiring.c.o)
 .text.waitForEvent
                0x00000000       0x30 c:\Users\Spencer\Desktop\Keyboard\Firmware\BadgersRunFirmware\Build/core\core.a(wiring.c.o)
 .text.systemOff
                0x00000000       0x64 c:\Users\Spencer\Desktop\Keyboard\Firmware\BadgersRunFirmware\Build/core\core.a(wiring.c.o)
 .group         0x00000000        0x8 c:\Users\Spencer\Desktop\Keyboard\Firmware\BadgersRunFirmware\Build/core\core.a(Uart.cpp.o)
 .group         0x00000000        0x8 c:\Users\Spencer\Desktop\Keyboard\Firmware\BadgersRunFirmware\Build/core\core.a(Uart.cpp.o)
 .text          0x00000000        0x0 c:\Users\Spencer\Desktop\Keyboard\Firmware\BadgersRunFirmware\Build/core\core.a(Uart.cpp.o)
 .data          0x00000000        0x0 c:\Users\Spencer\Desktop\Keyboard\Firmware\BadgersRunFirmware\Build/core\core.a(Uart.cpp.o)
 .bss           0x00000000        0x0 c:\Users\Spencer\Desktop\Keyboard\Firmware\BadgersRunFirmware\Build/core\core.a(Uart.cpp.o)
 .text._ZN4UartC2EP14NRF_UARTE_Type9IRQn_Typehh
                0x00000000       0x54 c:\Users\Spencer\Desktop\Keyboard\Firmware\BadgersRunFirmware\Build/core\core.a(Uart.cpp.o)
 .text._ZN4UartC2EP14NRF_UARTE_Type9IRQn_Typehhhh
                0x00000000       0x74 c:\Users\Spencer\Desktop\Keyboard\Firmware\BadgersRunFirmware\Build/core\core.a(Uart.cpp.o)
 .text._ZN4Uart7setPinsEhh
                0x00000000       0x18 c:\Users\Spencer\Desktop\Keyboard\Firmware\BadgersRunFirmware\Build/core\core.a(Uart.cpp.o)
 .text._ZN4Uart10IrqHandlerEv
                0x00000000       0x44 c:\Users\Spencer\Desktop\Keyboard\Firmware\BadgersRunFirmware\Build/core\core.a(Uart.cpp.o)
 .text          0x00000000        0x0 c:\Users\Spencer\Desktop\Keyboard\Firmware\BadgersRunFirmware\Build/core\core.a(list.c.o)
 .data          0x00000000        0x0 c:\Users\Spencer\Desktop\Keyboard\Firmware\BadgersRunFirmware\Build/core\core.a(list.c.o)
 .bss           0x00000000        0x0 c:\Users\Spencer\Desktop\Keyboard\Firmware\BadgersRunFirmware\Build/core\core.a(list.c.o)
 .text          0x00000000        0x0 c:\Users\Spencer\Desktop\Keyboard\Firmware\BadgersRunFirmware\Build/core\core.a(queue.c.o)
 .data          0x00000000        0x0 c:\Users\Spencer\Desktop\Keyboard\Firmware\BadgersRunFirmware\Build/core\core.a(queue.c.o)
 .bss           0x00000000        0x0 c:\Users\Spencer\Desktop\Keyboard\Firmware\BadgersRunFirmware\Build/core\core.a(queue.c.o)
 .text.xQueueGenericReset
                0x00000000       0x80 c:\Users\Spencer\Desktop\Keyboard\Firmware\BadgersRunFirmware\Build/core\core.a(queue.c.o)
 .text.xQueueCreateCountingSemaphoreStatic
                0x00000000       0x5c c:\Users\Spencer\Desktop\Keyboard\Firmware\BadgersRunFirmware\Build/core\core.a(queue.c.o)
 .text.xQueueCreateCountingSemaphore
                0x00000000       0x64 c:\Users\Spencer\Desktop\Keyboard\Firmware\BadgersRunFirmware\Build/core\core.a(queue.c.o)
 .text.xQueueCreateMutexStatic
                0x00000000       0x6c c:\Users\Spencer\Desktop\Keyboard\Firmware\BadgersRunFirmware\Build/core\core.a(queue.c.o)
 .text.xQueueGiveMutexRecursive
                0x00000000       0x2c c:\Users\Spencer\Desktop\Keyboard\Firmware\BadgersRunFirmware\Build/core\core.a(queue.c.o)
 .text.xQueueGenericSendFromISR
                0x00000000       0xfc c:\Users\Spencer\Desktop\Keyboard\Firmware\BadgersRunFirmware\Build/core\core.a(queue.c.o)
 .text.xQueueTakeMutexRecursive
                0x00000000       0x2c c:\Users\Spencer\Desktop\Keyboard\Firmware\BadgersRunFirmware\Build/core\core.a(queue.c.o)
 .text.xQueuePeek
                0x00000000      0x2b0 c:\Users\Spencer\Desktop\Keyboard\Firmware\BadgersRunFirmware\Build/core\core.a(queue.c.o)
 .text.xQueueReceiveFromISR
                0x00000000       0x80 c:\Users\Spencer\Desktop\Keyboard\Firmware\BadgersRunFirmware\Build/core\core.a(queue.c.o)
 .text.xQueuePeekFromISR
                0x00000000       0x40 c:\Users\Spencer\Desktop\Keyboard\Firmware\BadgersRunFirmware\Build/core\core.a(queue.c.o)
 .text.uxQueueMessagesWaiting
                0x00000000       0x18 c:\Users\Spencer\Desktop\Keyboard\Firmware\BadgersRunFirmware\Build/core\core.a(queue.c.o)
 .text.uxQueueSpacesAvailable
                0x00000000       0x1c c:\Users\Spencer\Desktop\Keyboard\Firmware\BadgersRunFirmware\Build/core\core.a(queue.c.o)
 .text.uxQueueMessagesWaitingFromISR
                0x00000000        0x4 c:\Users\Spencer\Desktop\Keyboard\Firmware\BadgersRunFirmware\Build/core\core.a(queue.c.o)
 .text.uxQueueGetQueueNumber
                0x00000000        0x4 c:\Users\Spencer\Desktop\Keyboard\Firmware\BadgersRunFirmware\Build/core\core.a(queue.c.o)
 .text.vQueueSetQueueNumber
                0x00000000        0x4 c:\Users\Spencer\Desktop\Keyboard\Firmware\BadgersRunFirmware\Build/core\core.a(queue.c.o)
 .text.ucQueueGetQueueType
                0x00000000        0x8 c:\Users\Spencer\Desktop\Keyboard\Firmware\BadgersRunFirmware\Build/core\core.a(queue.c.o)
 .text.xQueueIsQueueEmptyFromISR
                0x00000000        0xc c:\Users\Spencer\Desktop\Keyboard\Firmware\BadgersRunFirmware\Build/core\core.a(queue.c.o)
 .text.xQueueIsQueueFullFromISR
                0x00000000       0x10 c:\Users\Spencer\Desktop\Keyboard\Firmware\BadgersRunFirmware\Build/core\core.a(queue.c.o)
 .text.pcQueueGetName
                0x00000000       0x24 c:\Users\Spencer\Desktop\Keyboard\Firmware\BadgersRunFirmware\Build/core\core.a(queue.c.o)
 .text.vQueueUnregisterQueue
                0x00000000       0x28 c:\Users\Spencer\Desktop\Keyboard\Firmware\BadgersRunFirmware\Build/core\core.a(queue.c.o)
 .text          0x00000000        0x0 c:\Users\Spencer\Desktop\Keyboard\Firmware\BadgersRunFirmware\Build/core\core.a(RingBuffer.cpp.o)
 .data          0x00000000        0x0 c:\Users\Spencer\Desktop\Keyboard\Firmware\BadgersRunFirmware\Build/core\core.a(RingBuffer.cpp.o)
 .bss           0x00000000        0x0 c:\Users\Spencer\Desktop\Keyboard\Firmware\BadgersRunFirmware\Build/core\core.a(RingBuffer.cpp.o)
 .text._ZN10RingBuffer9nextIndexEi
                0x00000000        0x8 c:\Users\Spencer\Desktop\Keyboard\Firmware\BadgersRunFirmware\Build/core\core.a(RingBuffer.cpp.o)
 .text._ZN10RingBuffer6isFullEv
                0x00000000       0x14 c:\Users\Spencer\Desktop\Keyboard\Firmware\BadgersRunFirmware\Build/core\core.a(RingBuffer.cpp.o)
 .text          0x00000000        0x0 c:/users/spencer/appdata/local/arduino15/packages/adafruit/tools/arm-none-eabi-gcc/9-2019q4/bin/../lib/gcc/arm-none-eabi/9.2.1/../../../../arm-none-eabi/lib/thumb/v7e-m+fp/hard\libc_nano.a(lib_a-exit.o)
 .data          0x00000000        0x0 c:/users/spencer/appdata/local/arduino15/packages/adafruit/tools/arm-none-eabi-gcc/9-2019q4/bin/../lib/gcc/arm-none-eabi/9.2.1/../../../../arm-none-eabi/lib/thumb/v7e-m+fp/hard\libc_nano.a(lib_a-exit.o)
 .bss           0x00000000        0x0 c:/users/spencer/appdata/local/arduino15/packages/adafruit/tools/arm-none-eabi-gcc/9-2019q4/bin/../lib/gcc/arm-none-eabi/9.2.1/../../../../arm-none-eabi/lib/thumb/v7e-m+fp/hard\libc_nano.a(lib_a-exit.o)
 .text          0x00000000        0x0 c:/users/spencer/appdata/local/arduino15/packages/adafruit/tools/arm-none-eabi-gcc/9-2019q4/bin/../lib/gcc/arm-none-eabi/9.2.1/../../../../arm-none-eabi/lib/thumb/v7e-m+fp/hard\libc_nano.a(lib_a-impure.o)
 .data          0x00000000        0x0 c:/users/spencer/appdata/local/arduino15/packages/adafruit/tools/arm-none-eabi-gcc/9-2019q4/bin/../lib/gcc/arm-none-eabi/9.2.1/../../../../arm-none-eabi/lib/thumb/v7e-m+fp/hard\libc_nano.a(lib_a-impure.o)
 .bss           0x00000000        0x0 c:/users/spencer/appdata/local/arduino15/packages/adafruit/tools/arm-none-eabi-gcc/9-2019q4/bin/../lib/gcc/arm-none-eabi/9.2.1/../../../../arm-none-eabi/lib/thumb/v7e-m+fp/hard\libc_nano.a(lib_a-impure.o)
 .text          0x00000000        0x0 c:/users/spencer/appdata/local/arduino15/packages/adafruit/tools/arm-none-eabi-gcc/9-2019q4/bin/../lib/gcc/arm-none-eabi/9.2.1/../../../../arm-none-eabi/lib/thumb/v7e-m+fp/hard\libc_nano.a(lib_a-init.o)
 .data          0x00000000        0x0 c:/users/spencer/appdata/local/arduino15/packages/adafruit/tools/arm-none-eabi-gcc/9-2019q4/bin/../lib/gcc/arm-none-eabi/9.2.1/../../../../arm-none-eabi/lib/thumb/v7e-m+fp/hard\libc_nano.a(lib_a-init.o)
 .bss           0x00000000        0x0 c:/users/spencer/appdata/local/arduino15/packages/adafruit/tools/arm-none-eabi-gcc/9-2019q4/bin/../lib/gcc/arm-none-eabi/9.2.1/../../../../arm-none-eabi/lib/thumb/v7e-m+fp/hard\libc_nano.a(lib_a-init.o)
 .text          0x00000000        0x0 c:/users/spencer/appdata/local/arduino15/packages/adafruit/tools/arm-none-eabi-gcc/9-2019q4/bin/../lib/gcc/arm-none-eabi/9.2.1/../../../../arm-none-eabi/lib/thumb/v7e-m+fp/hard\libc_nano.a(lib_a-isprint.o)
 .data          0x00000000        0x0 c:/users/spencer/appdata/local/arduino15/packages/adafruit/tools/arm-none-eabi-gcc/9-2019q4/bin/../lib/gcc/arm-none-eabi/9.2.1/../../../../arm-none-eabi/lib/thumb/v7e-m+fp/hard\libc_nano.a(lib_a-isprint.o)
 .bss           0x00000000        0x0 c:/users/spencer/appdata/local/arduino15/packages/adafruit/tools/arm-none-eabi-gcc/9-2019q4/bin/../lib/gcc/arm-none-eabi/9.2.1/../../../../arm-none-eabi/lib/thumb/v7e-m+fp/hard\libc_nano.a(lib_a-isprint.o)
 .text.isgraph  0x00000000       0x10 c:/users/spencer/appdata/local/arduino15/packages/adafruit/tools/arm-none-eabi-gcc/9-2019q4/bin/../lib/gcc/arm-none-eabi/9.2.1/../../../../arm-none-eabi/lib/thumb/v7e-m+fp/hard\libc_nano.a(lib_a-isprint.o)
 .text.isprint  0x00000000       0x10 c:/users/spencer/appdata/local/arduino15/packages/adafruit/tools/arm-none-eabi-gcc/9-2019q4/bin/../lib/gcc/arm-none-eabi/9.2.1/../../../../arm-none-eabi/lib/thumb/v7e-m+fp/hard\libc_nano.a(lib_a-isprint.o)
 .debug_frame   0x00000000       0x30 c:/users/spencer/appdata/local/arduino15/packages/adafruit/tools/arm-none-eabi-gcc/9-2019q4/bin/../lib/gcc/arm-none-eabi/9.2.1/../../../../arm-none-eabi/lib/thumb/v7e-m+fp/hard\libc_nano.a(lib_a-isprint.o)
 .ARM.attributes
                0x00000000       0x34 c:/users/spencer/appdata/local/arduino15/packages/adafruit/tools/arm-none-eabi-gcc/9-2019q4/bin/../lib/gcc/arm-none-eabi/9.2.1/../../../../arm-none-eabi/lib/thumb/v7e-m+fp/hard\libc_nano.a(lib_a-isprint.o)
 .text          0x00000000        0x0 c:/users/spencer/appdata/local/arduino15/packages/adafruit/tools/arm-none-eabi-gcc/9-2019q4/bin/../lib/gcc/arm-none-eabi/9.2.1/../../../../arm-none-eabi/lib/thumb/v7e-m+fp/hard\libc_nano.a(lib_a-malloc.o)
 .data          0x00000000        0x0 c:/users/spencer/appdata/local/arduino15/packages/adafruit/tools/arm-none-eabi-gcc/9-2019q4/bin/../lib/gcc/arm-none-eabi/9.2.1/../../../../arm-none-eabi/lib/thumb/v7e-m+fp/hard\libc_nano.a(lib_a-malloc.o)
 .bss           0x00000000        0x0 c:/users/spencer/appdata/local/arduino15/packages/adafruit/tools/arm-none-eabi-gcc/9-2019q4/bin/../lib/gcc/arm-none-eabi/9.2.1/../../../../arm-none-eabi/lib/thumb/v7e-m+fp/hard\libc_nano.a(lib_a-malloc.o)
 .text          0x00000000        0x0 c:/users/spencer/appdata/local/arduino15/packages/adafruit/tools/arm-none-eabi-gcc/9-2019q4/bin/../lib/gcc/arm-none-eabi/9.2.1/../../../../arm-none-eabi/lib/thumb/v7e-m+fp/hard\libc_nano.a(lib_a-memcpy-stub.o)
 .data          0x00000000        0x0 c:/users/spencer/appdata/local/arduino15/packages/adafruit/tools/arm-none-eabi-gcc/9-2019q4/bin/../lib/gcc/arm-none-eabi/9.2.1/../../../../arm-none-eabi/lib/thumb/v7e-m+fp/hard\libc_nano.a(lib_a-memcpy-stub.o)
 .bss           0x00000000        0x0 c:/users/spencer/appdata/local/arduino15/packages/adafruit/tools/arm-none-eabi-gcc/9-2019q4/bin/../lib/gcc/arm-none-eabi/9.2.1/../../../../arm-none-eabi/lib/thumb/v7e-m+fp/hard\libc_nano.a(lib_a-memcpy-stub.o)
 .text          0x00000000        0x0 c:/users/spencer/appdata/local/arduino15/packages/adafruit/tools/arm-none-eabi-gcc/9-2019q4/bin/../lib/gcc/arm-none-eabi/9.2.1/../../../../arm-none-eabi/lib/thumb/v7e-m+fp/hard\libc_nano.a(lib_a-memset.o)
 .data          0x00000000        0x0 c:/users/spencer/appdata/local/arduino15/packages/adafruit/tools/arm-none-eabi-gcc/9-2019q4/bin/../lib/gcc/arm-none-eabi/9.2.1/../../../../arm-none-eabi/lib/thumb/v7e-m+fp/hard\libc_nano.a(lib_a-memset.o)
 .bss           0x00000000        0x0 c:/users/spencer/appdata/local/arduino15/packages/adafruit/tools/arm-none-eabi-gcc/9-2019q4/bin/../lib/gcc/arm-none-eabi/9.2.1/../../../../arm-none-eabi/lib/thumb/v7e-m+fp/hard\libc_nano.a(lib_a-memset.o)
 .text          0x00000000        0x0 c:/users/spencer/appdata/local/arduino15/packages/adafruit/tools/arm-none-eabi-gcc/9-2019q4/bin/../lib/gcc/arm-none-eabi/9.2.1/../../../../arm-none-eabi/lib/thumb/v7e-m+fp/hard\libc_nano.a(lib_a-mstats.o)
 .data          0x00000000        0x0 c:/users/spencer/appdata/local/arduino15/packages/adafruit/tools/arm-none-eabi-gcc/9-2019q4/bin/../lib/gcc/arm-none-eabi/9.2.1/../../../../arm-none-eabi/lib/thumb/v7e-m+fp/hard\libc_nano.a(lib_a-mstats.o)
 .bss           0x00000000        0x0 c:/users/spencer/appdata/local/arduino15/packages/adafruit/tools/arm-none-eabi-gcc/9-2019q4/bin/../lib/gcc/arm-none-eabi/9.2.1/../../../../arm-none-eabi/lib/thumb/v7e-m+fp/hard\libc_nano.a(lib_a-mstats.o)
 .text.mallinfo
                0x00000000       0x14 c:/users/spencer/appdata/local/arduino15/packages/adafruit/tools/arm-none-eabi-gcc/9-2019q4/bin/../lib/gcc/arm-none-eabi/9.2.1/../../../../arm-none-eabi/lib/thumb/v7e-m+fp/hard\libc_nano.a(lib_a-mstats.o)
 .text.malloc_stats
                0x00000000        0xc c:/users/spencer/appdata/local/arduino15/packages/adafruit/tools/arm-none-eabi-gcc/9-2019q4/bin/../lib/gcc/arm-none-eabi/9.2.1/../../../../arm-none-eabi/lib/thumb/v7e-m+fp/hard\libc_nano.a(lib_a-mstats.o)
 .text.mallopt  0x00000000       0x10 c:/users/spencer/appdata/local/arduino15/packages/adafruit/tools/arm-none-eabi-gcc/9-2019q4/bin/../lib/gcc/arm-none-eabi/9.2.1/../../../../arm-none-eabi/lib/thumb/v7e-m+fp/hard\libc_nano.a(lib_a-mstats.o)
 .rodata._mstats_r.str1.1
                0x00000000       0x21 c:/users/spencer/appdata/local/arduino15/packages/adafruit/tools/arm-none-eabi-gcc/9-2019q4/bin/../lib/gcc/arm-none-eabi/9.2.1/../../../../arm-none-eabi/lib/thumb/v7e-m+fp/hard\libc_nano.a(lib_a-mstats.o)
 .text._mstats_r
                0x00000000       0x2c c:/users/spencer/appdata/local/arduino15/packages/adafruit/tools/arm-none-eabi-gcc/9-2019q4/bin/../lib/gcc/arm-none-eabi/9.2.1/../../../../arm-none-eabi/lib/thumb/v7e-m+fp/hard\libc_nano.a(lib_a-mstats.o)
 .text.mstats   0x00000000       0x10 c:/users/spencer/appdata/local/arduino15/packages/adafruit/tools/arm-none-eabi-gcc/9-2019q4/bin/../lib/gcc/arm-none-eabi/9.2.1/../../../../arm-none-eabi/lib/thumb/v7e-m+fp/hard\libc_nano.a(lib_a-mstats.o)
 .debug_frame   0x00000000       0x78 c:/users/spencer/appdata/local/arduino15/packages/adafruit/tools/arm-none-eabi-gcc/9-2019q4/bin/../lib/gcc/arm-none-eabi/9.2.1/../../../../arm-none-eabi/lib/thumb/v7e-m+fp/hard\libc_nano.a(lib_a-mstats.o)
 .ARM.attributes
                0x00000000       0x34 c:/users/spencer/appdata/local/arduino15/packages/adafruit/tools/arm-none-eabi-gcc/9-2019q4/bin/../lib/gcc/arm-none-eabi/9.2.1/../../../../arm-none-eabi/lib/thumb/v7e-m+fp/hard\libc_nano.a(lib_a-mstats.o)
 .text          0x00000000        0x0 c:/users/spencer/appdata/local/arduino15/packages/adafruit/tools/arm-none-eabi-gcc/9-2019q4/bin/../lib/gcc/arm-none-eabi/9.2.1/../../../../arm-none-eabi/lib/thumb/v7e-m+fp/hard\libc_nano.a(lib_a-nano-freer.o)
 .data          0x00000000        0x0 c:/users/spencer/appdata/local/arduino15/packages/adafruit/tools/arm-none-eabi-gcc/9-2019q4/bin/../lib/gcc/arm-none-eabi/9.2.1/../../../../arm-none-eabi/lib/thumb/v7e-m+fp/hard\libc_nano.a(lib_a-nano-freer.o)
 .bss           0x00000000        0x0 c:/users/spencer/appdata/local/arduino15/packages/adafruit/tools/arm-none-eabi-gcc/9-2019q4/bin/../lib/gcc/arm-none-eabi/9.2.1/../../../../arm-none-eabi/lib/thumb/v7e-m+fp/hard\libc_nano.a(lib_a-nano-freer.o)
 .text          0x00000000        0x0 c:/users/spencer/appdata/local/arduino15/packages/adafruit/tools/arm-none-eabi-gcc/9-2019q4/bin/../lib/gcc/arm-none-eabi/9.2.1/../../../../arm-none-eabi/lib/thumb/v7e-m+fp/hard\libc_nano.a(lib_a-nano-mallinfor.o)
 .data          0x00000000        0x0 c:/users/spencer/appdata/local/arduino15/packages/adafruit/tools/arm-none-eabi-gcc/9-2019q4/bin/../lib/gcc/arm-none-eabi/9.2.1/../../../../arm-none-eabi/lib/thumb/v7e-m+fp/hard\libc_nano.a(lib_a-nano-mallinfor.o)
 .bss           0x00000000        0x0 c:/users/spencer/appdata/local/arduino15/packages/adafruit/tools/arm-none-eabi-gcc/9-2019q4/bin/../lib/gcc/arm-none-eabi/9.2.1/../../../../arm-none-eabi/lib/thumb/v7e-m+fp/hard\libc_nano.a(lib_a-nano-mallinfor.o)
 .text._mallinfo_r
                0x00000000       0x68 c:/users/spencer/appdata/local/arduino15/packages/adafruit/tools/arm-none-eabi-gcc/9-2019q4/bin/../lib/gcc/arm-none-eabi/9.2.1/../../../../arm-none-eabi/lib/thumb/v7e-m+fp/hard\libc_nano.a(lib_a-nano-mallinfor.o)
 .bss.__malloc_current_mallinfo
                0x00000000       0x28 c:/users/spencer/appdata/local/arduino15/packages/adafruit/tools/arm-none-eabi-gcc/9-2019q4/bin/../lib/gcc/arm-none-eabi/9.2.1/../../../../arm-none-eabi/lib/thumb/v7e-m+fp/hard\libc_nano.a(lib_a-nano-mallinfor.o)
 .debug_frame   0x00000000       0x2c c:/users/spencer/appdata/local/arduino15/packages/adafruit/tools/arm-none-eabi-gcc/9-2019q4/bin/../lib/gcc/arm-none-eabi/9.2.1/../../../../arm-none-eabi/lib/thumb/v7e-m+fp/hard\libc_nano.a(lib_a-nano-mallinfor.o)
 .ARM.attributes
                0x00000000       0x34 c:/users/spencer/appdata/local/arduino15/packages/adafruit/tools/arm-none-eabi-gcc/9-2019q4/bin/../lib/gcc/arm-none-eabi/9.2.1/../../../../arm-none-eabi/lib/thumb/v7e-m+fp/hard\libc_nano.a(lib_a-nano-mallinfor.o)
 .text          0x00000000        0x0 c:/users/spencer/appdata/local/arduino15/packages/adafruit/tools/arm-none-eabi-gcc/9-2019q4/bin/../lib/gcc/arm-none-eabi/9.2.1/../../../../arm-none-eabi/lib/thumb/v7e-m+fp/hard\libc_nano.a(lib_a-nano-mallocr.o)
 .data          0x00000000        0x0 c:/users/spencer/appdata/local/arduino15/packages/adafruit/tools/arm-none-eabi-gcc/9-2019q4/bin/../lib/gcc/arm-none-eabi/9.2.1/../../../../arm-none-eabi/lib/thumb/v7e-m+fp/hard\libc_nano.a(lib_a-nano-mallocr.o)
 .bss           0x00000000        0x0 c:/users/spencer/appdata/local/arduino15/packages/adafruit/tools/arm-none-eabi-gcc/9-2019q4/bin/../lib/gcc/arm-none-eabi/9.2.1/../../../../arm-none-eabi/lib/thumb/v7e-m+fp/hard\libc_nano.a(lib_a-nano-mallocr.o)
 .text          0x00000000        0x0 c:/users/spencer/appdata/local/arduino15/packages/adafruit/tools/arm-none-eabi-gcc/9-2019q4/bin/../lib/gcc/arm-none-eabi/9.2.1/../../../../arm-none-eabi/lib/thumb/v7e-m+fp/hard\libc_nano.a(lib_a-nano-malloptr.o)
 .data          0x00000000        0x0 c:/users/spencer/appdata/local/arduino15/packages/adafruit/tools/arm-none-eabi-gcc/9-2019q4/bin/../lib/gcc/arm-none-eabi/9.2.1/../../../../arm-none-eabi/lib/thumb/v7e-m+fp/hard\libc_nano.a(lib_a-nano-malloptr.o)
 .bss           0x00000000        0x0 c:/users/spencer/appdata/local/arduino15/packages/adafruit/tools/arm-none-eabi-gcc/9-2019q4/bin/../lib/gcc/arm-none-eabi/9.2.1/../../../../arm-none-eabi/lib/thumb/v7e-m+fp/hard\libc_nano.a(lib_a-nano-malloptr.o)
 .text._mallopt_r
                0x00000000        0x4 c:/users/spencer/appdata/local/arduino15/packages/adafruit/tools/arm-none-eabi-gcc/9-2019q4/bin/../lib/gcc/arm-none-eabi/9.2.1/../../../../arm-none-eabi/lib/thumb/v7e-m+fp/hard\libc_nano.a(lib_a-nano-malloptr.o)
 .debug_frame   0x00000000       0x20 c:/users/spencer/appdata/local/arduino15/packages/adafruit/tools/arm-none-eabi-gcc/9-2019q4/bin/../lib/gcc/arm-none-eabi/9.2.1/../../../../arm-none-eabi/lib/thumb/v7e-m+fp/hard\libc_nano.a(lib_a-nano-malloptr.o)
 .ARM.attributes
                0x00000000       0x34 c:/users/spencer/appdata/local/arduino15/packages/adafruit/tools/arm-none-eabi-gcc/9-2019q4/bin/../lib/gcc/arm-none-eabi/9.2.1/../../../../arm-none-eabi/lib/thumb/v7e-m+fp/hard\libc_nano.a(lib_a-nano-malloptr.o)
 .text          0x00000000        0x0 c:/users/spencer/appdata/local/arduino15/packages/adafruit/tools/arm-none-eabi-gcc/9-2019q4/bin/../lib/gcc/arm-none-eabi/9.2.1/../../../../arm-none-eabi/lib/thumb/v7e-m+fp/hard\libc_nano.a(lib_a-nano-mallstatsr.o)
 .data          0x00000000        0x0 c:/users/spencer/appdata/local/arduino15/packages/adafruit/tools/arm-none-eabi-gcc/9-2019q4/bin/../lib/gcc/arm-none-eabi/9.2.1/../../../../arm-none-eabi/lib/thumb/v7e-m+fp/hard\libc_nano.a(lib_a-nano-mallstatsr.o)
 .bss           0x00000000        0x0 c:/users/spencer/appdata/local/arduino15/packages/adafruit/tools/arm-none-eabi-gcc/9-2019q4/bin/../lib/gcc/arm-none-eabi/9.2.1/../../../../arm-none-eabi/lib/thumb/v7e-m+fp/hard\libc_nano.a(lib_a-nano-mallstatsr.o)
 .rodata._malloc_stats_r.str1.1
                0x00000000       0x4b c:/users/spencer/appdata/local/arduino15/packages/adafruit/tools/arm-none-eabi-gcc/9-2019q4/bin/../lib/gcc/arm-none-eabi/9.2.1/../../../../arm-none-eabi/lib/thumb/v7e-m+fp/hard\libc_nano.a(lib_a-nano-mallstatsr.o)
 .text._malloc_stats_r
                0x00000000       0x50 c:/users/spencer/appdata/local/arduino15/packages/adafruit/tools/arm-none-eabi-gcc/9-2019q4/bin/../lib/gcc/arm-none-eabi/9.2.1/../../../../arm-none-eabi/lib/thumb/v7e-m+fp/hard\libc_nano.a(lib_a-nano-mallstatsr.o)
 .debug_frame   0x00000000       0x38 c:/users/spencer/appdata/local/arduino15/packages/adafruit/tools/arm-none-eabi-gcc/9-2019q4/bin/../lib/gcc/arm-none-eabi/9.2.1/../../../../arm-none-eabi/lib/thumb/v7e-m+fp/hard\libc_nano.a(lib_a-nano-mallstatsr.o)
 .ARM.attributes
                0x00000000       0x34 c:/users/spencer/appdata/local/arduino15/packages/adafruit/tools/arm-none-eabi-gcc/9-2019q4/bin/../lib/gcc/arm-none-eabi/9.2.1/../../../../arm-none-eabi/lib/thumb/v7e-m+fp/hard\libc_nano.a(lib_a-nano-mallstatsr.o)
 .text          0x00000000        0x0 c:/users/spencer/appdata/local/arduino15/packages/adafruit/tools/arm-none-eabi-gcc/9-2019q4/bin/../lib/gcc/arm-none-eabi/9.2.1/../../../../arm-none-eabi/lib/thumb/v7e-m+fp/hard\libc_nano.a(lib_a-nano-vfprintf_float.o)
 .data          0x00000000        0x0 c:/users/spencer/appdata/local/arduino15/packages/adafruit/tools/arm-none-eabi-gcc/9-2019q4/bin/../lib/gcc/arm-none-eabi/9.2.1/../../../../arm-none-eabi/lib/thumb/v7e-m+fp/hard\libc_nano.a(lib_a-nano-vfprintf_float.o)
 .bss           0x00000000        0x0 c:/users/spencer/appdata/local/arduino15/packages/adafruit/tools/arm-none-eabi-gcc/9-2019q4/bin/../lib/gcc/arm-none-eabi/9.2.1/../../../../arm-none-eabi/lib/thumb/v7e-m+fp/hard\libc_nano.a(lib_a-nano-vfprintf_float.o)
 .text          0x00000000        0x0 c:/users/spencer/appdata/local/arduino15/packages/adafruit/tools/arm-none-eabi-gcc/9-2019q4/bin/../lib/gcc/arm-none-eabi/9.2.1/../../../../arm-none-eabi/lib/thumb/v7e-m+fp/hard\libc_nano.a(lib_a-nano-vfprintf_i.o)
 .data          0x00000000        0x0 c:/users/spencer/appdata/local/arduino15/packages/adafruit/tools/arm-none-eabi-gcc/9-2019q4/bin/../lib/gcc/arm-none-eabi/9.2.1/../../../../arm-none-eabi/lib/thumb/v7e-m+fp/hard\libc_nano.a(lib_a-nano-vfprintf_i.o)
 .bss           0x00000000        0x0 c:/users/spencer/appdata/local/arduino15/packages/adafruit/tools/arm-none-eabi-gcc/9-2019q4/bin/../lib/gcc/arm-none-eabi/9.2.1/../../../../arm-none-eabi/lib/thumb/v7e-m+fp/hard\libc_nano.a(lib_a-nano-vfprintf_i.o)
 .text          0x00000000        0x0 c:/users/spencer/appdata/local/arduino15/packages/adafruit/tools/arm-none-eabi-gcc/9-2019q4/bin/../lib/gcc/arm-none-eabi/9.2.1/../../../../arm-none-eabi/lib/thumb/v7e-m+fp/hard\libc_nano.a(lib_a-printf.o)
 .data          0x00000000        0x0 c:/users/spencer/appdata/local/arduino15/packages/adafruit/tools/arm-none-eabi-gcc/9-2019q4/bin/../lib/gcc/arm-none-eabi/9.2.1/../../../../arm-none-eabi/lib/thumb/v7e-m+fp/hard\libc_nano.a(lib_a-printf.o)
 .bss           0x00000000        0x0 c:/users/spencer/appdata/local/arduino15/packages/adafruit/tools/arm-none-eabi-gcc/9-2019q4/bin/../lib/gcc/arm-none-eabi/9.2.1/../../../../arm-none-eabi/lib/thumb/v7e-m+fp/hard\libc_nano.a(lib_a-printf.o)
 .text._printf_r
                0x00000000       0x28 c:/users/spencer/appdata/local/arduino15/packages/adafruit/tools/arm-none-eabi-gcc/9-2019q4/bin/../lib/gcc/arm-none-eabi/9.2.1/../../../../arm-none-eabi/lib/thumb/v7e-m+fp/hard\libc_nano.a(lib_a-printf.o)
 .text          0x00000000        0x0 c:/users/spencer/appdata/local/arduino15/packages/adafruit/tools/arm-none-eabi-gcc/9-2019q4/bin/../lib/gcc/arm-none-eabi/9.2.1/../../../../arm-none-eabi/lib/thumb/v7e-m+fp/hard\libc_nano.a(lib_a-putchar.o)
 .data          0x00000000        0x0 c:/users/spencer/appdata/local/arduino15/packages/adafruit/tools/arm-none-eabi-gcc/9-2019q4/bin/../lib/gcc/arm-none-eabi/9.2.1/../../../../arm-none-eabi/lib/thumb/v7e-m+fp/hard\libc_nano.a(lib_a-putchar.o)
 .bss           0x00000000        0x0 c:/users/spencer/appdata/local/arduino15/packages/adafruit/tools/arm-none-eabi-gcc/9-2019q4/bin/../lib/gcc/arm-none-eabi/9.2.1/../../../../arm-none-eabi/lib/thumb/v7e-m+fp/hard\libc_nano.a(lib_a-putchar.o)
 .text._putchar_r
                0x00000000       0x20 c:/users/spencer/appdata/local/arduino15/packages/adafruit/tools/arm-none-eabi-gcc/9-2019q4/bin/../lib/gcc/arm-none-eabi/9.2.1/../../../../arm-none-eabi/lib/thumb/v7e-m+fp/hard\libc_nano.a(lib_a-putchar.o)
 .text          0x00000000        0x0 c:/users/spencer/appdata/local/arduino15/packages/adafruit/tools/arm-none-eabi-gcc/9-2019q4/bin/../lib/gcc/arm-none-eabi/9.2.1/../../../../arm-none-eabi/lib/thumb/v7e-m+fp/hard\libc_nano.a(lib_a-puts.o)
 .data          0x00000000        0x0 c:/users/spencer/appdata/local/arduino15/packages/adafruit/tools/arm-none-eabi-gcc/9-2019q4/bin/../lib/gcc/arm-none-eabi/9.2.1/../../../../arm-none-eabi/lib/thumb/v7e-m+fp/hard\libc_nano.a(lib_a-puts.o)
 .bss           0x00000000        0x0 c:/users/spencer/appdata/local/arduino15/packages/adafruit/tools/arm-none-eabi-gcc/9-2019q4/bin/../lib/gcc/arm-none-eabi/9.2.1/../../../../arm-none-eabi/lib/thumb/v7e-m+fp/hard\libc_nano.a(lib_a-puts.o)
 .text          0x00000000        0x0 c:/users/spencer/appdata/local/arduino15/packages/adafruit/tools/arm-none-eabi-gcc/9-2019q4/bin/../lib/gcc/arm-none-eabi/9.2.1/../../../../arm-none-eabi/lib/thumb/v7e-m+fp/hard\libc_nano.a(lib_a-sbrkr.o)
 .data          0x00000000        0x0 c:/users/spencer/appdata/local/arduino15/packages/adafruit/tools/arm-none-eabi-gcc/9-2019q4/bin/../lib/gcc/arm-none-eabi/9.2.1/../../../../arm-none-eabi/lib/thumb/v7e-m+fp/hard\libc_nano.a(lib_a-sbrkr.o)
 .bss           0x00000000        0x0 c:/users/spencer/appdata/local/arduino15/packages/adafruit/tools/arm-none-eabi-gcc/9-2019q4/bin/../lib/gcc/arm-none-eabi/9.2.1/../../../../arm-none-eabi/lib/thumb/v7e-m+fp/hard\libc_nano.a(lib_a-sbrkr.o)
 .text          0x00000000        0x0 c:/users/spencer/appdata/local/arduino15/packages/adafruit/tools/arm-none-eabi-gcc/9-2019q4/bin/../lib/gcc/arm-none-eabi/9.2.1/../../../../arm-none-eabi/lib/thumb/v7e-m+fp/hard\libc_nano.a(lib_a-sprintf.o)
 .data          0x00000000        0x0 c:/users/spencer/appdata/local/arduino15/packages/adafruit/tools/arm-none-eabi-gcc/9-2019q4/bin/../lib/gcc/arm-none-eabi/9.2.1/../../../../arm-none-eabi/lib/thumb/v7e-m+fp/hard\libc_nano.a(lib_a-sprintf.o)
 .bss           0x00000000        0x0 c:/users/spencer/appdata/local/arduino15/packages/adafruit/tools/arm-none-eabi-gcc/9-2019q4/bin/../lib/gcc/arm-none-eabi/9.2.1/../../../../arm-none-eabi/lib/thumb/v7e-m+fp/hard\libc_nano.a(lib_a-sprintf.o)
 .text._sprintf_r
                0x00000000       0x38 c:/users/spencer/appdata/local/arduino15/packages/adafruit/tools/arm-none-eabi-gcc/9-2019q4/bin/../lib/gcc/arm-none-eabi/9.2.1/../../../../arm-none-eabi/lib/thumb/v7e-m+fp/hard\libc_nano.a(lib_a-sprintf.o)
 .text          0x00000000        0x0 c:/users/spencer/appdata/local/arduino15/packages/adafruit/tools/arm-none-eabi-gcc/9-2019q4/bin/../lib/gcc/arm-none-eabi/9.2.1/../../../../arm-none-eabi/lib/thumb/v7e-m+fp/hard\libc_nano.a(lib_a-stpcpy.o)
 .data          0x00000000        0x0 c:/users/spencer/appdata/local/arduino15/packages/adafruit/tools/arm-none-eabi-gcc/9-2019q4/bin/../lib/gcc/arm-none-eabi/9.2.1/../../../../arm-none-eabi/lib/thumb/v7e-m+fp/hard\libc_nano.a(lib_a-stpcpy.o)
 .bss           0x00000000        0x0 c:/users/spencer/appdata/local/arduino15/packages/adafruit/tools/arm-none-eabi-gcc/9-2019q4/bin/../lib/gcc/arm-none-eabi/9.2.1/../../../../arm-none-eabi/lib/thumb/v7e-m+fp/hard\libc_nano.a(lib_a-stpcpy.o)
 .text.stpcpy   0x00000000       0x12 c:/users/spencer/appdata/local/arduino15/packages/adafruit/tools/arm-none-eabi-gcc/9-2019q4/bin/../lib/gcc/arm-none-eabi/9.2.1/../../../../arm-none-eabi/lib/thumb/v7e-m+fp/hard\libc_nano.a(lib_a-stpcpy.o)
 .debug_frame   0x00000000       0x20 c:/users/spencer/appdata/local/arduino15/packages/adafruit/tools/arm-none-eabi-gcc/9-2019q4/bin/../lib/gcc/arm-none-eabi/9.2.1/../../../../arm-none-eabi/lib/thumb/v7e-m+fp/hard\libc_nano.a(lib_a-stpcpy.o)
 .ARM.attributes
                0x00000000       0x34 c:/users/spencer/appdata/local/arduino15/packages/adafruit/tools/arm-none-eabi-gcc/9-2019q4/bin/../lib/gcc/arm-none-eabi/9.2.1/../../../../arm-none-eabi/lib/thumb/v7e-m+fp/hard\libc_nano.a(lib_a-stpcpy.o)
 .data          0x00000000        0x0 c:/users/spencer/appdata/local/arduino15/packages/adafruit/tools/arm-none-eabi-gcc/9-2019q4/bin/../lib/gcc/arm-none-eabi/9.2.1/../../../../arm-none-eabi/lib/thumb/v7e-m+fp/hard\libc_nano.a(lib_a-strlen.o)
 .bss           0x00000000        0x0 c:/users/spencer/appdata/local/arduino15/packages/adafruit/tools/arm-none-eabi-gcc/9-2019q4/bin/../lib/gcc/arm-none-eabi/9.2.1/../../../../arm-none-eabi/lib/thumb/v7e-m+fp/hard\libc_nano.a(lib_a-strlen.o)
 .text          0x00000000        0x0 c:/users/spencer/appdata/local/arduino15/packages/adafruit/tools/arm-none-eabi-gcc/9-2019q4/bin/../lib/gcc/arm-none-eabi/9.2.1/../../../../arm-none-eabi/lib/thumb/v7e-m+fp/hard\libc_nano.a(lib_a-wbuf.o)
 .data          0x00000000        0x0 c:/users/spencer/appdata/local/arduino15/packages/adafruit/tools/arm-none-eabi-gcc/9-2019q4/bin/../lib/gcc/arm-none-eabi/9.2.1/../../../../arm-none-eabi/lib/thumb/v7e-m+fp/hard\libc_nano.a(lib_a-wbuf.o)
 .bss           0x00000000        0x0 c:/users/spencer/appdata/local/arduino15/packages/adafruit/tools/arm-none-eabi-gcc/9-2019q4/bin/../lib/gcc/arm-none-eabi/9.2.1/../../../../arm-none-eabi/lib/thumb/v7e-m+fp/hard\libc_nano.a(lib_a-wbuf.o)
 .text.__swbuf  0x00000000       0x10 c:/users/spencer/appdata/local/arduino15/packages/adafruit/tools/arm-none-eabi-gcc/9-2019q4/bin/../lib/gcc/arm-none-eabi/9.2.1/../../../../arm-none-eabi/lib/thumb/v7e-m+fp/hard\libc_nano.a(lib_a-wbuf.o)
 .text          0x00000000        0x0 c:/users/spencer/appdata/local/arduino15/packages/adafruit/tools/arm-none-eabi-gcc/9-2019q4/bin/../lib/gcc/arm-none-eabi/9.2.1/../../../../arm-none-eabi/lib/thumb/v7e-m+fp/hard\libc_nano.a(lib_a-wsetup.o)
 .data          0x00000000        0x0 c:/users/spencer/appdata/local/arduino15/packages/adafruit/tools/arm-none-eabi-gcc/9-2019q4/bin/../lib/gcc/arm-none-eabi/9.2.1/../../../../arm-none-eabi/lib/thumb/v7e-m+fp/hard\libc_nano.a(lib_a-wsetup.o)
 .bss           0x00000000        0x0 c:/users/spencer/appdata/local/arduino15/packages/adafruit/tools/arm-none-eabi-gcc/9-2019q4/bin/../lib/gcc/arm-none-eabi/9.2.1/../../../../arm-none-eabi/lib/thumb/v7e-m+fp/hard\libc_nano.a(lib_a-wsetup.o)
 .text          0x00000000        0x0 c:/users/spencer/appdata/local/arduino15/packages/adafruit/tools/arm-none-eabi-gcc/9-2019q4/bin/../lib/gcc/arm-none-eabi/9.2.1/../../../../arm-none-eabi/lib/thumb/v7e-m+fp/hard\libc_nano.a(lib_a-ctype_.o)
 .data          0x00000000        0x0 c:/users/spencer/appdata/local/arduino15/packages/adafruit/tools/arm-none-eabi-gcc/9-2019q4/bin/../lib/gcc/arm-none-eabi/9.2.1/../../../../arm-none-eabi/lib/thumb/v7e-m+fp/hard\libc_nano.a(lib_a-ctype_.o)
 .bss           0x00000000        0x0 c:/users/spencer/appdata/local/arduino15/packages/adafruit/tools/arm-none-eabi-gcc/9-2019q4/bin/../lib/gcc/arm-none-eabi/9.2.1/../../../../arm-none-eabi/lib/thumb/v7e-m+fp/hard\libc_nano.a(lib_a-ctype_.o)
 .text          0x00000000        0x0 c:/users/spencer/appdata/local/arduino15/packages/adafruit/tools/arm-none-eabi-gcc/9-2019q4/bin/../lib/gcc/arm-none-eabi/9.2.1/../../../../arm-none-eabi/lib/thumb/v7e-m+fp/hard\libc_nano.a(lib_a-dtoa.o)
 .data          0x00000000        0x0 c:/users/spencer/appdata/local/arduino15/packages/adafruit/tools/arm-none-eabi-gcc/9-2019q4/bin/../lib/gcc/arm-none-eabi/9.2.1/../../../../arm-none-eabi/lib/thumb/v7e-m+fp/hard\libc_nano.a(lib_a-dtoa.o)
 .bss           0x00000000        0x0 c:/users/spencer/appdata/local/arduino15/packages/adafruit/tools/arm-none-eabi-gcc/9-2019q4/bin/../lib/gcc/arm-none-eabi/9.2.1/../../../../arm-none-eabi/lib/thumb/v7e-m+fp/hard\libc_nano.a(lib_a-dtoa.o)
 .text          0x00000000        0x0 c:/users/spencer/appdata/local/arduino15/packages/adafruit/tools/arm-none-eabi-gcc/9-2019q4/bin/../lib/gcc/arm-none-eabi/9.2.1/../../../../arm-none-eabi/lib/thumb/v7e-m+fp/hard\libc_nano.a(lib_a-fflush.o)
 .data          0x00000000        0x0 c:/users/spencer/appdata/local/arduino15/packages/adafruit/tools/arm-none-eabi-gcc/9-2019q4/bin/../lib/gcc/arm-none-eabi/9.2.1/../../../../arm-none-eabi/lib/thumb/v7e-m+fp/hard\libc_nano.a(lib_a-fflush.o)
 .bss           0x00000000        0x0 c:/users/spencer/appdata/local/arduino15/packages/adafruit/tools/arm-none-eabi-gcc/9-2019q4/bin/../lib/gcc/arm-none-eabi/9.2.1/../../../../arm-none-eabi/lib/thumb/v7e-m+fp/hard\libc_nano.a(lib_a-fflush.o)
 .text.fflush   0x00000000       0x24 c:/users/spencer/appdata/local/arduino15/packages/adafruit/tools/arm-none-eabi-gcc/9-2019q4/bin/../lib/gcc/arm-none-eabi/9.2.1/../../../../arm-none-eabi/lib/thumb/v7e-m+fp/hard\libc_nano.a(lib_a-fflush.o)
 .text          0x00000000        0x0 c:/users/spencer/appdata/local/arduino15/packages/adafruit/tools/arm-none-eabi-gcc/9-2019q4/bin/../lib/gcc/arm-none-eabi/9.2.1/../../../../arm-none-eabi/lib/thumb/v7e-m+fp/hard\libc_nano.a(lib_a-findfp.o)
 .data          0x00000000        0x0 c:/users/spencer/appdata/local/arduino15/packages/adafruit/tools/arm-none-eabi-gcc/9-2019q4/bin/../lib/gcc/arm-none-eabi/9.2.1/../../../../arm-none-eabi/lib/thumb/v7e-m+fp/hard\libc_nano.a(lib_a-findfp.o)
 .bss           0x00000000        0x0 c:/users/spencer/appdata/local/arduino15/packages/adafruit/tools/arm-none-eabi-gcc/9-2019q4/bin/../lib/gcc/arm-none-eabi/9.2.1/../../../../arm-none-eabi/lib/thumb/v7e-m+fp/hard\libc_nano.a(lib_a-findfp.o)
 .text.__fp_lock
                0x00000000       0x18 c:/users/spencer/appdata/local/arduino15/packages/adafruit/tools/arm-none-eabi-gcc/9-2019q4/bin/../lib/gcc/arm-none-eabi/9.2.1/../../../../arm-none-eabi/lib/thumb/v7e-m+fp/hard\libc_nano.a(lib_a-findfp.o)
 .text.__fp_unlock
                0x00000000       0x18 c:/users/spencer/appdata/local/arduino15/packages/adafruit/tools/arm-none-eabi-gcc/9-2019q4/bin/../lib/gcc/arm-none-eabi/9.2.1/../../../../arm-none-eabi/lib/thumb/v7e-m+fp/hard\libc_nano.a(lib_a-findfp.o)
 .text._cleanup
                0x00000000        0xc c:/users/spencer/appdata/local/arduino15/packages/adafruit/tools/arm-none-eabi-gcc/9-2019q4/bin/../lib/gcc/arm-none-eabi/9.2.1/../../../../arm-none-eabi/lib/thumb/v7e-m+fp/hard\libc_nano.a(lib_a-findfp.o)
 .text.__fp_lock_all
                0x00000000       0x1c c:/users/spencer/appdata/local/arduino15/packages/adafruit/tools/arm-none-eabi-gcc/9-2019q4/bin/../lib/gcc/arm-none-eabi/9.2.1/../../../../arm-none-eabi/lib/thumb/v7e-m+fp/hard\libc_nano.a(lib_a-findfp.o)
 .text.__fp_unlock_all
                0x00000000       0x1c c:/users/spencer/appdata/local/arduino15/packages/adafruit/tools/arm-none-eabi-gcc/9-2019q4/bin/../lib/gcc/arm-none-eabi/9.2.1/../../../../arm-none-eabi/lib/thumb/v7e-m+fp/hard\libc_nano.a(lib_a-findfp.o)
 .text          0x00000000        0x0 c:/users/spencer/appdata/local/arduino15/packages/adafruit/tools/arm-none-eabi-gcc/9-2019q4/bin/../lib/gcc/arm-none-eabi/9.2.1/../../../../arm-none-eabi/lib/thumb/v7e-m+fp/hard\libc_nano.a(lib_a-fprintf.o)
 .data          0x00000000        0x0 c:/users/spencer/appdata/local/arduino15/packages/adafruit/tools/arm-none-eabi-gcc/9-2019q4/bin/../lib/gcc/arm-none-eabi/9.2.1/../../../../arm-none-eabi/lib/thumb/v7e-m+fp/hard\libc_nano.a(lib_a-fprintf.o)
 .bss           0x00000000        0x0 c:/users/spencer/appdata/local/arduino15/packages/adafruit/tools/arm-none-eabi-gcc/9-2019q4/bin/../lib/gcc/arm-none-eabi/9.2.1/../../../../arm-none-eabi/lib/thumb/v7e-m+fp/hard\libc_nano.a(lib_a-fprintf.o)
 .text._fprintf_r
                0x00000000       0x1a c:/users/spencer/appdata/local/arduino15/packages/adafruit/tools/arm-none-eabi-gcc/9-2019q4/bin/../lib/gcc/arm-none-eabi/9.2.1/../../../../arm-none-eabi/lib/thumb/v7e-m+fp/hard\libc_nano.a(lib_a-fprintf.o)
 .text.fprintf  0x00000000       0x24 c:/users/spencer/appdata/local/arduino15/packages/adafruit/tools/arm-none-eabi-gcc/9-2019q4/bin/../lib/gcc/arm-none-eabi/9.2.1/../../../../arm-none-eabi/lib/thumb/v7e-m+fp/hard\libc_nano.a(lib_a-fprintf.o)
 .debug_frame   0x00000000       0x64 c:/users/spencer/appdata/local/arduino15/packages/adafruit/tools/arm-none-eabi-gcc/9-2019q4/bin/../lib/gcc/arm-none-eabi/9.2.1/../../../../arm-none-eabi/lib/thumb/v7e-m+fp/hard\libc_nano.a(lib_a-fprintf.o)
 .ARM.attributes
                0x00000000       0x34 c:/users/spencer/appdata/local/arduino15/packages/adafruit/tools/arm-none-eabi-gcc/9-2019q4/bin/../lib/gcc/arm-none-eabi/9.2.1/../../../../arm-none-eabi/lib/thumb/v7e-m+fp/hard\libc_nano.a(lib_a-fprintf.o)
 .text          0x00000000        0x0 c:/users/spencer/appdata/local/arduino15/packages/adafruit/tools/arm-none-eabi-gcc/9-2019q4/bin/../lib/gcc/arm-none-eabi/9.2.1/../../../../arm-none-eabi/lib/thumb/v7e-m+fp/hard\libc_nano.a(lib_a-fwalk.o)
 .data          0x00000000        0x0 c:/users/spencer/appdata/local/arduino15/packages/adafruit/tools/arm-none-eabi-gcc/9-2019q4/bin/../lib/gcc/arm-none-eabi/9.2.1/../../../../arm-none-eabi/lib/thumb/v7e-m+fp/hard\libc_nano.a(lib_a-fwalk.o)
 .bss           0x00000000        0x0 c:/users/spencer/appdata/local/arduino15/packages/adafruit/tools/arm-none-eabi-gcc/9-2019q4/bin/../lib/gcc/arm-none-eabi/9.2.1/../../../../arm-none-eabi/lib/thumb/v7e-m+fp/hard\libc_nano.a(lib_a-fwalk.o)
 .text._fwalk   0x00000000       0x3a c:/users/spencer/appdata/local/arduino15/packages/adafruit/tools/arm-none-eabi-gcc/9-2019q4/bin/../lib/gcc/arm-none-eabi/9.2.1/../../../../arm-none-eabi/lib/thumb/v7e-m+fp/hard\libc_nano.a(lib_a-fwalk.o)
 .text          0x00000000        0x0 c:/users/spencer/appdata/local/arduino15/packages/adafruit/tools/arm-none-eabi-gcc/9-2019q4/bin/../lib/gcc/arm-none-eabi/9.2.1/../../../../arm-none-eabi/lib/thumb/v7e-m+fp/hard\libc_nano.a(lib_a-localeconv.o)
 .data          0x00000000        0x0 c:/users/spencer/appdata/local/arduino15/packages/adafruit/tools/arm-none-eabi-gcc/9-2019q4/bin/../lib/gcc/arm-none-eabi/9.2.1/../../../../arm-none-eabi/lib/thumb/v7e-m+fp/hard\libc_nano.a(lib_a-localeconv.o)
 .bss           0x00000000        0x0 c:/users/spencer/appdata/local/arduino15/packages/adafruit/tools/arm-none-eabi-gcc/9-2019q4/bin/../lib/gcc/arm-none-eabi/9.2.1/../../../../arm-none-eabi/lib/thumb/v7e-m+fp/hard\libc_nano.a(lib_a-localeconv.o)
 .text.__localeconv_l
                0x00000000        0x4 c:/users/spencer/appdata/local/arduino15/packages/adafruit/tools/arm-none-eabi-gcc/9-2019q4/bin/../lib/gcc/arm-none-eabi/9.2.1/../../../../arm-none-eabi/lib/thumb/v7e-m+fp/hard\libc_nano.a(lib_a-localeconv.o)
 .text.localeconv
                0x00000000        0x8 c:/users/spencer/appdata/local/arduino15/packages/adafruit/tools/arm-none-eabi-gcc/9-2019q4/bin/../lib/gcc/arm-none-eabi/9.2.1/../../../../arm-none-eabi/lib/thumb/v7e-m+fp/hard\libc_nano.a(lib_a-localeconv.o)
 .text          0x00000000        0x0 c:/users/spencer/appdata/local/arduino15/packages/adafruit/tools/arm-none-eabi-gcc/9-2019q4/bin/../lib/gcc/arm-none-eabi/9.2.1/../../../../arm-none-eabi/lib/thumb/v7e-m+fp/hard\libc_nano.a(lib_a-lock.o)
 .data          0x00000000        0x0 c:/users/spencer/appdata/local/arduino15/packages/adafruit/tools/arm-none-eabi-gcc/9-2019q4/bin/../lib/gcc/arm-none-eabi/9.2.1/../../../../arm-none-eabi/lib/thumb/v7e-m+fp/hard\libc_nano.a(lib_a-lock.o)
 .bss           0x00000000        0x0 c:/users/spencer/appdata/local/arduino15/packages/adafruit/tools/arm-none-eabi-gcc/9-2019q4/bin/../lib/gcc/arm-none-eabi/9.2.1/../../../../arm-none-eabi/lib/thumb/v7e-m+fp/hard\libc_nano.a(lib_a-lock.o)
 .text.__retarget_lock_init
                0x00000000        0x2 c:/users/spencer/appdata/local/arduino15/packages/adafruit/tools/arm-none-eabi-gcc/9-2019q4/bin/../lib/gcc/arm-none-eabi/9.2.1/../../../../arm-none-eabi/lib/thumb/v7e-m+fp/hard\libc_nano.a(lib_a-lock.o)
 .text.__retarget_lock_close
                0x00000000        0x2 c:/users/spencer/appdata/local/arduino15/packages/adafruit/tools/arm-none-eabi-gcc/9-2019q4/bin/../lib/gcc/arm-none-eabi/9.2.1/../../../../arm-none-eabi/lib/thumb/v7e-m+fp/hard\libc_nano.a(lib_a-lock.o)
 .text.__retarget_lock_close_recursive
                0x00000000        0x2 c:/users/spencer/appdata/local/arduino15/packages/adafruit/tools/arm-none-eabi-gcc/9-2019q4/bin/../lib/gcc/arm-none-eabi/9.2.1/../../../../arm-none-eabi/lib/thumb/v7e-m+fp/hard\libc_nano.a(lib_a-lock.o)
 .text.__retarget_lock_acquire
                0x00000000        0x2 c:/users/spencer/appdata/local/arduino15/packages/adafruit/tools/arm-none-eabi-gcc/9-2019q4/bin/../lib/gcc/arm-none-eabi/9.2.1/../../../../arm-none-eabi/lib/thumb/v7e-m+fp/hard\libc_nano.a(lib_a-lock.o)
 .text.__retarget_lock_try_acquire
                0x00000000        0x4 c:/users/spencer/appdata/local/arduino15/packages/adafruit/tools/arm-none-eabi-gcc/9-2019q4/bin/../lib/gcc/arm-none-eabi/9.2.1/../../../../arm-none-eabi/lib/thumb/v7e-m+fp/hard\libc_nano.a(lib_a-lock.o)
 .text.__retarget_lock_try_acquire_recursive
                0x00000000        0x4 c:/users/spencer/appdata/local/arduino15/packages/adafruit/tools/arm-none-eabi-gcc/9-2019q4/bin/../lib/gcc/arm-none-eabi/9.2.1/../../../../arm-none-eabi/lib/thumb/v7e-m+fp/hard\libc_nano.a(lib_a-lock.o)
 .text.__retarget_lock_release
                0x00000000        0x2 c:/users/spencer/appdata/local/arduino15/packages/adafruit/tools/arm-none-eabi-gcc/9-2019q4/bin/../lib/gcc/arm-none-eabi/9.2.1/../../../../arm-none-eabi/lib/thumb/v7e-m+fp/hard\libc_nano.a(lib_a-lock.o)
 .text          0x00000000        0x0 c:/users/spencer/appdata/local/arduino15/packages/adafruit/tools/arm-none-eabi-gcc/9-2019q4/bin/../lib/gcc/arm-none-eabi/9.2.1/../../../../arm-none-eabi/lib/thumb/v7e-m+fp/hard\libc_nano.a(lib_a-makebuf.o)
 .data          0x00000000        0x0 c:/users/spencer/appdata/local/arduino15/packages/adafruit/tools/arm-none-eabi-gcc/9-2019q4/bin/../lib/gcc/arm-none-eabi/9.2.1/../../../../arm-none-eabi/lib/thumb/v7e-m+fp/hard\libc_nano.a(lib_a-makebuf.o)
 .bss           0x00000000        0x0 c:/users/spencer/appdata/local/arduino15/packages/adafruit/tools/arm-none-eabi-gcc/9-2019q4/bin/../lib/gcc/arm-none-eabi/9.2.1/../../../../arm-none-eabi/lib/thumb/v7e-m+fp/hard\libc_nano.a(lib_a-makebuf.o)
 .data          0x00000000        0x0 c:/users/spencer/appdata/local/arduino15/packages/adafruit/tools/arm-none-eabi-gcc/9-2019q4/bin/../lib/gcc/arm-none-eabi/9.2.1/../../../../arm-none-eabi/lib/thumb/v7e-m+fp/hard\libc_nano.a(lib_a-memchr.o)
 .bss           0x00000000        0x0 c:/users/spencer/appdata/local/arduino15/packages/adafruit/tools/arm-none-eabi-gcc/9-2019q4/bin/../lib/gcc/arm-none-eabi/9.2.1/../../../../arm-none-eabi/lib/thumb/v7e-m+fp/hard\libc_nano.a(lib_a-memchr.o)
 .text          0x00000000        0x0 c:/users/spencer/appdata/local/arduino15/packages/adafruit/tools/arm-none-eabi-gcc/9-2019q4/bin/../lib/gcc/arm-none-eabi/9.2.1/../../../../arm-none-eabi/lib/thumb/v7e-m+fp/hard\libc_nano.a(lib_a-mlock.o)
 .data          0x00000000        0x0 c:/users/spencer/appdata/local/arduino15/packages/adafruit/tools/arm-none-eabi-gcc/9-2019q4/bin/../lib/gcc/arm-none-eabi/9.2.1/../../../../arm-none-eabi/lib/thumb/v7e-m+fp/hard\libc_nano.a(lib_a-mlock.o)
 .bss           0x00000000        0x0 c:/users/spencer/appdata/local/arduino15/packages/adafruit/tools/arm-none-eabi-gcc/9-2019q4/bin/../lib/gcc/arm-none-eabi/9.2.1/../../../../arm-none-eabi/lib/thumb/v7e-m+fp/hard\libc_nano.a(lib_a-mlock.o)
 .text          0x00000000        0x0 c:/users/spencer/appdata/local/arduino15/packages/adafruit/tools/arm-none-eabi-gcc/9-2019q4/bin/../lib/gcc/arm-none-eabi/9.2.1/../../../../arm-none-eabi/lib/thumb/v7e-m+fp/hard\libc_nano.a(lib_a-mprec.o)
 .data          0x00000000        0x0 c:/users/spencer/appdata/local/arduino15/packages/adafruit/tools/arm-none-eabi-gcc/9-2019q4/bin/../lib/gcc/arm-none-eabi/9.2.1/../../../../arm-none-eabi/lib/thumb/v7e-m+fp/hard\libc_nano.a(lib_a-mprec.o)
 .bss           0x00000000        0x0 c:/users/spencer/appdata/local/arduino15/packages/adafruit/tools/arm-none-eabi-gcc/9-2019q4/bin/../lib/gcc/arm-none-eabi/9.2.1/../../../../arm-none-eabi/lib/thumb/v7e-m+fp/hard\libc_nano.a(lib_a-mprec.o)
 .text.__s2b    0x00000000       0x7c c:/users/spencer/appdata/local/arduino15/packages/adafruit/tools/arm-none-eabi-gcc/9-2019q4/bin/../lib/gcc/arm-none-eabi/9.2.1/../../../../arm-none-eabi/lib/thumb/v7e-m+fp/hard\libc_nano.a(lib_a-mprec.o)
 .text.__ulp    0x00000000       0x58 c:/users/spencer/appdata/local/arduino15/packages/adafruit/tools/arm-none-eabi-gcc/9-2019q4/bin/../lib/gcc/arm-none-eabi/9.2.1/../../../../arm-none-eabi/lib/thumb/v7e-m+fp/hard\libc_nano.a(lib_a-mprec.o)
 .text.__b2d    0x00000000       0xa0 c:/users/spencer/appdata/local/arduino15/packages/adafruit/tools/arm-none-eabi-gcc/9-2019q4/bin/../lib/gcc/arm-none-eabi/9.2.1/../../../../arm-none-eabi/lib/thumb/v7e-m+fp/hard\libc_nano.a(lib_a-mprec.o)
 .text.__ratio  0x00000000       0x66 c:/users/spencer/appdata/local/arduino15/packages/adafruit/tools/arm-none-eabi-gcc/9-2019q4/bin/../lib/gcc/arm-none-eabi/9.2.1/../../../../arm-none-eabi/lib/thumb/v7e-m+fp/hard\libc_nano.a(lib_a-mprec.o)
 .text._mprec_log10
                0x00000000       0x3c c:/users/spencer/appdata/local/arduino15/packages/adafruit/tools/arm-none-eabi-gcc/9-2019q4/bin/../lib/gcc/arm-none-eabi/9.2.1/../../../../arm-none-eabi/lib/thumb/v7e-m+fp/hard\libc_nano.a(lib_a-mprec.o)
 .text.__copybits
                0x00000000       0x46 c:/users/spencer/appdata/local/arduino15/packages/adafruit/tools/arm-none-eabi-gcc/9-2019q4/bin/../lib/gcc/arm-none-eabi/9.2.1/../../../../arm-none-eabi/lib/thumb/v7e-m+fp/hard\libc_nano.a(lib_a-mprec.o)
 .text.__any_on
                0x00000000       0x42 c:/users/spencer/appdata/local/arduino15/packages/adafruit/tools/arm-none-eabi-gcc/9-2019q4/bin/../lib/gcc/arm-none-eabi/9.2.1/../../../../arm-none-eabi/lib/thumb/v7e-m+fp/hard\libc_nano.a(lib_a-mprec.o)
 .rodata.__mprec_tinytens
                0x00000000       0x28 c:/users/spencer/appdata/local/arduino15/packages/adafruit/tools/arm-none-eabi-gcc/9-2019q4/bin/../lib/gcc/arm-none-eabi/9.2.1/../../../../arm-none-eabi/lib/thumb/v7e-m+fp/hard\libc_nano.a(lib_a-mprec.o)
 .text          0x00000000        0x0 c:/users/spencer/appdata/local/arduino15/packages/adafruit/tools/arm-none-eabi-gcc/9-2019q4/bin/../lib/gcc/arm-none-eabi/9.2.1/../../../../arm-none-eabi/lib/thumb/v7e-m+fp/hard\libc_nano.a(lib_a-nano-callocr.o)
 .data          0x00000000        0x0 c:/users/spencer/appdata/local/arduino15/packages/adafruit/tools/arm-none-eabi-gcc/9-2019q4/bin/../lib/gcc/arm-none-eabi/9.2.1/../../../../arm-none-eabi/lib/thumb/v7e-m+fp/hard\libc_nano.a(lib_a-nano-callocr.o)
 .bss           0x00000000        0x0 c:/users/spencer/appdata/local/arduino15/packages/adafruit/tools/arm-none-eabi-gcc/9-2019q4/bin/../lib/gcc/arm-none-eabi/9.2.1/../../../../arm-none-eabi/lib/thumb/v7e-m+fp/hard\libc_nano.a(lib_a-nano-callocr.o)
 .text          0x00000000        0x0 c:/users/spencer/appdata/local/arduino15/packages/adafruit/tools/arm-none-eabi-gcc/9-2019q4/bin/../lib/gcc/arm-none-eabi/9.2.1/../../../../arm-none-eabi/lib/thumb/v7e-m+fp/hard\libc_nano.a(lib_a-nano-svfprintf.o)
 .data          0x00000000        0x0 c:/users/spencer/appdata/local/arduino15/packages/adafruit/tools/arm-none-eabi-gcc/9-2019q4/bin/../lib/gcc/arm-none-eabi/9.2.1/../../../../arm-none-eabi/lib/thumb/v7e-m+fp/hard\libc_nano.a(lib_a-nano-svfprintf.o)
 .bss           0x00000000        0x0 c:/users/spencer/appdata/local/arduino15/packages/adafruit/tools/arm-none-eabi-gcc/9-2019q4/bin/../lib/gcc/arm-none-eabi/9.2.1/../../../../arm-none-eabi/lib/thumb/v7e-m+fp/hard\libc_nano.a(lib_a-nano-svfprintf.o)
 .text.__ssprint_r
                0x00000000       0xf6 c:/users/spencer/appdata/local/arduino15/packages/adafruit/tools/arm-none-eabi-gcc/9-2019q4/bin/../lib/gcc/arm-none-eabi/9.2.1/../../../../arm-none-eabi/lib/thumb/v7e-m+fp/hard\libc_nano.a(lib_a-nano-svfprintf.o)
 .text          0x00000000        0x0 c:/users/spencer/appdata/local/arduino15/packages/adafruit/tools/arm-none-eabi-gcc/9-2019q4/bin/../lib/gcc/arm-none-eabi/9.2.1/../../../../arm-none-eabi/lib/thumb/v7e-m+fp/hard\libc_nano.a(lib_a-nano-vfprintf.o)
 .data          0x00000000        0x0 c:/users/spencer/appdata/local/arduino15/packages/adafruit/tools/arm-none-eabi-gcc/9-2019q4/bin/../lib/gcc/arm-none-eabi/9.2.1/../../../../arm-none-eabi/lib/thumb/v7e-m+fp/hard\libc_nano.a(lib_a-nano-vfprintf.o)
 .bss           0x00000000        0x0 c:/users/spencer/appdata/local/arduino15/packages/adafruit/tools/arm-none-eabi-gcc/9-2019q4/bin/../lib/gcc/arm-none-eabi/9.2.1/../../../../arm-none-eabi/lib/thumb/v7e-m+fp/hard\libc_nano.a(lib_a-nano-vfprintf.o)
 .text.__sprint_r
                0x00000000       0x1a c:/users/spencer/appdata/local/arduino15/packages/adafruit/tools/arm-none-eabi-gcc/9-2019q4/bin/../lib/gcc/arm-none-eabi/9.2.1/../../../../arm-none-eabi/lib/thumb/v7e-m+fp/hard\libc_nano.a(lib_a-nano-vfprintf.o)
 .text.vfprintf
                0x00000000       0x14 c:/users/spencer/appdata/local/arduino15/packages/adafruit/tools/arm-none-eabi-gcc/9-2019q4/bin/../lib/gcc/arm-none-eabi/9.2.1/../../../../arm-none-eabi/lib/thumb/v7e-m+fp/hard\libc_nano.a(lib_a-nano-vfprintf.o)
 .text          0x00000000        0x0 c:/users/spencer/appdata/local/arduino15/packages/adafruit/tools/arm-none-eabi-gcc/9-2019q4/bin/../lib/gcc/arm-none-eabi/9.2.1/../../../../arm-none-eabi/lib/thumb/v7e-m+fp/hard\libc_nano.a(lib_a-putc.o)
 .data          0x00000000        0x0 c:/users/spencer/appdata/local/arduino15/packages/adafruit/tools/arm-none-eabi-gcc/9-2019q4/bin/../lib/gcc/arm-none-eabi/9.2.1/../../../../arm-none-eabi/lib/thumb/v7e-m+fp/hard\libc_nano.a(lib_a-putc.o)
 .bss           0x00000000        0x0 c:/users/spencer/appdata/local/arduino15/packages/adafruit/tools/arm-none-eabi-gcc/9-2019q4/bin/../lib/gcc/arm-none-eabi/9.2.1/../../../../arm-none-eabi/lib/thumb/v7e-m+fp/hard\libc_nano.a(lib_a-putc.o)
 .text.putc     0x00000000       0x10 c:/users/spencer/appdata/local/arduino15/packages/adafruit/tools/arm-none-eabi-gcc/9-2019q4/bin/../lib/gcc/arm-none-eabi/9.2.1/../../../../arm-none-eabi/lib/thumb/v7e-m+fp/hard\libc_nano.a(lib_a-putc.o)
 .text          0x00000000        0x0 c:/users/spencer/appdata/local/arduino15/packages/adafruit/tools/arm-none-eabi-gcc/9-2019q4/bin/../lib/gcc/arm-none-eabi/9.2.1/../../../../arm-none-eabi/lib/thumb/v7e-m+fp/hard\libc_nano.a(lib_a-reent.o)
 .data          0x00000000        0x0 c:/users/spencer/appdata/local/arduino15/packages/adafruit/tools/arm-none-eabi-gcc/9-2019q4/bin/../lib/gcc/arm-none-eabi/9.2.1/../../../../arm-none-eabi/lib/thumb/v7e-m+fp/hard\libc_nano.a(lib_a-reent.o)
 .bss           0x00000000        0x0 c:/users/spencer/appdata/local/arduino15/packages/adafruit/tools/arm-none-eabi-gcc/9-2019q4/bin/../lib/gcc/arm-none-eabi/9.2.1/../../../../arm-none-eabi/lib/thumb/v7e-m+fp/hard\libc_nano.a(lib_a-reent.o)
 .text.cleanup_glue
                0x00000000       0x1a c:/users/spencer/appdata/local/arduino15/packages/adafruit/tools/arm-none-eabi-gcc/9-2019q4/bin/../lib/gcc/arm-none-eabi/9.2.1/../../../../arm-none-eabi/lib/thumb/v7e-m+fp/hard\libc_nano.a(lib_a-reent.o)
 .text._reclaim_reent
                0x00000000       0xb8 c:/users/spencer/appdata/local/arduino15/packages/adafruit/tools/arm-none-eabi-gcc/9-2019q4/bin/../lib/gcc/arm-none-eabi/9.2.1/../../../../arm-none-eabi/lib/thumb/v7e-m+fp/hard\libc_nano.a(lib_a-reent.o)
 .text          0x00000000        0x0 c:/users/spencer/appdata/local/arduino15/packages/adafruit/tools/arm-none-eabi-gcc/9-2019q4/bin/../lib/gcc/arm-none-eabi/9.2.1/../../../../arm-none-eabi/lib/thumb/v7e-m+fp/hard\libc_nano.a(lib_a-stdio.o)
 .data          0x00000000        0x0 c:/users/spencer/appdata/local/arduino15/packages/adafruit/tools/arm-none-eabi-gcc/9-2019q4/bin/../lib/gcc/arm-none-eabi/9.2.1/../../../../arm-none-eabi/lib/thumb/v7e-m+fp/hard\libc_nano.a(lib_a-stdio.o)
 .bss           0x00000000        0x0 c:/users/spencer/appdata/local/arduino15/packages/adafruit/tools/arm-none-eabi-gcc/9-2019q4/bin/../lib/gcc/arm-none-eabi/9.2.1/../../../../arm-none-eabi/lib/thumb/v7e-m+fp/hard\libc_nano.a(lib_a-stdio.o)
 .text.__seofread
                0x00000000        0x4 c:/users/spencer/appdata/local/arduino15/packages/adafruit/tools/arm-none-eabi-gcc/9-2019q4/bin/../lib/gcc/arm-none-eabi/9.2.1/../../../../arm-none-eabi/lib/thumb/v7e-m+fp/hard\libc_nano.a(lib_a-stdio.o)
 .text          0x00000000        0x0 c:/users/spencer/appdata/local/arduino15/packages/adafruit/tools/arm-none-eabi-gcc/9-2019q4/bin/../lib/gcc/arm-none-eabi/9.2.1/../../../../arm-none-eabi/lib/thumb/v7e-m+fp/hard\libc_nano.a(lib_a-writer.o)
 .data          0x00000000        0x0 c:/users/spencer/appdata/local/arduino15/packages/adafruit/tools/arm-none-eabi-gcc/9-2019q4/bin/../lib/gcc/arm-none-eabi/9.2.1/../../../../arm-none-eabi/lib/thumb/v7e-m+fp/hard\libc_nano.a(lib_a-writer.o)
 .bss           0x00000000        0x0 c:/users/spencer/appdata/local/arduino15/packages/adafruit/tools/arm-none-eabi-gcc/9-2019q4/bin/../lib/gcc/arm-none-eabi/9.2.1/../../../../arm-none-eabi/lib/thumb/v7e-m+fp/hard\libc_nano.a(lib_a-writer.o)
 .text          0x00000000        0x0 c:/users/spencer/appdata/local/arduino15/packages/adafruit/tools/arm-none-eabi-gcc/9-2019q4/bin/../lib/gcc/arm-none-eabi/9.2.1/../../../../arm-none-eabi/lib/thumb/v7e-m+fp/hard\libc_nano.a(lib_a-closer.o)
 .data          0x00000000        0x0 c:/users/spencer/appdata/local/arduino15/packages/adafruit/tools/arm-none-eabi-gcc/9-2019q4/bin/../lib/gcc/arm-none-eabi/9.2.1/../../../../arm-none-eabi/lib/thumb/v7e-m+fp/hard\libc_nano.a(lib_a-closer.o)
 .bss           0x00000000        0x0 c:/users/spencer/appdata/local/arduino15/packages/adafruit/tools/arm-none-eabi-gcc/9-2019q4/bin/../lib/gcc/arm-none-eabi/9.2.1/../../../../arm-none-eabi/lib/thumb/v7e-m+fp/hard\libc_nano.a(lib_a-closer.o)
 .text          0x00000000        0x0 c:/users/spencer/appdata/local/arduino15/packages/adafruit/tools/arm-none-eabi-gcc/9-2019q4/bin/../lib/gcc/arm-none-eabi/9.2.1/../../../../arm-none-eabi/lib/thumb/v7e-m+fp/hard\libc_nano.a(lib_a-fstatr.o)
 .data          0x00000000        0x0 c:/users/spencer/appdata/local/arduino15/packages/adafruit/tools/arm-none-eabi-gcc/9-2019q4/bin/../lib/gcc/arm-none-eabi/9.2.1/../../../../arm-none-eabi/lib/thumb/v7e-m+fp/hard\libc_nano.a(lib_a-fstatr.o)
 .bss           0x00000000        0x0 c:/users/spencer/appdata/local/arduino15/packages/adafruit/tools/arm-none-eabi-gcc/9-2019q4/bin/../lib/gcc/arm-none-eabi/9.2.1/../../../../arm-none-eabi/lib/thumb/v7e-m+fp/hard\libc_nano.a(lib_a-fstatr.o)
 .text          0x00000000        0x0 c:/users/spencer/appdata/local/arduino15/packages/adafruit/tools/arm-none-eabi-gcc/9-2019q4/bin/../lib/gcc/arm-none-eabi/9.2.1/../../../../arm-none-eabi/lib/thumb/v7e-m+fp/hard\libc_nano.a(lib_a-fvwrite.o)
 .data          0x00000000        0x0 c:/users/spencer/appdata/local/arduino15/packages/adafruit/tools/arm-none-eabi-gcc/9-2019q4/bin/../lib/gcc/arm-none-eabi/9.2.1/../../../../arm-none-eabi/lib/thumb/v7e-m+fp/hard\libc_nano.a(lib_a-fvwrite.o)
 .bss           0x00000000        0x0 c:/users/spencer/appdata/local/arduino15/packages/adafruit/tools/arm-none-eabi-gcc/9-2019q4/bin/../lib/gcc/arm-none-eabi/9.2.1/../../../../arm-none-eabi/lib/thumb/v7e-m+fp/hard\libc_nano.a(lib_a-fvwrite.o)
 .text.__sfvwrite_r
                0x00000000      0x294 c:/users/spencer/appdata/local/arduino15/packages/adafruit/tools/arm-none-eabi-gcc/9-2019q4/bin/../lib/gcc/arm-none-eabi/9.2.1/../../../../arm-none-eabi/lib/thumb/v7e-m+fp/hard\libc_nano.a(lib_a-fvwrite.o)
 .debug_frame   0x00000000       0x3c c:/users/spencer/appdata/local/arduino15/packages/adafruit/tools/arm-none-eabi-gcc/9-2019q4/bin/../lib/gcc/arm-none-eabi/9.2.1/../../../../arm-none-eabi/lib/thumb/v7e-m+fp/hard\libc_nano.a(lib_a-fvwrite.o)
 .ARM.attributes
                0x00000000       0x34 c:/users/spencer/appdata/local/arduino15/packages/adafruit/tools/arm-none-eabi-gcc/9-2019q4/bin/../lib/gcc/arm-none-eabi/9.2.1/../../../../arm-none-eabi/lib/thumb/v7e-m+fp/hard\libc_nano.a(lib_a-fvwrite.o)
 .text          0x00000000        0x0 c:/users/spencer/appdata/local/arduino15/packages/adafruit/tools/arm-none-eabi-gcc/9-2019q4/bin/../lib/gcc/arm-none-eabi/9.2.1/../../../../arm-none-eabi/lib/thumb/v7e-m+fp/hard\libc_nano.a(lib_a-isattyr.o)
 .data          0x00000000        0x0 c:/users/spencer/appdata/local/arduino15/packages/adafruit/tools/arm-none-eabi-gcc/9-2019q4/bin/../lib/gcc/arm-none-eabi/9.2.1/../../../../arm-none-eabi/lib/thumb/v7e-m+fp/hard\libc_nano.a(lib_a-isattyr.o)
 .bss           0x00000000        0x0 c:/users/spencer/appdata/local/arduino15/packages/adafruit/tools/arm-none-eabi-gcc/9-2019q4/bin/../lib/gcc/arm-none-eabi/9.2.1/../../../../arm-none-eabi/lib/thumb/v7e-m+fp/hard\libc_nano.a(lib_a-isattyr.o)
 .text          0x00000000        0x0 c:/users/spencer/appdata/local/arduino15/packages/adafruit/tools/arm-none-eabi-gcc/9-2019q4/bin/../lib/gcc/arm-none-eabi/9.2.1/../../../../arm-none-eabi/lib/thumb/v7e-m+fp/hard\libc_nano.a(lib_a-locale.o)
 .data          0x00000000        0x0 c:/users/spencer/appdata/local/arduino15/packages/adafruit/tools/arm-none-eabi-gcc/9-2019q4/bin/../lib/gcc/arm-none-eabi/9.2.1/../../../../arm-none-eabi/lib/thumb/v7e-m+fp/hard\libc_nano.a(lib_a-locale.o)
 .bss           0x00000000        0x0 c:/users/spencer/appdata/local/arduino15/packages/adafruit/tools/arm-none-eabi-gcc/9-2019q4/bin/../lib/gcc/arm-none-eabi/9.2.1/../../../../arm-none-eabi/lib/thumb/v7e-m+fp/hard\libc_nano.a(lib_a-locale.o)
 .text._setlocale_r
                0x00000000       0x40 c:/users/spencer/appdata/local/arduino15/packages/adafruit/tools/arm-none-eabi-gcc/9-2019q4/bin/../lib/gcc/arm-none-eabi/9.2.1/../../../../arm-none-eabi/lib/thumb/v7e-m+fp/hard\libc_nano.a(lib_a-locale.o)
 .text.__locale_mb_cur_max
                0x00000000        0xc c:/users/spencer/appdata/local/arduino15/packages/adafruit/tools/arm-none-eabi-gcc/9-2019q4/bin/../lib/gcc/arm-none-eabi/9.2.1/../../../../arm-none-eabi/lib/thumb/v7e-m+fp/hard\libc_nano.a(lib_a-locale.o)
 .text.setlocale
                0x00000000       0x10 c:/users/spencer/appdata/local/arduino15/packages/adafruit/tools/arm-none-eabi-gcc/9-2019q4/bin/../lib/gcc/arm-none-eabi/9.2.1/../../../../arm-none-eabi/lib/thumb/v7e-m+fp/hard\libc_nano.a(lib_a-locale.o)
 .bss._PathLocale
                0x00000000        0x4 c:/users/spencer/appdata/local/arduino15/packages/adafruit/tools/arm-none-eabi-gcc/9-2019q4/bin/../lib/gcc/arm-none-eabi/9.2.1/../../../../arm-none-eabi/lib/thumb/v7e-m+fp/hard\libc_nano.a(lib_a-locale.o)
 .text          0x00000000        0x0 c:/users/spencer/appdata/local/arduino15/packages/adafruit/tools/arm-none-eabi-gcc/9-2019q4/bin/../lib/gcc/arm-none-eabi/9.2.1/../../../../arm-none-eabi/lib/thumb/v7e-m+fp/hard\libc_nano.a(lib_a-lseekr.o)
 .data          0x00000000        0x0 c:/users/spencer/appdata/local/arduino15/packages/adafruit/tools/arm-none-eabi-gcc/9-2019q4/bin/../lib/gcc/arm-none-eabi/9.2.1/../../../../arm-none-eabi/lib/thumb/v7e-m+fp/hard\libc_nano.a(lib_a-lseekr.o)
 .bss           0x00000000        0x0 c:/users/spencer/appdata/local/arduino15/packages/adafruit/tools/arm-none-eabi-gcc/9-2019q4/bin/../lib/gcc/arm-none-eabi/9.2.1/../../../../arm-none-eabi/lib/thumb/v7e-m+fp/hard\libc_nano.a(lib_a-lseekr.o)
 .text          0x00000000        0x0 c:/users/spencer/appdata/local/arduino15/packages/adafruit/tools/arm-none-eabi-gcc/9-2019q4/bin/../lib/gcc/arm-none-eabi/9.2.1/../../../../arm-none-eabi/lib/thumb/v7e-m+fp/hard\libc_nano.a(lib_a-mbtowc_r.o)
 .data          0x00000000        0x0 c:/users/spencer/appdata/local/arduino15/packages/adafruit/tools/arm-none-eabi-gcc/9-2019q4/bin/../lib/gcc/arm-none-eabi/9.2.1/../../../../arm-none-eabi/lib/thumb/v7e-m+fp/hard\libc_nano.a(lib_a-mbtowc_r.o)
 .bss           0x00000000        0x0 c:/users/spencer/appdata/local/arduino15/packages/adafruit/tools/arm-none-eabi-gcc/9-2019q4/bin/../lib/gcc/arm-none-eabi/9.2.1/../../../../arm-none-eabi/lib/thumb/v7e-m+fp/hard\libc_nano.a(lib_a-mbtowc_r.o)
 .text._mbtowc_r
                0x00000000       0x14 c:/users/spencer/appdata/local/arduino15/packages/adafruit/tools/arm-none-eabi-gcc/9-2019q4/bin/../lib/gcc/arm-none-eabi/9.2.1/../../../../arm-none-eabi/lib/thumb/v7e-m+fp/hard\libc_nano.a(lib_a-mbtowc_r.o)
 .text          0x00000000        0x0 c:/users/spencer/appdata/local/arduino15/packages/adafruit/tools/arm-none-eabi-gcc/9-2019q4/bin/../lib/gcc/arm-none-eabi/9.2.1/../../../../arm-none-eabi/lib/thumb/v7e-m+fp/hard\libc_nano.a(lib_a-memmove.o)
 .data          0x00000000        0x0 c:/users/spencer/appdata/local/arduino15/packages/adafruit/tools/arm-none-eabi-gcc/9-2019q4/bin/../lib/gcc/arm-none-eabi/9.2.1/../../../../arm-none-eabi/lib/thumb/v7e-m+fp/hard\libc_nano.a(lib_a-memmove.o)
 .bss           0x00000000        0x0 c:/users/spencer/appdata/local/arduino15/packages/adafruit/tools/arm-none-eabi-gcc/9-2019q4/bin/../lib/gcc/arm-none-eabi/9.2.1/../../../../arm-none-eabi/lib/thumb/v7e-m+fp/hard\libc_nano.a(lib_a-memmove.o)
 .text          0x00000000        0x0 c:/users/spencer/appdata/local/arduino15/packages/adafruit/tools/arm-none-eabi-gcc/9-2019q4/bin/../lib/gcc/arm-none-eabi/9.2.1/../../../../arm-none-eabi/lib/thumb/v7e-m+fp/hard\libc_nano.a(lib_a-nano-reallocr.o)
 .data          0x00000000        0x0 c:/users/spencer/appdata/local/arduino15/packages/adafruit/tools/arm-none-eabi-gcc/9-2019q4/bin/../lib/gcc/arm-none-eabi/9.2.1/../../../../arm-none-eabi/lib/thumb/v7e-m+fp/hard\libc_nano.a(lib_a-nano-reallocr.o)
 .bss           0x00000000        0x0 c:/users/spencer/appdata/local/arduino15/packages/adafruit/tools/arm-none-eabi-gcc/9-2019q4/bin/../lib/gcc/arm-none-eabi/9.2.1/../../../../arm-none-eabi/lib/thumb/v7e-m+fp/hard\libc_nano.a(lib_a-nano-reallocr.o)
 .text          0x00000000        0x0 c:/users/spencer/appdata/local/arduino15/packages/adafruit/tools/arm-none-eabi-gcc/9-2019q4/bin/../lib/gcc/arm-none-eabi/9.2.1/../../../../arm-none-eabi/lib/thumb/v7e-m+fp/hard\libc_nano.a(lib_a-readr.o)
 .data          0x00000000        0x0 c:/users/spencer/appdata/local/arduino15/packages/adafruit/tools/arm-none-eabi-gcc/9-2019q4/bin/../lib/gcc/arm-none-eabi/9.2.1/../../../../arm-none-eabi/lib/thumb/v7e-m+fp/hard\libc_nano.a(lib_a-readr.o)
 .bss           0x00000000        0x0 c:/users/spencer/appdata/local/arduino15/packages/adafruit/tools/arm-none-eabi-gcc/9-2019q4/bin/../lib/gcc/arm-none-eabi/9.2.1/../../../../arm-none-eabi/lib/thumb/v7e-m+fp/hard\libc_nano.a(lib_a-readr.o)
 .text          0x00000000       0x14 c:/users/spencer/appdata/local/arduino15/packages/adafruit/tools/arm-none-eabi-gcc/9-2019q4/bin/../lib/gcc/arm-none-eabi/9.2.1/../../../../arm-none-eabi/lib/thumb/v7e-m+fp/hard\libc_nano.a(lib_a-strcmp.o)
 .data          0x00000000        0x0 c:/users/spencer/appdata/local/arduino15/packages/adafruit/tools/arm-none-eabi-gcc/9-2019q4/bin/../lib/gcc/arm-none-eabi/9.2.1/../../../../arm-none-eabi/lib/thumb/v7e-m+fp/hard\libc_nano.a(lib_a-strcmp.o)
 .bss           0x00000000        0x0 c:/users/spencer/appdata/local/arduino15/packages/adafruit/tools/arm-none-eabi-gcc/9-2019q4/bin/../lib/gcc/arm-none-eabi/9.2.1/../../../../arm-none-eabi/lib/thumb/v7e-m+fp/hard\libc_nano.a(lib_a-strcmp.o)
 .debug_frame   0x00000000       0x20 c:/users/spencer/appdata/local/arduino15/packages/adafruit/tools/arm-none-eabi-gcc/9-2019q4/bin/../lib/gcc/arm-none-eabi/9.2.1/../../../../arm-none-eabi/lib/thumb/v7e-m+fp/hard\libc_nano.a(lib_a-strcmp.o)
 .ARM.attributes
                0x00000000       0x1c c:/users/spencer/appdata/local/arduino15/packages/adafruit/tools/arm-none-eabi-gcc/9-2019q4/bin/../lib/gcc/arm-none-eabi/9.2.1/../../../../arm-none-eabi/lib/thumb/v7e-m+fp/hard\libc_nano.a(lib_a-strcmp.o)
 .text          0x00000000        0x0 c:/users/spencer/appdata/local/arduino15/packages/adafruit/tools/arm-none-eabi-gcc/9-2019q4/bin/../lib/gcc/arm-none-eabi/9.2.1/../../../../arm-none-eabi/lib/thumb/v7e-m+fp/hard\libc_nano.a(lib_a-wctomb_r.o)
 .data          0x00000000        0x0 c:/users/spencer/appdata/local/arduino15/packages/adafruit/tools/arm-none-eabi-gcc/9-2019q4/bin/../lib/gcc/arm-none-eabi/9.2.1/../../../../arm-none-eabi/lib/thumb/v7e-m+fp/hard\libc_nano.a(lib_a-wctomb_r.o)
 .bss           0x00000000        0x0 c:/users/spencer/appdata/local/arduino15/packages/adafruit/tools/arm-none-eabi-gcc/9-2019q4/bin/../lib/gcc/arm-none-eabi/9.2.1/../../../../arm-none-eabi/lib/thumb/v7e-m+fp/hard\libc_nano.a(lib_a-wctomb_r.o)
 .text._wctomb_r
                0x00000000       0x14 c:/users/spencer/appdata/local/arduino15/packages/adafruit/tools/arm-none-eabi-gcc/9-2019q4/bin/../lib/gcc/arm-none-eabi/9.2.1/../../../../arm-none-eabi/lib/thumb/v7e-m+fp/hard\libc_nano.a(lib_a-wctomb_r.o)
 .text          0x00000000        0x0 c:/users/spencer/appdata/local/arduino15/packages/adafruit/tools/arm-none-eabi-gcc/9-2019q4/bin/../lib/gcc/arm-none-eabi/9.2.1/../../../../arm-none-eabi/lib/thumb/v7e-m+fp/hard\libc_nano.a(lib_a-nano-msizer.o)
 .data          0x00000000        0x0 c:/users/spencer/appdata/local/arduino15/packages/adafruit/tools/arm-none-eabi-gcc/9-2019q4/bin/../lib/gcc/arm-none-eabi/9.2.1/../../../../arm-none-eabi/lib/thumb/v7e-m+fp/hard\libc_nano.a(lib_a-nano-msizer.o)
 .bss           0x00000000        0x0 c:/users/spencer/appdata/local/arduino15/packages/adafruit/tools/arm-none-eabi-gcc/9-2019q4/bin/../lib/gcc/arm-none-eabi/9.2.1/../../../../arm-none-eabi/lib/thumb/v7e-m+fp/hard\libc_nano.a(lib_a-nano-msizer.o)
 .text          0x00000000      0x254 c:/users/spencer/appdata/local/arduino15/packages/adafruit/tools/arm-none-eabi-gcc/9-2019q4/bin/../lib/gcc/arm-none-eabi/9.2.1/thumb/v7e-m+fp/hard\libgcc.a(_arm_muldf3.o)
 .data          0x00000000        0x0 c:/users/spencer/appdata/local/arduino15/packages/adafruit/tools/arm-none-eabi-gcc/9-2019q4/bin/../lib/gcc/arm-none-eabi/9.2.1/thumb/v7e-m+fp/hard\libgcc.a(_arm_muldf3.o)
 .bss           0x00000000        0x0 c:/users/spencer/appdata/local/arduino15/packages/adafruit/tools/arm-none-eabi-gcc/9-2019q4/bin/../lib/gcc/arm-none-eabi/9.2.1/thumb/v7e-m+fp/hard\libgcc.a(_arm_muldf3.o)
 .debug_frame   0x00000000       0x30 c:/users/spencer/appdata/local/arduino15/packages/adafruit/tools/arm-none-eabi-gcc/9-2019q4/bin/../lib/gcc/arm-none-eabi/9.2.1/thumb/v7e-m+fp/hard\libgcc.a(_arm_muldf3.o)
 .ARM.attributes
                0x00000000       0x1e c:/users/spencer/appdata/local/arduino15/packages/adafruit/tools/arm-none-eabi-gcc/9-2019q4/bin/../lib/gcc/arm-none-eabi/9.2.1/thumb/v7e-m+fp/hard\libgcc.a(_arm_muldf3.o)
 .data          0x00000000        0x0 c:/users/spencer/appdata/local/arduino15/packages/adafruit/tools/arm-none-eabi-gcc/9-2019q4/bin/../lib/gcc/arm-none-eabi/9.2.1/thumb/v7e-m+fp/hard\libgcc.a(_arm_addsubdf3.o)
 .bss           0x00000000        0x0 c:/users/spencer/appdata/local/arduino15/packages/adafruit/tools/arm-none-eabi-gcc/9-2019q4/bin/../lib/gcc/arm-none-eabi/9.2.1/thumb/v7e-m+fp/hard\libgcc.a(_arm_addsubdf3.o)
 .data          0x00000000        0x0 c:/users/spencer/appdata/local/arduino15/packages/adafruit/tools/arm-none-eabi-gcc/9-2019q4/bin/../lib/gcc/arm-none-eabi/9.2.1/thumb/v7e-m+fp/hard\libgcc.a(_arm_muldivdf3.o)
 .bss           0x00000000        0x0 c:/users/spencer/appdata/local/arduino15/packages/adafruit/tools/arm-none-eabi-gcc/9-2019q4/bin/../lib/gcc/arm-none-eabi/9.2.1/thumb/v7e-m+fp/hard\libgcc.a(_arm_muldivdf3.o)
 .data          0x00000000        0x0 c:/users/spencer/appdata/local/arduino15/packages/adafruit/tools/arm-none-eabi-gcc/9-2019q4/bin/../lib/gcc/arm-none-eabi/9.2.1/thumb/v7e-m+fp/hard\libgcc.a(_arm_cmpdf2.o)
 .bss           0x00000000        0x0 c:/users/spencer/appdata/local/arduino15/packages/adafruit/tools/arm-none-eabi-gcc/9-2019q4/bin/../lib/gcc/arm-none-eabi/9.2.1/thumb/v7e-m+fp/hard\libgcc.a(_arm_cmpdf2.o)
 .data          0x00000000        0x0 c:/users/spencer/appdata/local/arduino15/packages/adafruit/tools/arm-none-eabi-gcc/9-2019q4/bin/../lib/gcc/arm-none-eabi/9.2.1/thumb/v7e-m+fp/hard\libgcc.a(_arm_unorddf2.o)
 .bss           0x00000000        0x0 c:/users/spencer/appdata/local/arduino15/packages/adafruit/tools/arm-none-eabi-gcc/9-2019q4/bin/../lib/gcc/arm-none-eabi/9.2.1/thumb/v7e-m+fp/hard\libgcc.a(_arm_unorddf2.o)
 .data          0x00000000        0x0 c:/users/spencer/appdata/local/arduino15/packages/adafruit/tools/arm-none-eabi-gcc/9-2019q4/bin/../lib/gcc/arm-none-eabi/9.2.1/thumb/v7e-m+fp/hard\libgcc.a(_arm_fixdfsi.o)
 .bss           0x00000000        0x0 c:/users/spencer/appdata/local/arduino15/packages/adafruit/tools/arm-none-eabi-gcc/9-2019q4/bin/../lib/gcc/arm-none-eabi/9.2.1/thumb/v7e-m+fp/hard\libgcc.a(_arm_fixdfsi.o)
 .text          0x00000000        0x0 c:/users/spencer/appdata/local/arduino15/packages/adafruit/tools/arm-none-eabi-gcc/9-2019q4/bin/../lib/gcc/arm-none-eabi/9.2.1/../../../../arm-none-eabi/lib/thumb/v7e-m+fp/hard\libnosys.a(close.o)
 .data          0x00000000        0x0 c:/users/spencer/appdata/local/arduino15/packages/adafruit/tools/arm-none-eabi-gcc/9-2019q4/bin/../lib/gcc/arm-none-eabi/9.2.1/../../../../arm-none-eabi/lib/thumb/v7e-m+fp/hard\libnosys.a(close.o)
 .bss           0x00000000        0x0 c:/users/spencer/appdata/local/arduino15/packages/adafruit/tools/arm-none-eabi-gcc/9-2019q4/bin/../lib/gcc/arm-none-eabi/9.2.1/../../../../arm-none-eabi/lib/thumb/v7e-m+fp/hard\libnosys.a(close.o)
 .text          0x00000000        0x0 c:/users/spencer/appdata/local/arduino15/packages/adafruit/tools/arm-none-eabi-gcc/9-2019q4/bin/../lib/gcc/arm-none-eabi/9.2.1/../../../../arm-none-eabi/lib/thumb/v7e-m+fp/hard\libnosys.a(fstat.o)
 .data          0x00000000        0x0 c:/users/spencer/appdata/local/arduino15/packages/adafruit/tools/arm-none-eabi-gcc/9-2019q4/bin/../lib/gcc/arm-none-eabi/9.2.1/../../../../arm-none-eabi/lib/thumb/v7e-m+fp/hard\libnosys.a(fstat.o)
 .bss           0x00000000        0x0 c:/users/spencer/appdata/local/arduino15/packages/adafruit/tools/arm-none-eabi-gcc/9-2019q4/bin/../lib/gcc/arm-none-eabi/9.2.1/../../../../arm-none-eabi/lib/thumb/v7e-m+fp/hard\libnosys.a(fstat.o)
 .text          0x00000000        0x0 c:/users/spencer/appdata/local/arduino15/packages/adafruit/tools/arm-none-eabi-gcc/9-2019q4/bin/../lib/gcc/arm-none-eabi/9.2.1/../../../../arm-none-eabi/lib/thumb/v7e-m+fp/hard\libnosys.a(isatty.o)
 .data          0x00000000        0x0 c:/users/spencer/appdata/local/arduino15/packages/adafruit/tools/arm-none-eabi-gcc/9-2019q4/bin/../lib/gcc/arm-none-eabi/9.2.1/../../../../arm-none-eabi/lib/thumb/v7e-m+fp/hard\libnosys.a(isatty.o)
 .bss           0x00000000        0x0 c:/users/spencer/appdata/local/arduino15/packages/adafruit/tools/arm-none-eabi-gcc/9-2019q4/bin/../lib/gcc/arm-none-eabi/9.2.1/../../../../arm-none-eabi/lib/thumb/v7e-m+fp/hard\libnosys.a(isatty.o)
 .text          0x00000000        0x0 c:/users/spencer/appdata/local/arduino15/packages/adafruit/tools/arm-none-eabi-gcc/9-2019q4/bin/../lib/gcc/arm-none-eabi/9.2.1/../../../../arm-none-eabi/lib/thumb/v7e-m+fp/hard\libnosys.a(lseek.o)
 .data          0x00000000        0x0 c:/users/spencer/appdata/local/arduino15/packages/adafruit/tools/arm-none-eabi-gcc/9-2019q4/bin/../lib/gcc/arm-none-eabi/9.2.1/../../../../arm-none-eabi/lib/thumb/v7e-m+fp/hard\libnosys.a(lseek.o)
 .bss           0x00000000        0x0 c:/users/spencer/appdata/local/arduino15/packages/adafruit/tools/arm-none-eabi-gcc/9-2019q4/bin/../lib/gcc/arm-none-eabi/9.2.1/../../../../arm-none-eabi/lib/thumb/v7e-m+fp/hard\libnosys.a(lseek.o)
 .text          0x00000000        0x0 c:/users/spencer/appdata/local/arduino15/packages/adafruit/tools/arm-none-eabi-gcc/9-2019q4/bin/../lib/gcc/arm-none-eabi/9.2.1/../../../../arm-none-eabi/lib/thumb/v7e-m+fp/hard\libnosys.a(read.o)
 .data          0x00000000        0x0 c:/users/spencer/appdata/local/arduino15/packages/adafruit/tools/arm-none-eabi-gcc/9-2019q4/bin/../lib/gcc/arm-none-eabi/9.2.1/../../../../arm-none-eabi/lib/thumb/v7e-m+fp/hard\libnosys.a(read.o)
 .bss           0x00000000        0x0 c:/users/spencer/appdata/local/arduino15/packages/adafruit/tools/arm-none-eabi-gcc/9-2019q4/bin/../lib/gcc/arm-none-eabi/9.2.1/../../../../arm-none-eabi/lib/thumb/v7e-m+fp/hard\libnosys.a(read.o)
 .text          0x00000000        0x0 c:/users/spencer/appdata/local/arduino15/packages/adafruit/tools/arm-none-eabi-gcc/9-2019q4/bin/../lib/gcc/arm-none-eabi/9.2.1/../../../../arm-none-eabi/lib/thumb/v7e-m+fp/hard\libnosys.a(sbrk.o)
 .data          0x00000000        0x0 c:/users/spencer/appdata/local/arduino15/packages/adafruit/tools/arm-none-eabi-gcc/9-2019q4/bin/../lib/gcc/arm-none-eabi/9.2.1/../../../../arm-none-eabi/lib/thumb/v7e-m+fp/hard\libnosys.a(sbrk.o)
 .bss           0x00000000        0x0 c:/users/spencer/appdata/local/arduino15/packages/adafruit/tools/arm-none-eabi-gcc/9-2019q4/bin/../lib/gcc/arm-none-eabi/9.2.1/../../../../arm-none-eabi/lib/thumb/v7e-m+fp/hard\libnosys.a(sbrk.o)
 .text          0x00000000        0x0 c:/users/spencer/appdata/local/arduino15/packages/adafruit/tools/arm-none-eabi-gcc/9-2019q4/bin/../lib/gcc/arm-none-eabi/9.2.1/../../../../arm-none-eabi/lib/thumb/v7e-m+fp/hard\libnosys.a(_exit.o)
 .data          0x00000000        0x0 c:/users/spencer/appdata/local/arduino15/packages/adafruit/tools/arm-none-eabi-gcc/9-2019q4/bin/../lib/gcc/arm-none-eabi/9.2.1/../../../../arm-none-eabi/lib/thumb/v7e-m+fp/hard\libnosys.a(_exit.o)
 .bss           0x00000000        0x0 c:/users/spencer/appdata/local/arduino15/packages/adafruit/tools/arm-none-eabi-gcc/9-2019q4/bin/../lib/gcc/arm-none-eabi/9.2.1/../../../../arm-none-eabi/lib/thumb/v7e-m+fp/hard\libnosys.a(_exit.o)
 .text          0x00000000        0x0 c:/users/spencer/appdata/local/arduino15/packages/adafruit/tools/arm-none-eabi-gcc/9-2019q4/bin/../lib/gcc/arm-none-eabi/9.2.1/thumb/v7e-m+fp/hard/crtend.o
 .data          0x00000000        0x0 c:/users/spencer/appdata/local/arduino15/packages/adafruit/tools/arm-none-eabi-gcc/9-2019q4/bin/../lib/gcc/arm-none-eabi/9.2.1/thumb/v7e-m+fp/hard/crtend.o
 .bss           0x00000000        0x0 c:/users/spencer/appdata/local/arduino15/packages/adafruit/tools/arm-none-eabi-gcc/9-2019q4/bin/../lib/gcc/arm-none-eabi/9.2.1/thumb/v7e-m+fp/hard/crtend.o
 .text          0x00000000        0x0 c:/users/spencer/appdata/local/arduino15/packages/adafruit/tools/arm-none-eabi-gcc/9-2019q4/bin/../lib/gcc/arm-none-eabi/9.2.1/thumb/v7e-m+fp/hard/crtn.o
 .data          0x00000000        0x0 c:/users/spencer/appdata/local/arduino15/packages/adafruit/tools/arm-none-eabi-gcc/9-2019q4/bin/../lib/gcc/arm-none-eabi/9.2.1/thumb/v7e-m+fp/hard/crtn.o
 .bss           0x00000000        0x0 c:/users/spencer/appdata/local/arduino15/packages/adafruit/tools/arm-none-eabi-gcc/9-2019q4/bin/../lib/gcc/arm-none-eabi/9.2.1/thumb/v7e-m+fp/hard/crtn.o

Memory Configuration

Name             Origin             Length             Attributes
FLASH            0x00026000         0x00047000         xr
RAM              0x20003600         0x0000ca00         xrw
*default*        0x00000000         0xffffffff

Linker script and memory map

                0x00000800                __StackSize = 0x800
                0x20010000                PROVIDE (__StackTop = (ORIGIN (RAM) + LENGTH (RAM)))
                0x2000f800                PROVIDE (__StackLimit = (__StackTop - __StackSize))
                0x20010000                PROVIDE (__stack = __StackTop)
                0x00026000                __flash_arduino_start = ORIGIN (FLASH)
                0x0006d000                __flash_arduino_end = (ORIGIN (FLASH) + LENGTH (FLASH))

.text           0x00026000     0x7ecc
 *(.isr_vector)
 .isr_vector    0x00026000      0x200 c:\Users\Spencer\Desktop\Keyboard\Firmware\BadgersRunFirmware\Build/core\core.a(gcc_startup_nrf52.S.o)
                0x00026000                __isr_vector
 *(.text*)
 .text.startup  0x00026200       0x10 c:/users/spencer/appdata/local/arduino15/packages/adafruit/tools/arm-none-eabi-gcc/9-2019q4/bin/../lib/gcc/arm-none-eabi/9.2.1/thumb/v7e-m+fp/hard/crtfastmath.o
 .text          0x00026210       0x40 c:/users/spencer/appdata/local/arduino15/packages/adafruit/tools/arm-none-eabi-gcc/9-2019q4/bin/../lib/gcc/arm-none-eabi/9.2.1/thumb/v7e-m+fp/hard/crtbegin.o
 .text          0x00026250       0x74 c:/users/spencer/appdata/local/arduino15/packages/adafruit/tools/arm-none-eabi-gcc/9-2019q4/bin/../lib/gcc/arm-none-eabi/9.2.1/../../../../arm-none-eabi/lib/thumb/v7e-m+fp/hard/crt0.o
                0x00026250                _start
                0x00026250                _mainCRTStartup
 .text.setup    0x000262c4        0x4 c:\Users\Spencer\Desktop\Keyboard\Firmware\BadgersRunFirmware\Build\sketch\keyboard.ino.cpp.o
                0x000262c4                setup
 .text.loop     0x000262c8        0x4 c:\Users\Spencer\Desktop\Keyboard\Firmware\BadgersRunFirmware\Build\sketch\keyboard.ino.cpp.o
                0x000262c8                loop
 .text._Z11initVariantv
                0x000262cc       0x24 c:\Users\Spencer\Desktop\Keyboard\Firmware\BadgersRunFirmware\Build\core\variant.cpp.o
                0x000262cc                initVariant()
 .text          0x000262f0       0x54 c:\Users\Spencer\Desktop\Keyboard\Firmware\BadgersRunFirmware\Build/core\core.a(gcc_startup_nrf52.S.o)
                0x000262f0                Reset_Handler
                0x00026330                NMI_Handler
                0x00026334                MemoryManagement_Handler
                0x00026336                BusFault_Handler
                0x00026338                UsageFault_Handler
                0x0002633c                DebugMon_Handler
                0x00026340                SysTick_Handler
                0x00026342                SWI0_EGU0_IRQHandler
                0x00026342                POWER_CLOCK_IRQHandler
                0x00026342                RADIO_IRQHandler
                0x00026342                PWM1_IRQHandler
                0x00026342                GPIOTE_IRQHandler
                0x00026342                TEMP_IRQHandler
                0x00026342                QDEC_IRQHandler
                0x00026342                TIMER3_IRQHandler
                0x00026342                FPU_IRQHandler
                0x00026342                SPIM0_SPIS0_TWIM0_TWIS0_SPI0_TWI0_IRQHandler
                0x00026342                PDM_IRQHandler
                0x00026342                TIMER4_IRQHandler
                0x00026342                I2S_IRQHandler
                0x00026342                RTC0_IRQHandler
                0x00026342                TIMER0_IRQHandler
                0x00026342                SWI2_EGU2_IRQHandler
                0x00026342                TIMER1_IRQHandler
                0x00026342                PWM2_IRQHandler
                0x00026342                ECB_IRQHandler
                0x00026342                SPIM1_SPIS1_TWIM1_TWIS1_SPI1_TWI1_IRQHandler
                0x00026342                Default_Handler
                0x00026342                SAADC_IRQHandler
                0x00026342                CCM_AAR_IRQHandler
                0x00026342                WDT_IRQHandler
                0x00026342                SWI5_EGU5_IRQHandler
                0x00026342                RNG_IRQHandler
                0x00026342                RTC2_IRQHandler
                0x00026342                PWM0_IRQHandler
                0x00026342                SWI3_EGU3_IRQHandler
                0x00026342                SWI1_EGU1_IRQHandler
                0x00026342                SPIM2_SPIS2_SPI2_IRQHandler
                0x00026342                NFCT_IRQHandler
                0x00026342                SWI4_EGU4_IRQHandler
                0x00026342                MWU_IRQHandler
                0x00026342                TIMER2_IRQHandler
                0x00026342                COMP_LPCOMP_IRQHandler
 .text.SystemInit
                0x00026344      0x388 c:\Users\Spencer\Desktop\Keyboard\Firmware\BadgersRunFirmware\Build/core\core.a(system_nrf52.c.o)
                0x00026344                SystemInit
 .text.pinMode  0x000266cc       0x84 c:\Users\Spencer\Desktop\Keyboard\Firmware\BadgersRunFirmware\Build/core\core.a(wiring_digital.c.o)
                0x000266cc                pinMode
 .text.ledOff   0x00026750       0x1c c:\Users\Spencer\Desktop\Keyboard\Firmware\BadgersRunFirmware\Build/core\core.a(wiring_digital.c.o)
                0x00026750                ledOff
 .text._Z19Bluefruit_printInfov
                0x0002676c        0x4 c:\Users\Spencer\Desktop\Keyboard\Firmware\BadgersRunFirmware\Build/core\core.a(main.cpp.o)
                0x0002676c                Bluefruit_printInfo()
 .text.startup.main
                0x00026770       0x5c c:\Users\Spencer\Desktop\Keyboard\Firmware\BadgersRunFirmware\Build/core\core.a(main.cpp.o)
                0x00026770                main
 .text._ZL9loop_taskPv
                0x000267cc       0x74 c:\Users\Spencer\Desktop\Keyboard\Firmware\BadgersRunFirmware\Build/core\core.a(main.cpp.o)
 .text._write   0x00026840       0x14 c:\Users\Spencer\Desktop\Keyboard\Firmware\BadgersRunFirmware\Build/core\core.a(main.cpp.o)
                0x00026840                _write
 .text.yield    0x00026854       0x18 c:\Users\Spencer\Desktop\Keyboard\Firmware\BadgersRunFirmware\Build/core\core.a(rtos.cpp.o)
                0x00026854                yield
 .text.vApplicationStackOverflowHook
                0x0002686c       0x40 c:\Users\Spencer\Desktop\Keyboard\Firmware\BadgersRunFirmware\Build/core\core.a(rtos.cpp.o)
                0x0002686c                vApplicationStackOverflowHook
 .text.vApplicationMallocFailedHook
                0x000268ac       0x44 c:\Users\Spencer\Desktop\Keyboard\Firmware\BadgersRunFirmware\Build/core\core.a(rtos.cpp.o)
                0x000268ac                vApplicationMallocFailedHook
 .text.vApplicationGetIdleTaskMemory
                0x000268f0       0x1c c:\Users\Spencer\Desktop\Keyboard\Firmware\BadgersRunFirmware\Build/core\core.a(rtos.cpp.o)
                0x000268f0                vApplicationGetIdleTaskMemory
 .text.vApplicationGetTimerTaskMemory
                0x0002690c       0x20 c:\Users\Spencer\Desktop\Keyboard\Firmware\BadgersRunFirmware\Build/core\core.a(rtos.cpp.o)
                0x0002690c                vApplicationGetTimerTaskMemory
 .text.HardFault_Handler
                0x0002692c       0x24 c:\Users\Spencer\Desktop\Keyboard\Firmware\BadgersRunFirmware\Build/core\core.a(debug.cpp.o)
                0x0002692c                HardFault_Handler
 .text.dbgPrintVersion
                0x00026950       0x3c c:\Users\Spencer\Desktop\Keyboard\Firmware\BadgersRunFirmware\Build/core\core.a(debug.cpp.o)
                0x00026950                dbgPrintVersion
 .text.dbg_err_str
                0x0002698c       0x2c c:\Users\Spencer\Desktop\Keyboard\Firmware\BadgersRunFirmware\Build/core\core.a(debug.cpp.o)
                0x0002698c                dbg_err_str
 .text.pvPortMalloc
                0x000269b8       0x24 c:\Users\Spencer\Desktop\Keyboard\Firmware\BadgersRunFirmware\Build/core\core.a(heap_3.c.o)
                0x000269b8                pvPortMalloc
 .text.vPortFree
                0x000269dc       0x1c c:\Users\Spencer\Desktop\Keyboard\Firmware\BadgersRunFirmware\Build/core\core.a(heap_3.c.o)
                0x000269dc                vPortFree
 .text.prvAddNewTaskToReadyList
                0x000269f8      0x124 c:\Users\Spencer\Desktop\Keyboard\Firmware\BadgersRunFirmware\Build/core\core.a(tasks.c.o)
 .text.xTaskCreateStatic
                0x00026b1c       0xe0 c:\Users\Spencer\Desktop\Keyboard\Firmware\BadgersRunFirmware\Build/core\core.a(tasks.c.o)
                0x00026b1c                xTaskCreateStatic
 .text.xTaskCreate
                0x00026bfc       0xf0 c:\Users\Spencer\Desktop\Keyboard\Firmware\BadgersRunFirmware\Build/core\core.a(tasks.c.o)
                0x00026bfc                xTaskCreate
 .text.vTaskStartScheduler
                0x00026cec       0xcc c:\Users\Spencer\Desktop\Keyboard\Firmware\BadgersRunFirmware\Build/core\core.a(tasks.c.o)
                0x00026cec                vTaskStartScheduler
 .text.vTaskSuspendAll
                0x00026db8       0x10 c:\Users\Spencer\Desktop\Keyboard\Firmware\BadgersRunFirmware\Build/core\core.a(tasks.c.o)
                0x00026db8                vTaskSuspendAll
 .text.xTaskGetTickCount
                0x00026dc8        0xc c:\Users\Spencer\Desktop\Keyboard\Firmware\BadgersRunFirmware\Build/core\core.a(tasks.c.o)
                0x00026dc8                xTaskGetTickCount
 .text.pcTaskGetName
                0x00026dd4       0x14 c:\Users\Spencer\Desktop\Keyboard\Firmware\BadgersRunFirmware\Build/core\core.a(tasks.c.o)
                0x00026dd4                pcTaskGetName
 .text.vTaskStepTick
                0x00026de8       0x10 c:\Users\Spencer\Desktop\Keyboard\Firmware\BadgersRunFirmware\Build/core\core.a(tasks.c.o)
                0x00026de8                vTaskStepTick
 .text.xTaskIncrementTick
                0x00026df8      0x134 c:\Users\Spencer\Desktop\Keyboard\Firmware\BadgersRunFirmware\Build/core\core.a(tasks.c.o)
                0x00026df8                xTaskIncrementTick
 .text.xTaskResumeAll
                0x00026f2c      0x120 c:\Users\Spencer\Desktop\Keyboard\Firmware\BadgersRunFirmware\Build/core\core.a(tasks.c.o)
                0x00026f2c                xTaskResumeAll
 .text.prvIdleTask
                0x0002704c      0x118 c:\Users\Spencer\Desktop\Keyboard\Firmware\BadgersRunFirmware\Build/core\core.a(tasks.c.o)
 .text.vTaskSwitchContext
                0x00027164       0xbc c:\Users\Spencer\Desktop\Keyboard\Firmware\BadgersRunFirmware\Build/core\core.a(tasks.c.o)
                0x00027164                vTaskSwitchContext
 .text.vTaskPlaceOnEventList
                0x00027220       0x78 c:\Users\Spencer\Desktop\Keyboard\Firmware\BadgersRunFirmware\Build/core\core.a(tasks.c.o)
                0x00027220                vTaskPlaceOnEventList
 .text.vTaskPlaceOnEventListRestricted
                0x00027298       0x80 c:\Users\Spencer\Desktop\Keyboard\Firmware\BadgersRunFirmware\Build/core\core.a(tasks.c.o)
                0x00027298                vTaskPlaceOnEventListRestricted
 .text.xTaskRemoveFromEventList
                0x00027318       0xa4 c:\Users\Spencer\Desktop\Keyboard\Firmware\BadgersRunFirmware\Build/core\core.a(tasks.c.o)
                0x00027318                xTaskRemoveFromEventList
 .text.vTaskInternalSetTimeOutState
                0x000273bc       0x18 c:\Users\Spencer\Desktop\Keyboard\Firmware\BadgersRunFirmware\Build/core\core.a(tasks.c.o)
                0x000273bc                vTaskInternalSetTimeOutState
 .text.xTaskCheckForTimeOut
                0x000273d4       0x68 c:\Users\Spencer\Desktop\Keyboard\Firmware\BadgersRunFirmware\Build/core\core.a(tasks.c.o)
                0x000273d4                xTaskCheckForTimeOut
 .text.vTaskMissedYield
                0x0002743c        0xc c:\Users\Spencer\Desktop\Keyboard\Firmware\BadgersRunFirmware\Build/core\core.a(tasks.c.o)
                0x0002743c                vTaskMissedYield
 .text.eTaskConfirmSleepModeStatus
                0x00027448       0x38 c:\Users\Spencer\Desktop\Keyboard\Firmware\BadgersRunFirmware\Build/core\core.a(tasks.c.o)
                0x00027448                eTaskConfirmSleepModeStatus
 .text.xTaskGetCurrentTaskHandle
                0x00027480        0xc c:\Users\Spencer\Desktop\Keyboard\Firmware\BadgersRunFirmware\Build/core\core.a(tasks.c.o)
                0x00027480                xTaskGetCurrentTaskHandle
 .text.xTaskGetSchedulerState
                0x0002748c       0x20 c:\Users\Spencer\Desktop\Keyboard\Firmware\BadgersRunFirmware\Build/core\core.a(tasks.c.o)
                0x0002748c                xTaskGetSchedulerState
 .text.xTaskPriorityInherit
                0x000274ac       0x8c c:\Users\Spencer\Desktop\Keyboard\Firmware\BadgersRunFirmware\Build/core\core.a(tasks.c.o)
                0x000274ac                xTaskPriorityInherit
 .text.xTaskPriorityDisinherit
                0x00027538       0x60 c:\Users\Spencer\Desktop\Keyboard\Firmware\BadgersRunFirmware\Build/core\core.a(tasks.c.o)
                0x00027538                xTaskPriorityDisinherit
 .text.vTaskPriorityDisinheritAfterTimeout
                0x00027598       0x74 c:\Users\Spencer\Desktop\Keyboard\Firmware\BadgersRunFirmware\Build/core\core.a(tasks.c.o)
                0x00027598                vTaskPriorityDisinheritAfterTimeout
 .text.pvTaskIncrementMutexHeldCount
                0x0002760c       0x18 c:\Users\Spencer\Desktop\Keyboard\Firmware\BadgersRunFirmware\Build/core\core.a(tasks.c.o)
                0x0002760c                pvTaskIncrementMutexHeldCount
 .text.prvSwitchTimerLists
                0x00027624       0x88 c:\Users\Spencer\Desktop\Keyboard\Firmware\BadgersRunFirmware\Build/core\core.a(timers.c.o)
 .text.prvTimerTask
                0x000276ac      0x240 c:\Users\Spencer\Desktop\Keyboard\Firmware\BadgersRunFirmware\Build/core\core.a(timers.c.o)
 .text.xTimerCreateTimerTask
                0x000278ec       0xac c:\Users\Spencer\Desktop\Keyboard\Firmware\BadgersRunFirmware\Build/core\core.a(timers.c.o)
                0x000278ec                xTimerCreateTimerTask
 .text.prvTaskExitError
                0x00027998        0x8 c:\Users\Spencer\Desktop\Keyboard\Firmware\BadgersRunFirmware\Build/core\core.a(port_cmsis.c.o)
 .text.pxPortInitialiseStack
                0x000279a0       0x2c c:\Users\Spencer\Desktop\Keyboard\Firmware\BadgersRunFirmware\Build/core\core.a(port_cmsis.c.o)
                0x000279a0                pxPortInitialiseStack
 .text.xPortStartScheduler
                0x000279cc       0x4c c:\Users\Spencer\Desktop\Keyboard\Firmware\BadgersRunFirmware\Build/core\core.a(port_cmsis.c.o)
                0x000279cc                xPortStartScheduler
 .text.vPortEnterCritical
                0x00027a18       0x14 c:\Users\Spencer\Desktop\Keyboard\Firmware\BadgersRunFirmware\Build/core\core.a(port_cmsis.c.o)
                0x00027a18                vPortEnterCritical
 .text.vPortExitCritical
                0x00027a2c       0x14 c:\Users\Spencer\Desktop\Keyboard\Firmware\BadgersRunFirmware\Build/core\core.a(port_cmsis.c.o)
                0x00027a2c                vPortExitCritical
 .text.sd_app_evt_wait
                0x00027a40        0x4 c:\Users\Spencer\Desktop\Keyboard\Firmware\BadgersRunFirmware\Build/core\core.a(port_cmsis_systick.c.o)
 .text.sd_softdevice_is_enabled
                0x00027a44        0x4 c:\Users\Spencer\Desktop\Keyboard\Firmware\BadgersRunFirmware\Build/core\core.a(port_cmsis_systick.c.o)
 .text.RTC1_IRQHandler
                0x00027a48       0x88 c:\Users\Spencer\Desktop\Keyboard\Firmware\BadgersRunFirmware\Build/core\core.a(port_cmsis_systick.c.o)
                0x00027a48                RTC1_IRQHandler
 .text.vPortSetupTimerInterrupt
                0x00027ad0       0x3c c:\Users\Spencer\Desktop\Keyboard\Firmware\BadgersRunFirmware\Build/core\core.a(port_cmsis_systick.c.o)
                0x00027ad0                vPortSetupTimerInterrupt
 .text.vPortSuppressTicksAndSleep
                0x00027b0c      0x1c0 c:\Users\Spencer\Desktop\Keyboard\Firmware\BadgersRunFirmware\Build/core\core.a(port_cmsis_systick.c.o)
                0x00027b0c                vPortSuppressTicksAndSleep
 .text.vPortStartFirstTask
                0x00027ccc       0x24 c:\Users\Spencer\Desktop\Keyboard\Firmware\BadgersRunFirmware\Build/core\core.a(port.c.o)
                0x00027ccc                vPortStartFirstTask
 .text.SVC_Handler
                0x00027cf0       0x20 c:\Users\Spencer\Desktop\Keyboard\Firmware\BadgersRunFirmware\Build/core\core.a(port.c.o)
                0x00027cf0                SVC_Handler
 .text.PendSV_Handler
                0x00027d10       0x60 c:\Users\Spencer\Desktop\Keyboard\Firmware\BadgersRunFirmware\Build/core\core.a(port.c.o)
                0x00027d10                PendSV_Handler
 .text.__empty  0x00027d70        0x4 c:\Users\Spencer\Desktop\Keyboard\Firmware\BadgersRunFirmware\Build/core\core.a(hooks.c.o)
                0x00027d70                vApplicationIdleHook
 .text.adafruit_callback_task
                0x00027d74       0xc4 c:\Users\Spencer\Desktop\Keyboard\Firmware\BadgersRunFirmware\Build/core\core.a(AdaCallback.c.o)
                0x00027d74                adafruit_callback_task
 .text.ada_callback_init
                0x00027e38       0x48 c:\Users\Spencer\Desktop\Keyboard\Firmware\BadgersRunFirmware\Build/core\core.a(AdaCallback.c.o)
                0x00027e38                ada_callback_init
 .text.lookup_find
                0x00027e80       0x28 c:\Users\Spencer\Desktop\Keyboard\Firmware\BadgersRunFirmware\Build/core\core.a(utilities.c.o)
                0x00027e80                lookup_find
 .text.getBootloaderVersion
                0x00027ea8       0x80 c:\Users\Spencer\Desktop\Keyboard\Firmware\BadgersRunFirmware\Build/core\core.a(utilities.c.o)
                0x00027ea8                getBootloaderVersion
 .text.getMcuUniqueID
                0x00027f28       0x28 c:\Users\Spencer\Desktop\Keyboard\Firmware\BadgersRunFirmware\Build/core\core.a(utilities.c.o)
                0x00027f28                getMcuUniqueID
 .text.init     0x00027f50       0x5c c:\Users\Spencer\Desktop\Keyboard\Firmware\BadgersRunFirmware\Build/core\core.a(wiring.c.o)
                0x00027f50                init
 .text._ZN5Print17availableForWriteEv
                0x00027fac        0x4 c:\Users\Spencer\Desktop\Keyboard\Firmware\BadgersRunFirmware\Build/core\core.a(Uart.cpp.o)
                0x00027fac                Print::availableForWrite()
 .text._ZN4UartcvbEv
                0x00027fb0        0x8 c:\Users\Spencer\Desktop\Keyboard\Firmware\BadgersRunFirmware\Build/core\core.a(Uart.cpp.o)
                0x00027fb0                Uart::operator bool()
 .text._ZN4Uart3endEv
                0x00027fb8       0x70 c:\Users\Spencer\Desktop\Keyboard\Firmware\BadgersRunFirmware\Build/core\core.a(Uart.cpp.o)
                0x00027fb8                Uart::end()
 .text._ZN4Uart9availableEv
                0x00028028        0x8 c:\Users\Spencer\Desktop\Keyboard\Firmware\BadgersRunFirmware\Build/core\core.a(Uart.cpp.o)
                0x00028028                Uart::available()
 .text._ZN4Uart4peekEv
                0x00028030        0x8 c:\Users\Spencer\Desktop\Keyboard\Firmware\BadgersRunFirmware\Build/core\core.a(Uart.cpp.o)
                0x00028030                Uart::peek()
 .text._ZN4Uart4readEv
                0x00028038        0x8 c:\Users\Spencer\Desktop\Keyboard\Firmware\BadgersRunFirmware\Build/core\core.a(Uart.cpp.o)
                0x00028038                Uart::read()
 .text._ZN4Uart5flushEv
                0x00028040       0x2c c:\Users\Spencer\Desktop\Keyboard\Firmware\BadgersRunFirmware\Build/core\core.a(Uart.cpp.o)
                0x00028040                Uart::flush()
 .text._ZN4Uart5writeEh
                0x0002806c       0x48 c:\Users\Spencer\Desktop\Keyboard\Firmware\BadgersRunFirmware\Build/core\core.a(Uart.cpp.o)
                0x0002806c                Uart::write(unsigned char)
 .text._ZN4Uart5writeEPKhj
                0x000280b4       0x54 c:\Users\Spencer\Desktop\Keyboard\Firmware\BadgersRunFirmware\Build/core\core.a(Uart.cpp.o)
                0x000280b4                Uart::write(unsigned char const*, unsigned int)
 .text._ZN4Uart5beginEm
                0x00028108      0x1bc c:\Users\Spencer\Desktop\Keyboard\Firmware\BadgersRunFirmware\Build/core\core.a(Uart.cpp.o)
                0x00028108                Uart::begin(unsigned long)
 .text._ZN4Uart5beginEmt
                0x000282c4      0x1a0 c:\Users\Spencer\Desktop\Keyboard\Firmware\BadgersRunFirmware\Build/core\core.a(Uart.cpp.o)
                0x000282c4                Uart::begin(unsigned long, unsigned short)
 .text._Z14serialEventRunv
                0x00028464       0x20 c:\Users\Spencer\Desktop\Keyboard\Firmware\BadgersRunFirmware\Build/core\core.a(Uart.cpp.o)
                0x00028464                serialEventRun()
 .text.UARTE0_UART0_IRQHandler
                0x00028484       0x4c c:\Users\Spencer\Desktop\Keyboard\Firmware\BadgersRunFirmware\Build/core\core.a(Uart.cpp.o)
                0x00028484                UARTE0_UART0_IRQHandler
 .text.startup._GLOBAL__sub_I__ZN4UartC2EP14NRF_UARTE_Type9IRQn_Typehh
                0x000284d0       0x4c c:\Users\Spencer\Desktop\Keyboard\Firmware\BadgersRunFirmware\Build/core\core.a(Uart.cpp.o)
 .text.vListInitialise
                0x0002851c       0x18 c:\Users\Spencer\Desktop\Keyboard\Firmware\BadgersRunFirmware\Build/core\core.a(list.c.o)
                0x0002851c                vListInitialise
 .text.vListInitialiseItem
                0x00028534        0x8 c:\Users\Spencer\Desktop\Keyboard\Firmware\BadgersRunFirmware\Build/core\core.a(list.c.o)
                0x00028534                vListInitialiseItem
 .text.vListInsertEnd
                0x0002853c       0x20 c:\Users\Spencer\Desktop\Keyboard\Firmware\BadgersRunFirmware\Build/core\core.a(list.c.o)
                0x0002853c                vListInsertEnd
 .text.vListInsert
                0x0002855c       0x30 c:\Users\Spencer\Desktop\Keyboard\Firmware\BadgersRunFirmware\Build/core\core.a(list.c.o)
                0x0002855c                vListInsert
 .text.uxListRemove
                0x0002858c       0x28 c:\Users\Spencer\Desktop\Keyboard\Firmware\BadgersRunFirmware\Build/core\core.a(list.c.o)
                0x0002858c                uxListRemove
 .text.xQueueGenericCreateStatic
                0x000285b4       0x60 c:\Users\Spencer\Desktop\Keyboard\Firmware\BadgersRunFirmware\Build/core\core.a(queue.c.o)
                0x000285b4                xQueueGenericCreateStatic
 .text.xQueueGenericCreate
                0x00028614       0x84 c:\Users\Spencer\Desktop\Keyboard\Firmware\BadgersRunFirmware\Build/core\core.a(queue.c.o)
                0x00028614                xQueueGenericCreate
 .text.xQueueGenericSend
                0x00028698      0x360 c:\Users\Spencer\Desktop\Keyboard\Firmware\BadgersRunFirmware\Build/core\core.a(queue.c.o)
                0x00028698                xQueueGenericSend
 .text.xQueueCreateMutex
                0x000289f8       0x70 c:\Users\Spencer\Desktop\Keyboard\Firmware\BadgersRunFirmware\Build/core\core.a(queue.c.o)
                0x000289f8                xQueueCreateMutex
 .text.xQueueGiveFromISR
                0x00028a68       0x60 c:\Users\Spencer\Desktop\Keyboard\Firmware\BadgersRunFirmware\Build/core\core.a(queue.c.o)
                0x00028a68                xQueueGiveFromISR
 .text.xQueueReceive
                0x00028ac8      0x2b8 c:\Users\Spencer\Desktop\Keyboard\Firmware\BadgersRunFirmware\Build/core\core.a(queue.c.o)
                0x00028ac8                xQueueReceive
 .text.xQueueSemaphoreTake
                0x00028d80      0x2f8 c:\Users\Spencer\Desktop\Keyboard\Firmware\BadgersRunFirmware\Build/core\core.a(queue.c.o)
                0x00028d80                xQueueSemaphoreTake
 .text.vQueueDelete
                0x00029078       0x48 c:\Users\Spencer\Desktop\Keyboard\Firmware\BadgersRunFirmware\Build/core\core.a(queue.c.o)
                0x00029078                vQueueDelete
 .text.vQueueAddToRegistry
                0x000290c0       0x24 c:\Users\Spencer\Desktop\Keyboard\Firmware\BadgersRunFirmware\Build/core\core.a(queue.c.o)
                0x000290c0                vQueueAddToRegistry
 .text.vQueueWaitForMessageRestricted
                0x000290e4       0xcc c:\Users\Spencer\Desktop\Keyboard\Firmware\BadgersRunFirmware\Build/core\core.a(queue.c.o)
                0x000290e4                vQueueWaitForMessageRestricted
 .text._ZN10RingBufferC2Ev
                0x000291b0       0x18 c:\Users\Spencer\Desktop\Keyboard\Firmware\BadgersRunFirmware\Build/core\core.a(RingBuffer.cpp.o)
                0x000291b0                RingBuffer::RingBuffer()
                0x000291b0                RingBuffer::RingBuffer()
 .text._ZN10RingBuffer10store_charEh
                0x000291c8       0x1c c:\Users\Spencer\Desktop\Keyboard\Firmware\BadgersRunFirmware\Build/core\core.a(RingBuffer.cpp.o)
                0x000291c8                RingBuffer::store_char(unsigned char)
 .text._ZN10RingBuffer5clearEv
                0x000291e4        0x8 c:\Users\Spencer\Desktop\Keyboard\Firmware\BadgersRunFirmware\Build/core\core.a(RingBuffer.cpp.o)
                0x000291e4                RingBuffer::clear()
 .text._ZN10RingBuffer9read_charEv
                0x000291ec       0x1c c:\Users\Spencer\Desktop\Keyboard\Firmware\BadgersRunFirmware\Build/core\core.a(RingBuffer.cpp.o)
                0x000291ec                RingBuffer::read_char()
 .text._ZN10RingBuffer9availableEv
                0x00029208        0xc c:\Users\Spencer\Desktop\Keyboard\Firmware\BadgersRunFirmware\Build/core\core.a(RingBuffer.cpp.o)
                0x00029208                RingBuffer::available()
 .text._ZN10RingBuffer4peekEv
                0x00029214       0x10 c:\Users\Spencer\Desktop\Keyboard\Firmware\BadgersRunFirmware\Build/core\core.a(RingBuffer.cpp.o)
                0x00029214                RingBuffer::peek()
 .text.exit     0x00029224       0x28 c:/users/spencer/appdata/local/arduino15/packages/adafruit/tools/arm-none-eabi-gcc/9-2019q4/bin/../lib/gcc/arm-none-eabi/9.2.1/../../../../arm-none-eabi/lib/thumb/v7e-m+fp/hard\libc_nano.a(lib_a-exit.o)
                0x00029224                exit
 .text.__libc_init_array
                0x0002924c       0x48 c:/users/spencer/appdata/local/arduino15/packages/adafruit/tools/arm-none-eabi-gcc/9-2019q4/bin/../lib/gcc/arm-none-eabi/9.2.1/../../../../arm-none-eabi/lib/thumb/v7e-m+fp/hard\libc_nano.a(lib_a-init.o)
                0x0002924c                __libc_init_array
 .text.malloc   0x00029294       0x10 c:/users/spencer/appdata/local/arduino15/packages/adafruit/tools/arm-none-eabi-gcc/9-2019q4/bin/../lib/gcc/arm-none-eabi/9.2.1/../../../../arm-none-eabi/lib/thumb/v7e-m+fp/hard\libc_nano.a(lib_a-malloc.o)
                0x00029294                malloc
 .text.free     0x000292a4       0x10 c:/users/spencer/appdata/local/arduino15/packages/adafruit/tools/arm-none-eabi-gcc/9-2019q4/bin/../lib/gcc/arm-none-eabi/9.2.1/../../../../arm-none-eabi/lib/thumb/v7e-m+fp/hard\libc_nano.a(lib_a-malloc.o)
                0x000292a4                free
 .text.memcpy   0x000292b4       0x1c c:/users/spencer/appdata/local/arduino15/packages/adafruit/tools/arm-none-eabi-gcc/9-2019q4/bin/../lib/gcc/arm-none-eabi/9.2.1/../../../../arm-none-eabi/lib/thumb/v7e-m+fp/hard\libc_nano.a(lib_a-memcpy-stub.o)
                0x000292b4                memcpy
 .text.memset   0x000292d0       0x10 c:/users/spencer/appdata/local/arduino15/packages/adafruit/tools/arm-none-eabi-gcc/9-2019q4/bin/../lib/gcc/arm-none-eabi/9.2.1/../../../../arm-none-eabi/lib/thumb/v7e-m+fp/hard\libc_nano.a(lib_a-memset.o)
                0x000292d0                memset
 .text._free_r  0x000292e0       0xa0 c:/users/spencer/appdata/local/arduino15/packages/adafruit/tools/arm-none-eabi-gcc/9-2019q4/bin/../lib/gcc/arm-none-eabi/9.2.1/../../../../arm-none-eabi/lib/thumb/v7e-m+fp/hard\libc_nano.a(lib_a-nano-freer.o)
                0x000292e0                _free_r
 .text._malloc_r
                0x00029380       0xb4 c:/users/spencer/appdata/local/arduino15/packages/adafruit/tools/arm-none-eabi-gcc/9-2019q4/bin/../lib/gcc/arm-none-eabi/9.2.1/../../../../arm-none-eabi/lib/thumb/v7e-m+fp/hard\libc_nano.a(lib_a-nano-mallocr.o)
                0x00029380                _malloc_r
 .text.__cvt    0x00029434       0xc4 c:/users/spencer/appdata/local/arduino15/packages/adafruit/tools/arm-none-eabi-gcc/9-2019q4/bin/../lib/gcc/arm-none-eabi/9.2.1/../../../../arm-none-eabi/lib/thumb/v7e-m+fp/hard\libc_nano.a(lib_a-nano-vfprintf_float.o)
                0x00029434                __cvt
 .text.__exponent
                0x000294f8       0x7c c:/users/spencer/appdata/local/arduino15/packages/adafruit/tools/arm-none-eabi-gcc/9-2019q4/bin/../lib/gcc/arm-none-eabi/9.2.1/../../../../arm-none-eabi/lib/thumb/v7e-m+fp/hard\libc_nano.a(lib_a-nano-vfprintf_float.o)
                0x000294f8                __exponent
 .text._printf_float
                0x00029574      0x46c c:/users/spencer/appdata/local/arduino15/packages/adafruit/tools/arm-none-eabi-gcc/9-2019q4/bin/../lib/gcc/arm-none-eabi/9.2.1/../../../../arm-none-eabi/lib/thumb/v7e-m+fp/hard\libc_nano.a(lib_a-nano-vfprintf_float.o)
                0x00029574                _printf_float
 .text._printf_common
                0x000299e0       0xda c:/users/spencer/appdata/local/arduino15/packages/adafruit/tools/arm-none-eabi-gcc/9-2019q4/bin/../lib/gcc/arm-none-eabi/9.2.1/../../../../arm-none-eabi/lib/thumb/v7e-m+fp/hard\libc_nano.a(lib_a-nano-vfprintf_i.o)
                0x000299e0                _printf_common
 *fill*         0x00029aba        0x2 
 .text._printf_i
                0x00029abc      0x24c c:/users/spencer/appdata/local/arduino15/packages/adafruit/tools/arm-none-eabi-gcc/9-2019q4/bin/../lib/gcc/arm-none-eabi/9.2.1/../../../../arm-none-eabi/lib/thumb/v7e-m+fp/hard\libc_nano.a(lib_a-nano-vfprintf_i.o)
                0x00029abc                _printf_i
 .text.printf   0x00029d08       0x30 c:/users/spencer/appdata/local/arduino15/packages/adafruit/tools/arm-none-eabi-gcc/9-2019q4/bin/../lib/gcc/arm-none-eabi/9.2.1/../../../../arm-none-eabi/lib/thumb/v7e-m+fp/hard\libc_nano.a(lib_a-printf.o)
                0x00029d08                iprintf
                0x00029d08                printf
 .text.putchar  0x00029d38       0x2c c:/users/spencer/appdata/local/arduino15/packages/adafruit/tools/arm-none-eabi-gcc/9-2019q4/bin/../lib/gcc/arm-none-eabi/9.2.1/../../../../arm-none-eabi/lib/thumb/v7e-m+fp/hard\libc_nano.a(lib_a-putchar.o)
                0x00029d38                putchar
 .text._puts_r  0x00029d64       0xdc c:/users/spencer/appdata/local/arduino15/packages/adafruit/tools/arm-none-eabi-gcc/9-2019q4/bin/../lib/gcc/arm-none-eabi/9.2.1/../../../../arm-none-eabi/lib/thumb/v7e-m+fp/hard\libc_nano.a(lib_a-puts.o)
                0x00029d64                _puts_r
 .text.puts     0x00029e40       0x10 c:/users/spencer/appdata/local/arduino15/packages/adafruit/tools/arm-none-eabi-gcc/9-2019q4/bin/../lib/gcc/arm-none-eabi/9.2.1/../../../../arm-none-eabi/lib/thumb/v7e-m+fp/hard\libc_nano.a(lib_a-puts.o)
                0x00029e40                puts
 .text._sbrk_r  0x00029e50       0x20 c:/users/spencer/appdata/local/arduino15/packages/adafruit/tools/arm-none-eabi-gcc/9-2019q4/bin/../lib/gcc/arm-none-eabi/9.2.1/../../../../arm-none-eabi/lib/thumb/v7e-m+fp/hard\libc_nano.a(lib_a-sbrkr.o)
                0x00029e50                _sbrk_r
 .text.sprintf  0x00029e70       0x40 c:/users/spencer/appdata/local/arduino15/packages/adafruit/tools/arm-none-eabi-gcc/9-2019q4/bin/../lib/gcc/arm-none-eabi/9.2.1/../../../../arm-none-eabi/lib/thumb/v7e-m+fp/hard\libc_nano.a(lib_a-sprintf.o)
                0x00029e70                siprintf
                0x00029e70                sprintf
 .text          0x00029eb0       0x10 c:/users/spencer/appdata/local/arduino15/packages/adafruit/tools/arm-none-eabi-gcc/9-2019q4/bin/../lib/gcc/arm-none-eabi/9.2.1/../../../../arm-none-eabi/lib/thumb/v7e-m+fp/hard\libc_nano.a(lib_a-strlen.o)
                0x00029eb0                strlen
 .text.__swbuf_r
                0x00029ec0       0xa4 c:/users/spencer/appdata/local/arduino15/packages/adafruit/tools/arm-none-eabi-gcc/9-2019q4/bin/../lib/gcc/arm-none-eabi/9.2.1/../../../../arm-none-eabi/lib/thumb/v7e-m+fp/hard\libc_nano.a(lib_a-wbuf.o)
                0x00029ec0                __swbuf_r
 .text.__swsetup_r
                0x00029f64       0xdc c:/users/spencer/appdata/local/arduino15/packages/adafruit/tools/arm-none-eabi-gcc/9-2019q4/bin/../lib/gcc/arm-none-eabi/9.2.1/../../../../arm-none-eabi/lib/thumb/v7e-m+fp/hard\libc_nano.a(lib_a-wsetup.o)
                0x00029f64                __swsetup_r
 .text.quorem   0x0002a040      0x116 c:/users/spencer/appdata/local/arduino15/packages/adafruit/tools/arm-none-eabi-gcc/9-2019q4/bin/../lib/gcc/arm-none-eabi/9.2.1/../../../../arm-none-eabi/lib/thumb/v7e-m+fp/hard\libc_nano.a(lib_a-dtoa.o)
 *fill*         0x0002a156        0x2 
 .text._dtoa_r  0x0002a158      0xbbc c:/users/spencer/appdata/local/arduino15/packages/adafruit/tools/arm-none-eabi-gcc/9-2019q4/bin/../lib/gcc/arm-none-eabi/9.2.1/../../../../arm-none-eabi/lib/thumb/v7e-m+fp/hard\libc_nano.a(lib_a-dtoa.o)
                0x0002a158                _dtoa_r
 .text.__sflush_r
                0x0002ad14      0x10c c:/users/spencer/appdata/local/arduino15/packages/adafruit/tools/arm-none-eabi-gcc/9-2019q4/bin/../lib/gcc/arm-none-eabi/9.2.1/../../../../arm-none-eabi/lib/thumb/v7e-m+fp/hard\libc_nano.a(lib_a-fflush.o)
                0x0002ad14                __sflush_r
 .text._fflush_r
                0x0002ae20       0x78 c:/users/spencer/appdata/local/arduino15/packages/adafruit/tools/arm-none-eabi-gcc/9-2019q4/bin/../lib/gcc/arm-none-eabi/9.2.1/../../../../arm-none-eabi/lib/thumb/v7e-m+fp/hard\libc_nano.a(lib_a-fflush.o)
                0x0002ae20                _fflush_r
 .text.std      0x0002ae98       0x48 c:/users/spencer/appdata/local/arduino15/packages/adafruit/tools/arm-none-eabi-gcc/9-2019q4/bin/../lib/gcc/arm-none-eabi/9.2.1/../../../../arm-none-eabi/lib/thumb/v7e-m+fp/hard\libc_nano.a(lib_a-findfp.o)
 .text._cleanup_r
                0x0002aee0        0xc c:/users/spencer/appdata/local/arduino15/packages/adafruit/tools/arm-none-eabi-gcc/9-2019q4/bin/../lib/gcc/arm-none-eabi/9.2.1/../../../../arm-none-eabi/lib/thumb/v7e-m+fp/hard\libc_nano.a(lib_a-findfp.o)
                0x0002aee0                _cleanup_r
 .text.__sfmoreglue
                0x0002aeec       0x2c c:/users/spencer/appdata/local/arduino15/packages/adafruit/tools/arm-none-eabi-gcc/9-2019q4/bin/../lib/gcc/arm-none-eabi/9.2.1/../../../../arm-none-eabi/lib/thumb/v7e-m+fp/hard\libc_nano.a(lib_a-findfp.o)
                0x0002aeec                __sfmoreglue
 .text.__sfp_lock_acquire
                0x0002af18        0xc c:/users/spencer/appdata/local/arduino15/packages/adafruit/tools/arm-none-eabi-gcc/9-2019q4/bin/../lib/gcc/arm-none-eabi/9.2.1/../../../../arm-none-eabi/lib/thumb/v7e-m+fp/hard\libc_nano.a(lib_a-findfp.o)
                0x0002af18                __sfp_lock_acquire
 .text.__sfp_lock_release
                0x0002af24        0xc c:/users/spencer/appdata/local/arduino15/packages/adafruit/tools/arm-none-eabi-gcc/9-2019q4/bin/../lib/gcc/arm-none-eabi/9.2.1/../../../../arm-none-eabi/lib/thumb/v7e-m+fp/hard\libc_nano.a(lib_a-findfp.o)
                0x0002af24                __sfp_lock_release
 .text.__sinit_lock_acquire
                0x0002af30        0xc c:/users/spencer/appdata/local/arduino15/packages/adafruit/tools/arm-none-eabi-gcc/9-2019q4/bin/../lib/gcc/arm-none-eabi/9.2.1/../../../../arm-none-eabi/lib/thumb/v7e-m+fp/hard\libc_nano.a(lib_a-findfp.o)
                0x0002af30                __sinit_lock_acquire
 .text.__sinit_lock_release
                0x0002af3c        0xc c:/users/spencer/appdata/local/arduino15/packages/adafruit/tools/arm-none-eabi-gcc/9-2019q4/bin/../lib/gcc/arm-none-eabi/9.2.1/../../../../arm-none-eabi/lib/thumb/v7e-m+fp/hard\libc_nano.a(lib_a-findfp.o)
                0x0002af3c                __sinit_lock_release
 .text.__sinit  0x0002af48       0x70 c:/users/spencer/appdata/local/arduino15/packages/adafruit/tools/arm-none-eabi-gcc/9-2019q4/bin/../lib/gcc/arm-none-eabi/9.2.1/../../../../arm-none-eabi/lib/thumb/v7e-m+fp/hard\libc_nano.a(lib_a-findfp.o)
                0x0002af48                __sinit
 .text.__sfp    0x0002afb8       0x8c c:/users/spencer/appdata/local/arduino15/packages/adafruit/tools/arm-none-eabi-gcc/9-2019q4/bin/../lib/gcc/arm-none-eabi/9.2.1/../../../../arm-none-eabi/lib/thumb/v7e-m+fp/hard\libc_nano.a(lib_a-findfp.o)
                0x0002afb8                __sfp
 .text._fwalk_reent
                0x0002b044       0x3e c:/users/spencer/appdata/local/arduino15/packages/adafruit/tools/arm-none-eabi-gcc/9-2019q4/bin/../lib/gcc/arm-none-eabi/9.2.1/../../../../arm-none-eabi/lib/thumb/v7e-m+fp/hard\libc_nano.a(lib_a-fwalk.o)
                0x0002b044                _fwalk_reent
 *fill*         0x0002b082        0x2 
 .text._localeconv_r
                0x0002b084        0x8 c:/users/spencer/appdata/local/arduino15/packages/adafruit/tools/arm-none-eabi-gcc/9-2019q4/bin/../lib/gcc/arm-none-eabi/9.2.1/../../../../arm-none-eabi/lib/thumb/v7e-m+fp/hard\libc_nano.a(lib_a-localeconv.o)
                0x0002b084                _localeconv_r
 .text.__retarget_lock_init_recursive
                0x0002b08c        0x2 c:/users/spencer/appdata/local/arduino15/packages/adafruit/tools/arm-none-eabi-gcc/9-2019q4/bin/../lib/gcc/arm-none-eabi/9.2.1/../../../../arm-none-eabi/lib/thumb/v7e-m+fp/hard\libc_nano.a(lib_a-lock.o)
                0x0002b08c                __retarget_lock_init_recursive
 .text.__retarget_lock_acquire_recursive
                0x0002b08e        0x2 c:/users/spencer/appdata/local/arduino15/packages/adafruit/tools/arm-none-eabi-gcc/9-2019q4/bin/../lib/gcc/arm-none-eabi/9.2.1/../../../../arm-none-eabi/lib/thumb/v7e-m+fp/hard\libc_nano.a(lib_a-lock.o)
                0x0002b08e                __retarget_lock_acquire_recursive
 .text.__retarget_lock_release_recursive
                0x0002b090        0x2 c:/users/spencer/appdata/local/arduino15/packages/adafruit/tools/arm-none-eabi-gcc/9-2019q4/bin/../lib/gcc/arm-none-eabi/9.2.1/../../../../arm-none-eabi/lib/thumb/v7e-m+fp/hard\libc_nano.a(lib_a-lock.o)
                0x0002b090                __retarget_lock_release_recursive
 .text.__swhatbuf_r
                0x0002b092       0x48 c:/users/spencer/appdata/local/arduino15/packages/adafruit/tools/arm-none-eabi-gcc/9-2019q4/bin/../lib/gcc/arm-none-eabi/9.2.1/../../../../arm-none-eabi/lib/thumb/v7e-m+fp/hard\libc_nano.a(lib_a-makebuf.o)
                0x0002b092                __swhatbuf_r
 *fill*         0x0002b0da        0x2 
 .text.__smakebuf_r
                0x0002b0dc       0x80 c:/users/spencer/appdata/local/arduino15/packages/adafruit/tools/arm-none-eabi-gcc/9-2019q4/bin/../lib/gcc/arm-none-eabi/9.2.1/../../../../arm-none-eabi/lib/thumb/v7e-m+fp/hard\libc_nano.a(lib_a-makebuf.o)
                0x0002b0dc                __smakebuf_r
 *fill*         0x0002b15c        0x4 
 .text          0x0002b160       0xa0 c:/users/spencer/appdata/local/arduino15/packages/adafruit/tools/arm-none-eabi-gcc/9-2019q4/bin/../lib/gcc/arm-none-eabi/9.2.1/../../../../arm-none-eabi/lib/thumb/v7e-m+fp/hard\libc_nano.a(lib_a-memchr.o)
                0x0002b160                memchr
 .text.__malloc_lock
                0x0002b200        0xc c:/users/spencer/appdata/local/arduino15/packages/adafruit/tools/arm-none-eabi-gcc/9-2019q4/bin/../lib/gcc/arm-none-eabi/9.2.1/../../../../arm-none-eabi/lib/thumb/v7e-m+fp/hard\libc_nano.a(lib_a-mlock.o)
                0x0002b200                __malloc_lock
 .text.__malloc_unlock
                0x0002b20c        0xc c:/users/spencer/appdata/local/arduino15/packages/adafruit/tools/arm-none-eabi-gcc/9-2019q4/bin/../lib/gcc/arm-none-eabi/9.2.1/../../../../arm-none-eabi/lib/thumb/v7e-m+fp/hard\libc_nano.a(lib_a-mlock.o)
                0x0002b20c                __malloc_unlock
 .text._Balloc  0x0002b218       0x68 c:/users/spencer/appdata/local/arduino15/packages/adafruit/tools/arm-none-eabi-gcc/9-2019q4/bin/../lib/gcc/arm-none-eabi/9.2.1/../../../../arm-none-eabi/lib/thumb/v7e-m+fp/hard\libc_nano.a(lib_a-mprec.o)
                0x0002b218                _Balloc
 .text._Bfree   0x0002b280       0x2e c:/users/spencer/appdata/local/arduino15/packages/adafruit/tools/arm-none-eabi-gcc/9-2019q4/bin/../lib/gcc/arm-none-eabi/9.2.1/../../../../arm-none-eabi/lib/thumb/v7e-m+fp/hard\libc_nano.a(lib_a-mprec.o)
                0x0002b280                _Bfree
 .text.__multadd
                0x0002b2ae       0x7c c:/users/spencer/appdata/local/arduino15/packages/adafruit/tools/arm-none-eabi-gcc/9-2019q4/bin/../lib/gcc/arm-none-eabi/9.2.1/../../../../arm-none-eabi/lib/thumb/v7e-m+fp/hard\libc_nano.a(lib_a-mprec.o)
                0x0002b2ae                __multadd
 .text.__hi0bits
                0x0002b32a       0x40 c:/users/spencer/appdata/local/arduino15/packages/adafruit/tools/arm-none-eabi-gcc/9-2019q4/bin/../lib/gcc/arm-none-eabi/9.2.1/../../../../arm-none-eabi/lib/thumb/v7e-m+fp/hard\libc_nano.a(lib_a-mprec.o)
                0x0002b32a                __hi0bits
 .text.__lo0bits
                0x0002b36a       0x60 c:/users/spencer/appdata/local/arduino15/packages/adafruit/tools/arm-none-eabi-gcc/9-2019q4/bin/../lib/gcc/arm-none-eabi/9.2.1/../../../../arm-none-eabi/lib/thumb/v7e-m+fp/hard\libc_nano.a(lib_a-mprec.o)
                0x0002b36a                __lo0bits
 .text.__i2b    0x0002b3ca       0x12 c:/users/spencer/appdata/local/arduino15/packages/adafruit/tools/arm-none-eabi-gcc/9-2019q4/bin/../lib/gcc/arm-none-eabi/9.2.1/../../../../arm-none-eabi/lib/thumb/v7e-m+fp/hard\libc_nano.a(lib_a-mprec.o)
                0x0002b3ca                __i2b
 .text.__multiply
                0x0002b3dc      0x138 c:/users/spencer/appdata/local/arduino15/packages/adafruit/tools/arm-none-eabi-gcc/9-2019q4/bin/../lib/gcc/arm-none-eabi/9.2.1/../../../../arm-none-eabi/lib/thumb/v7e-m+fp/hard\libc_nano.a(lib_a-mprec.o)
                0x0002b3dc                __multiply
 .text.__pow5mult
                0x0002b514       0x9c c:/users/spencer/appdata/local/arduino15/packages/adafruit/tools/arm-none-eabi-gcc/9-2019q4/bin/../lib/gcc/arm-none-eabi/9.2.1/../../../../arm-none-eabi/lib/thumb/v7e-m+fp/hard\libc_nano.a(lib_a-mprec.o)
                0x0002b514                __pow5mult
 .text.__lshift
                0x0002b5b0       0xbe c:/users/spencer/appdata/local/arduino15/packages/adafruit/tools/arm-none-eabi-gcc/9-2019q4/bin/../lib/gcc/arm-none-eabi/9.2.1/../../../../arm-none-eabi/lib/thumb/v7e-m+fp/hard\libc_nano.a(lib_a-mprec.o)
                0x0002b5b0                __lshift
 .text.__mcmp   0x0002b66e       0x38 c:/users/spencer/appdata/local/arduino15/packages/adafruit/tools/arm-none-eabi-gcc/9-2019q4/bin/../lib/gcc/arm-none-eabi/9.2.1/../../../../arm-none-eabi/lib/thumb/v7e-m+fp/hard\libc_nano.a(lib_a-mprec.o)
                0x0002b66e                __mcmp
 .text.__mdiff  0x0002b6a6       0xec c:/users/spencer/appdata/local/arduino15/packages/adafruit/tools/arm-none-eabi-gcc/9-2019q4/bin/../lib/gcc/arm-none-eabi/9.2.1/../../../../arm-none-eabi/lib/thumb/v7e-m+fp/hard\libc_nano.a(lib_a-mprec.o)
                0x0002b6a6                __mdiff
 .text.__d2b    0x0002b792       0xa0 c:/users/spencer/appdata/local/arduino15/packages/adafruit/tools/arm-none-eabi-gcc/9-2019q4/bin/../lib/gcc/arm-none-eabi/9.2.1/../../../../arm-none-eabi/lib/thumb/v7e-m+fp/hard\libc_nano.a(lib_a-mprec.o)
                0x0002b792                __d2b
 .text._calloc_r
                0x0002b832       0x1e c:/users/spencer/appdata/local/arduino15/packages/adafruit/tools/arm-none-eabi-gcc/9-2019q4/bin/../lib/gcc/arm-none-eabi/9.2.1/../../../../arm-none-eabi/lib/thumb/v7e-m+fp/hard\libc_nano.a(lib_a-nano-callocr.o)
                0x0002b832                _calloc_r
 .text.__ssputs_r
                0x0002b850       0xb6 c:/users/spencer/appdata/local/arduino15/packages/adafruit/tools/arm-none-eabi-gcc/9-2019q4/bin/../lib/gcc/arm-none-eabi/9.2.1/../../../../arm-none-eabi/lib/thumb/v7e-m+fp/hard\libc_nano.a(lib_a-nano-svfprintf.o)
                0x0002b850                __ssputs_r
 *fill*         0x0002b906        0x2 
 .text._svfprintf_r
                0x0002b908      0x200 c:/users/spencer/appdata/local/arduino15/packages/adafruit/tools/arm-none-eabi-gcc/9-2019q4/bin/../lib/gcc/arm-none-eabi/9.2.1/../../../../arm-none-eabi/lib/thumb/v7e-m+fp/hard\libc_nano.a(lib_a-nano-svfprintf.o)
                0x0002b908                _svfiprintf_r
                0x0002b908                _svfprintf_r
 .text.__sfputc_r
                0x0002bb08       0x2e c:/users/spencer/appdata/local/arduino15/packages/adafruit/tools/arm-none-eabi-gcc/9-2019q4/bin/../lib/gcc/arm-none-eabi/9.2.1/../../../../arm-none-eabi/lib/thumb/v7e-m+fp/hard\libc_nano.a(lib_a-nano-vfprintf.o)
 .text.__sfputs_r
                0x0002bb36       0x24 c:/users/spencer/appdata/local/arduino15/packages/adafruit/tools/arm-none-eabi-gcc/9-2019q4/bin/../lib/gcc/arm-none-eabi/9.2.1/../../../../arm-none-eabi/lib/thumb/v7e-m+fp/hard\libc_nano.a(lib_a-nano-vfprintf.o)
                0x0002bb36                __sfputs_r
 *fill*         0x0002bb5a        0x2 
 .text._vfprintf_r
                0x0002bb5c      0x260 c:/users/spencer/appdata/local/arduino15/packages/adafruit/tools/arm-none-eabi-gcc/9-2019q4/bin/../lib/gcc/arm-none-eabi/9.2.1/../../../../arm-none-eabi/lib/thumb/v7e-m+fp/hard\libc_nano.a(lib_a-nano-vfprintf.o)
                0x0002bb5c                _vfprintf_r
                0x0002bb5c                _vfiprintf_r
 .text._putc_r  0x0002bdbc       0x90 c:/users/spencer/appdata/local/arduino15/packages/adafruit/tools/arm-none-eabi-gcc/9-2019q4/bin/../lib/gcc/arm-none-eabi/9.2.1/../../../../arm-none-eabi/lib/thumb/v7e-m+fp/hard\libc_nano.a(lib_a-putc.o)
                0x0002bdbc                _putc_r
 .text.__sread  0x0002be4c       0x22 c:/users/spencer/appdata/local/arduino15/packages/adafruit/tools/arm-none-eabi-gcc/9-2019q4/bin/../lib/gcc/arm-none-eabi/9.2.1/../../../../arm-none-eabi/lib/thumb/v7e-m+fp/hard\libc_nano.a(lib_a-stdio.o)
                0x0002be4c                __sread
 .text.__swrite
                0x0002be6e       0x38 c:/users/spencer/appdata/local/arduino15/packages/adafruit/tools/arm-none-eabi-gcc/9-2019q4/bin/../lib/gcc/arm-none-eabi/9.2.1/../../../../arm-none-eabi/lib/thumb/v7e-m+fp/hard\libc_nano.a(lib_a-stdio.o)
                0x0002be6e                __swrite
 .text.__sseek  0x0002bea6       0x24 c:/users/spencer/appdata/local/arduino15/packages/adafruit/tools/arm-none-eabi-gcc/9-2019q4/bin/../lib/gcc/arm-none-eabi/9.2.1/../../../../arm-none-eabi/lib/thumb/v7e-m+fp/hard\libc_nano.a(lib_a-stdio.o)
                0x0002bea6                __sseek
 .text.__sclose
                0x0002beca        0x8 c:/users/spencer/appdata/local/arduino15/packages/adafruit/tools/arm-none-eabi-gcc/9-2019q4/bin/../lib/gcc/arm-none-eabi/9.2.1/../../../../arm-none-eabi/lib/thumb/v7e-m+fp/hard\libc_nano.a(lib_a-stdio.o)
                0x0002beca                __sclose
 *fill*         0x0002bed2        0x2 
 .text._write_r
                0x0002bed4       0x24 c:/users/spencer/appdata/local/arduino15/packages/adafruit/tools/arm-none-eabi-gcc/9-2019q4/bin/../lib/gcc/arm-none-eabi/9.2.1/../../../../arm-none-eabi/lib/thumb/v7e-m+fp/hard\libc_nano.a(lib_a-writer.o)
                0x0002bed4                _write_r
 .text._close_r
                0x0002bef8       0x20 c:/users/spencer/appdata/local/arduino15/packages/adafruit/tools/arm-none-eabi-gcc/9-2019q4/bin/../lib/gcc/arm-none-eabi/9.2.1/../../../../arm-none-eabi/lib/thumb/v7e-m+fp/hard\libc_nano.a(lib_a-closer.o)
                0x0002bef8                _close_r
 .text._fstat_r
                0x0002bf18       0x24 c:/users/spencer/appdata/local/arduino15/packages/adafruit/tools/arm-none-eabi-gcc/9-2019q4/bin/../lib/gcc/arm-none-eabi/9.2.1/../../../../arm-none-eabi/lib/thumb/v7e-m+fp/hard\libc_nano.a(lib_a-fstatr.o)
                0x0002bf18                _fstat_r
 .text._isatty_r
                0x0002bf3c       0x20 c:/users/spencer/appdata/local/arduino15/packages/adafruit/tools/arm-none-eabi-gcc/9-2019q4/bin/../lib/gcc/arm-none-eabi/9.2.1/../../../../arm-none-eabi/lib/thumb/v7e-m+fp/hard\libc_nano.a(lib_a-isattyr.o)
                0x0002bf3c                _isatty_r
 .text._lseek_r
                0x0002bf5c       0x24 c:/users/spencer/appdata/local/arduino15/packages/adafruit/tools/arm-none-eabi-gcc/9-2019q4/bin/../lib/gcc/arm-none-eabi/9.2.1/../../../../arm-none-eabi/lib/thumb/v7e-m+fp/hard\libc_nano.a(lib_a-lseekr.o)
                0x0002bf5c                _lseek_r
 .text.__ascii_mbtowc
                0x0002bf80       0x24 c:/users/spencer/appdata/local/arduino15/packages/adafruit/tools/arm-none-eabi-gcc/9-2019q4/bin/../lib/gcc/arm-none-eabi/9.2.1/../../../../arm-none-eabi/lib/thumb/v7e-m+fp/hard\libc_nano.a(lib_a-mbtowc_r.o)
                0x0002bf80                __ascii_mbtowc
 .text.memmove  0x0002bfa4       0x34 c:/users/spencer/appdata/local/arduino15/packages/adafruit/tools/arm-none-eabi-gcc/9-2019q4/bin/../lib/gcc/arm-none-eabi/9.2.1/../../../../arm-none-eabi/lib/thumb/v7e-m+fp/hard\libc_nano.a(lib_a-memmove.o)
                0x0002bfa4                memmove
 .text._realloc_r
                0x0002bfd8       0x4c c:/users/spencer/appdata/local/arduino15/packages/adafruit/tools/arm-none-eabi-gcc/9-2019q4/bin/../lib/gcc/arm-none-eabi/9.2.1/../../../../arm-none-eabi/lib/thumb/v7e-m+fp/hard\libc_nano.a(lib_a-nano-reallocr.o)
                0x0002bfd8                _realloc_r
 .text._read_r  0x0002c024       0x24 c:/users/spencer/appdata/local/arduino15/packages/adafruit/tools/arm-none-eabi-gcc/9-2019q4/bin/../lib/gcc/arm-none-eabi/9.2.1/../../../../arm-none-eabi/lib/thumb/v7e-m+fp/hard\libc_nano.a(lib_a-readr.o)
                0x0002c024                _read_r
 .text.__ascii_wctomb
                0x0002c048       0x1a c:/users/spencer/appdata/local/arduino15/packages/adafruit/tools/arm-none-eabi-gcc/9-2019q4/bin/../lib/gcc/arm-none-eabi/9.2.1/../../../../arm-none-eabi/lib/thumb/v7e-m+fp/hard\libc_nano.a(lib_a-wctomb_r.o)
                0x0002c048                __ascii_wctomb
 .text._malloc_usable_size_r
                0x0002c062       0x10 c:/users/spencer/appdata/local/arduino15/packages/adafruit/tools/arm-none-eabi-gcc/9-2019q4/bin/../lib/gcc/arm-none-eabi/9.2.1/../../../../arm-none-eabi/lib/thumb/v7e-m+fp/hard\libc_nano.a(lib_a-nano-msizer.o)
                0x0002c062                _malloc_usable_size_r
 *fill*         0x0002c072        0x2 
 .text          0x0002c074      0x378 c:/users/spencer/appdata/local/arduino15/packages/adafruit/tools/arm-none-eabi-gcc/9-2019q4/bin/../lib/gcc/arm-none-eabi/9.2.1/thumb/v7e-m+fp/hard\libgcc.a(_arm_addsubdf3.o)
                0x0002c074                __aeabi_drsub
                0x0002c07c                __aeabi_dsub
                0x0002c07c                __subdf3
                0x0002c080                __aeabi_dadd
                0x0002c080                __adddf3
                0x0002c2f8                __floatunsidf
                0x0002c2f8                __aeabi_ui2d
                0x0002c318                __floatsidf
                0x0002c318                __aeabi_i2d
                0x0002c33c                __aeabi_f2d
                0x0002c33c                __extendsfdf2
                0x0002c380                __floatundidf
                0x0002c380                __aeabi_ul2d
                0x0002c390                __floatdidf
                0x0002c390                __aeabi_l2d
 .text          0x0002c3ec      0x424 c:/users/spencer/appdata/local/arduino15/packages/adafruit/tools/arm-none-eabi-gcc/9-2019q4/bin/../lib/gcc/arm-none-eabi/9.2.1/thumb/v7e-m+fp/hard\libgcc.a(_arm_muldivdf3.o)
                0x0002c3ec                __aeabi_dmul
                0x0002c3ec                __muldf3
                0x0002c640                __divdf3
                0x0002c640                __aeabi_ddiv
 .text          0x0002c810      0x110 c:/users/spencer/appdata/local/arduino15/packages/adafruit/tools/arm-none-eabi-gcc/9-2019q4/bin/../lib/gcc/arm-none-eabi/9.2.1/thumb/v7e-m+fp/hard\libgcc.a(_arm_cmpdf2.o)
                0x0002c810                __gtdf2
                0x0002c810                __gedf2
                0x0002c818                __ltdf2
                0x0002c818                __ledf2
                0x0002c820                __nedf2
                0x0002c820                __eqdf2
                0x0002c820                __cmpdf2
                0x0002c89c                __aeabi_cdrcmple
                0x0002c8ac                __aeabi_cdcmpeq
                0x0002c8ac                __aeabi_cdcmple
                0x0002c8bc                __aeabi_dcmpeq
                0x0002c8d0                __aeabi_dcmplt
                0x0002c8e4                __aeabi_dcmple
                0x0002c8f8                __aeabi_dcmpge
                0x0002c90c                __aeabi_dcmpgt
 .text          0x0002c920       0x2c c:/users/spencer/appdata/local/arduino15/packages/adafruit/tools/arm-none-eabi-gcc/9-2019q4/bin/../lib/gcc/arm-none-eabi/9.2.1/thumb/v7e-m+fp/hard\libgcc.a(_arm_unorddf2.o)
                0x0002c920                __unorddf2
                0x0002c920                __aeabi_dcmpun
 .text          0x0002c94c       0x50 c:/users/spencer/appdata/local/arduino15/packages/adafruit/tools/arm-none-eabi-gcc/9-2019q4/bin/../lib/gcc/arm-none-eabi/9.2.1/thumb/v7e-m+fp/hard\libgcc.a(_arm_fixdfsi.o)
                0x0002c94c                __aeabi_d2iz
                0x0002c94c                __fixdfsi
 .text._close   0x0002c99c       0x10 c:/users/spencer/appdata/local/arduino15/packages/adafruit/tools/arm-none-eabi-gcc/9-2019q4/bin/../lib/gcc/arm-none-eabi/9.2.1/../../../../arm-none-eabi/lib/thumb/v7e-m+fp/hard\libnosys.a(close.o)
                0x0002c99c                _close
 .text._fstat   0x0002c9ac       0x10 c:/users/spencer/appdata/local/arduino15/packages/adafruit/tools/arm-none-eabi-gcc/9-2019q4/bin/../lib/gcc/arm-none-eabi/9.2.1/../../../../arm-none-eabi/lib/thumb/v7e-m+fp/hard\libnosys.a(fstat.o)
                0x0002c9ac                _fstat
 .text._isatty  0x0002c9bc       0x10 c:/users/spencer/appdata/local/arduino15/packages/adafruit/tools/arm-none-eabi-gcc/9-2019q4/bin/../lib/gcc/arm-none-eabi/9.2.1/../../../../arm-none-eabi/lib/thumb/v7e-m+fp/hard\libnosys.a(isatty.o)
                0x0002c9bc                _isatty
 .text._lseek   0x0002c9cc       0x10 c:/users/spencer/appdata/local/arduino15/packages/adafruit/tools/arm-none-eabi-gcc/9-2019q4/bin/../lib/gcc/arm-none-eabi/9.2.1/../../../../arm-none-eabi/lib/thumb/v7e-m+fp/hard\libnosys.a(lseek.o)
                0x0002c9cc                _lseek
 .text._read    0x0002c9dc       0x10 c:/users/spencer/appdata/local/arduino15/packages/adafruit/tools/arm-none-eabi-gcc/9-2019q4/bin/../lib/gcc/arm-none-eabi/9.2.1/../../../../arm-none-eabi/lib/thumb/v7e-m+fp/hard\libnosys.a(read.o)
                0x0002c9dc                _read
 .text._sbrk    0x0002c9ec       0x1c c:/users/spencer/appdata/local/arduino15/packages/adafruit/tools/arm-none-eabi-gcc/9-2019q4/bin/../lib/gcc/arm-none-eabi/9.2.1/../../../../arm-none-eabi/lib/thumb/v7e-m+fp/hard\libnosys.a(sbrk.o)
                0x0002c9ec                _sbrk
 .text._exit    0x0002ca08        0x4 c:/users/spencer/appdata/local/arduino15/packages/adafruit/tools/arm-none-eabi-gcc/9-2019q4/bin/../lib/gcc/arm-none-eabi/9.2.1/../../../../arm-none-eabi/lib/thumb/v7e-m+fp/hard\libnosys.a(_exit.o)
                0x0002ca08                _exit
 *(.init)
 .init          0x0002ca0c        0x4 c:/users/spencer/appdata/local/arduino15/packages/adafruit/tools/arm-none-eabi-gcc/9-2019q4/bin/../lib/gcc/arm-none-eabi/9.2.1/thumb/v7e-m+fp/hard/crti.o
                0x0002ca0c                _init
 .init          0x0002ca10        0x8 c:/users/spencer/appdata/local/arduino15/packages/adafruit/tools/arm-none-eabi-gcc/9-2019q4/bin/../lib/gcc/arm-none-eabi/9.2.1/thumb/v7e-m+fp/hard/crtn.o
 *(.fini)
 .fini          0x0002ca18        0x4 c:/users/spencer/appdata/local/arduino15/packages/adafruit/tools/arm-none-eabi-gcc/9-2019q4/bin/../lib/gcc/arm-none-eabi/9.2.1/thumb/v7e-m+fp/hard/crti.o
                0x0002ca18                _fini
 .fini          0x0002ca1c        0x8 c:/users/spencer/appdata/local/arduino15/packages/adafruit/tools/arm-none-eabi-gcc/9-2019q4/bin/../lib/gcc/arm-none-eabi/9.2.1/thumb/v7e-m+fp/hard/crtn.o
 *crtbegin.o(.ctors)
 *crtbegin?.o(.ctors)
 *(EXCLUDE_FILE(*crtend.o *crtend?.o) .ctors)
 *(SORT_BY_NAME(.ctors.*))
 *(.ctors)
 *crtbegin.o(.dtors)
 *crtbegin?.o(.dtors)
 *(EXCLUDE_FILE(*crtend.o *crtend?.o) .dtors)
 *(SORT_BY_NAME(.dtors.*))
 *(.dtors)
 *(.rodata*)
 .rodata.g_ADigitalPinMap
                0x0002ca24       0x80 c:\Users\Spencer\Desktop\Keyboard\Firmware\BadgersRunFirmware\Build\core\variant.cpp.o
                0x0002ca24                g_ADigitalPinMap
 .rodata.CSWTCH.14
                0x0002caa4        0x4 c:\Users\Spencer\Desktop\Keyboard\Firmware\BadgersRunFirmware\Build/core\core.a(system_nrf52.c.o)
 .rodata.CSWTCH.18
                0x0002caa8        0x4 c:\Users\Spencer\Desktop\Keyboard\Firmware\BadgersRunFirmware\Build/core\core.a(system_nrf52.c.o)
 .rodata.CSWTCH.4
                0x0002caac        0x4 c:\Users\Spencer\Desktop\Keyboard\Firmware\BadgersRunFirmware\Build/core\core.a(system_nrf52.c.o)
 .rodata.main.str1.4
                0x0002cab0        0x5 c:\Users\Spencer\Desktop\Keyboard\Firmware\BadgersRunFirmware\Build/core\core.a(main.cpp.o)
 *fill*         0x0002cab5        0x3 
 .rodata.vApplicationStackOverflowHook.str1.4
                0x0002cab8       0x2c c:\Users\Spencer\Desktop\Keyboard\Firmware\BadgersRunFirmware\Build/core\core.a(rtos.cpp.o)
 .rodata.vApplicationMallocFailedHook.str1.4
                0x0002cae4       0x1a c:\Users\Spencer\Desktop\Keyboard\Firmware\BadgersRunFirmware\Build/core\core.a(rtos.cpp.o)
 *fill*         0x0002cafe        0x2 
 .rodata.dbgPrintVersion.str1.4
                0x0002cb00       0x3e c:\Users\Spencer\Desktop\Keyboard\Firmware\BadgersRunFirmware\Build/core\core.a(debug.cpp.o)
 *fill*         0x0002cb3e        0x2 
 .rodata.dbg_err_str.str1.4
                0x0002cb40        0x8 c:\Users\Spencer\Desktop\Keyboard\Firmware\BadgersRunFirmware\Build/core\core.a(debug.cpp.o)
 .rodata.str1.4
                0x0002cb48      0xe92 c:\Users\Spencer\Desktop\Keyboard\Firmware\BadgersRunFirmware\Build/core\core.a(debug.cpp.o)
 *fill*         0x0002d9da        0x2 
 .rodata._ZL13_strerr_table
                0x0002d9dc        0x8 c:\Users\Spencer\Desktop\Keyboard\Firmware\BadgersRunFirmware\Build/core\core.a(debug.cpp.o)
 .rodata._ZL14_strerr_lookup
                0x0002d9e4      0x178 c:\Users\Spencer\Desktop\Keyboard\Firmware\BadgersRunFirmware\Build/core\core.a(debug.cpp.o)
 .rodata.xTimerCreateTimerTask.str1.4
                0x0002db5c       0x10 c:\Users\Spencer\Desktop\Keyboard\Firmware\BadgersRunFirmware\Build/core\core.a(timers.c.o)
 .rodata.adafruit_callback_task.str1.4
                0x0002db6c       0x20 c:\Users\Spencer\Desktop\Keyboard\Firmware\BadgersRunFirmware\Build/core\core.a(AdaCallback.c.o)
 .rodata.ada_callback_init.str1.4
                0x0002db8c        0x9 c:\Users\Spencer\Desktop\Keyboard\Firmware\BadgersRunFirmware\Build/core\core.a(AdaCallback.c.o)
 *fill*         0x0002db95        0x3 
 .rodata.__PRETTY_FUNCTION__.11486
                0x0002db98       0x17 c:\Users\Spencer\Desktop\Keyboard\Firmware\BadgersRunFirmware\Build/core\core.a(AdaCallback.c.o)
 *fill*         0x0002dbaf        0x1 
 .rodata.getBootloaderVersion.str1.4
                0x0002dbb0       0x11 c:\Users\Spencer\Desktop\Keyboard\Firmware\BadgersRunFirmware\Build/core\core.a(utilities.c.o)
 *fill*         0x0002dbc1        0x3 
 .rodata.getMcuUniqueID.str1.4
                0x0002dbc4        0xb c:\Users\Spencer\Desktop\Keyboard\Firmware\BadgersRunFirmware\Build/core\core.a(utilities.c.o)
 *fill*         0x0002dbcf        0x1 
 .rodata._ZTV4Uart
                0x0002dbd0       0x34 c:\Users\Spencer\Desktop\Keyboard\Firmware\BadgersRunFirmware\Build/core\core.a(Uart.cpp.o)
                0x0002dbd0                vtable for Uart
 .rodata._global_impure_ptr
                0x0002dc04        0x4 c:/users/spencer/appdata/local/arduino15/packages/adafruit/tools/arm-none-eabi-gcc/9-2019q4/bin/../lib/gcc/arm-none-eabi/9.2.1/../../../../arm-none-eabi/lib/thumb/v7e-m+fp/hard\libc_nano.a(lib_a-impure.o)
                0x0002dc04                _global_impure_ptr
 .rodata._printf_float.str1.1
                0x0002dc08       0x12 c:/users/spencer/appdata/local/arduino15/packages/adafruit/tools/arm-none-eabi-gcc/9-2019q4/bin/../lib/gcc/arm-none-eabi/9.2.1/../../../../arm-none-eabi/lib/thumb/v7e-m+fp/hard\libc_nano.a(lib_a-nano-vfprintf_float.o)
 .rodata._printf_i.str1.1
                0x0002dc1a       0x22 c:/users/spencer/appdata/local/arduino15/packages/adafruit/tools/arm-none-eabi-gcc/9-2019q4/bin/../lib/gcc/arm-none-eabi/9.2.1/../../../../arm-none-eabi/lib/thumb/v7e-m+fp/hard\libc_nano.a(lib_a-nano-vfprintf_i.o)
 .rodata._ctype_
                0x0002dc3c      0x101 c:/users/spencer/appdata/local/arduino15/packages/adafruit/tools/arm-none-eabi-gcc/9-2019q4/bin/../lib/gcc/arm-none-eabi/9.2.1/../../../../arm-none-eabi/lib/thumb/v7e-m+fp/hard\libc_nano.a(lib_a-ctype_.o)
                0x0002dc3c                _ctype_
 .rodata._dtoa_r.str1.1
                0x0002dd3d        0xd c:/users/spencer/appdata/local/arduino15/packages/adafruit/tools/arm-none-eabi-gcc/9-2019q4/bin/../lib/gcc/arm-none-eabi/9.2.1/../../../../arm-none-eabi/lib/thumb/v7e-m+fp/hard\libc_nano.a(lib_a-dtoa.o)
                                  0xf (size before relaxing)
 *fill*         0x0002dd4a        0x2 
 .rodata.__sf_fake_stderr
                0x0002dd4c       0x20 c:/users/spencer/appdata/local/arduino15/packages/adafruit/tools/arm-none-eabi-gcc/9-2019q4/bin/../lib/gcc/arm-none-eabi/9.2.1/../../../../arm-none-eabi/lib/thumb/v7e-m+fp/hard\libc_nano.a(lib_a-findfp.o)
                0x0002dd4c                __sf_fake_stderr
 .rodata.__sf_fake_stdin
                0x0002dd6c       0x20 c:/users/spencer/appdata/local/arduino15/packages/adafruit/tools/arm-none-eabi-gcc/9-2019q4/bin/../lib/gcc/arm-none-eabi/9.2.1/../../../../arm-none-eabi/lib/thumb/v7e-m+fp/hard\libc_nano.a(lib_a-findfp.o)
                0x0002dd6c                __sf_fake_stdin
 .rodata.__sf_fake_stdout
                0x0002dd8c       0x20 c:/users/spencer/appdata/local/arduino15/packages/adafruit/tools/arm-none-eabi-gcc/9-2019q4/bin/../lib/gcc/arm-none-eabi/9.2.1/../../../../arm-none-eabi/lib/thumb/v7e-m+fp/hard\libc_nano.a(lib_a-findfp.o)
                0x0002dd8c                __sf_fake_stdout
 *fill*         0x0002ddac        0x4 
 .rodata.__mprec_bigtens
                0x0002ddb0       0x28 c:/users/spencer/appdata/local/arduino15/packages/adafruit/tools/arm-none-eabi-gcc/9-2019q4/bin/../lib/gcc/arm-none-eabi/9.2.1/../../../../arm-none-eabi/lib/thumb/v7e-m+fp/hard\libc_nano.a(lib_a-mprec.o)
                0x0002ddb0                __mprec_bigtens
 .rodata.__mprec_tens
                0x0002ddd8       0xc8 c:/users/spencer/appdata/local/arduino15/packages/adafruit/tools/arm-none-eabi-gcc/9-2019q4/bin/../lib/gcc/arm-none-eabi/9.2.1/../../../../arm-none-eabi/lib/thumb/v7e-m+fp/hard\libc_nano.a(lib_a-mprec.o)
                0x0002ddd8                __mprec_tens
 .rodata.p05.7490
                0x0002dea0        0xc c:/users/spencer/appdata/local/arduino15/packages/adafruit/tools/arm-none-eabi-gcc/9-2019q4/bin/../lib/gcc/arm-none-eabi/9.2.1/../../../../arm-none-eabi/lib/thumb/v7e-m+fp/hard\libc_nano.a(lib_a-mprec.o)
 .rodata._svfprintf_r.str1.1
                0x0002deac       0x11 c:/users/spencer/appdata/local/arduino15/packages/adafruit/tools/arm-none-eabi-gcc/9-2019q4/bin/../lib/gcc/arm-none-eabi/9.2.1/../../../../arm-none-eabi/lib/thumb/v7e-m+fp/hard\libc_nano.a(lib_a-nano-svfprintf.o)
 .rodata._vfprintf_r.str1.1
                0x0002debd       0x11 c:/users/spencer/appdata/local/arduino15/packages/adafruit/tools/arm-none-eabi-gcc/9-2019q4/bin/../lib/gcc/arm-none-eabi/9.2.1/../../../../arm-none-eabi/lib/thumb/v7e-m+fp/hard\libc_nano.a(lib_a-nano-vfprintf.o)
 .rodata._setlocale_r.str1.1
                0x0002debd        0x8 c:/users/spencer/appdata/local/arduino15/packages/adafruit/tools/arm-none-eabi-gcc/9-2019q4/bin/../lib/gcc/arm-none-eabi/9.2.1/../../../../arm-none-eabi/lib/thumb/v7e-m+fp/hard\libc_nano.a(lib_a-locale.o)
                                  0x9 (size before relaxing)
 .rodata.str1.1
                0x0002dec5        0x2 c:/users/spencer/appdata/local/arduino15/packages/adafruit/tools/arm-none-eabi-gcc/9-2019q4/bin/../lib/gcc/arm-none-eabi/9.2.1/../../../../arm-none-eabi/lib/thumb/v7e-m+fp/hard\libc_nano.a(lib_a-locale.o)
 *(.eh_frame*)
 *fill*         0x0002dec7        0x1 
 .eh_frame      0x0002dec8        0x0 c:/users/spencer/appdata/local/arduino15/packages/adafruit/tools/arm-none-eabi-gcc/9-2019q4/bin/../lib/gcc/arm-none-eabi/9.2.1/thumb/v7e-m+fp/hard/crtbegin.o
 .eh_frame      0x0002dec8        0x4 c:/users/spencer/appdata/local/arduino15/packages/adafruit/tools/arm-none-eabi-gcc/9-2019q4/bin/../lib/gcc/arm-none-eabi/9.2.1/thumb/v7e-m+fp/hard/crtend.o

.glue_7         0x0002decc        0x0
 .glue_7        0x0002decc        0x0 linker stubs

.glue_7t        0x0002decc        0x0
 .glue_7t       0x0002decc        0x0 linker stubs

.vfp11_veneer   0x0002decc        0x0
 .vfp11_veneer  0x0002decc        0x0 linker stubs

.v4_bx          0x0002decc        0x0
 .v4_bx         0x0002decc        0x0 linker stubs

.iplt           0x0002decc        0x0
 .iplt          0x0002decc        0x0 c:/users/spencer/appdata/local/arduino15/packages/adafruit/tools/arm-none-eabi-gcc/9-2019q4/bin/../lib/gcc/arm-none-eabi/9.2.1/thumb/v7e-m+fp/hard/crtfastmath.o

.ARM.extab
 *(.ARM.extab* .gnu.linkonce.armextab.*)
                0x0002decc                __exidx_start = .

.ARM.exidx      0x0002decc        0x8
 *(.ARM.exidx* .gnu.linkonce.armexidx.*)
 .ARM.exidx     0x0002decc        0x8 c:/users/spencer/appdata/local/arduino15/packages/adafruit/tools/arm-none-eabi-gcc/9-2019q4/bin/../lib/gcc/arm-none-eabi/9.2.1/../../../../arm-none-eabi/lib/thumb/v7e-m+fp/hard/crt0.o
                0x0002ded4                __exidx_end = .
                0x0002ded4                __etext = .

.rel.dyn        0x0002ded4        0x0
 .rel.iplt      0x0002ded4        0x0 c:/users/spencer/appdata/local/arduino15/packages/adafruit/tools/arm-none-eabi-gcc/9-2019q4/bin/../lib/gcc/arm-none-eabi/9.2.1/thumb/v7e-m+fp/hard/crtfastmath.o

.data           0x20003600      0x1e4 load address 0x0002ded4
                0x20003600                __data_start__ = .
 *(vtable)
 *(.data*)
 .data.SystemCoreClock
                0x20003600        0x4 c:\Users\Spencer\Desktop\Keyboard\Firmware\BadgersRunFirmware\Build/core\core.a(system_nrf52.c.o)
                0x20003600                SystemCoreClock
 .data._impure_ptr
                0x20003604        0x4 c:/users/spencer/appdata/local/arduino15/packages/adafruit/tools/arm-none-eabi-gcc/9-2019q4/bin/../lib/gcc/arm-none-eabi/9.2.1/../../../../arm-none-eabi/lib/thumb/v7e-m+fp/hard\libc_nano.a(lib_a-impure.o)
                0x20003604                _impure_ptr
 .data.impure_data
                0x20003608       0x60 c:/users/spencer/appdata/local/arduino15/packages/adafruit/tools/arm-none-eabi-gcc/9-2019q4/bin/../lib/gcc/arm-none-eabi/9.2.1/../../../../arm-none-eabi/lib/thumb/v7e-m+fp/hard\libc_nano.a(lib_a-impure.o)
 .data.__global_locale
                0x20003668      0x16c c:/users/spencer/appdata/local/arduino15/packages/adafruit/tools/arm-none-eabi-gcc/9-2019q4/bin/../lib/gcc/arm-none-eabi/9.2.1/../../../../arm-none-eabi/lib/thumb/v7e-m+fp/hard\libc_nano.a(lib_a-locale.o)
                0x20003668                __global_locale
                0x200037d4                . = ALIGN (0x4)
                0x200037d4                PROVIDE (__preinit_array_start = .)
 *(.preinit_array)
                0x200037d4                PROVIDE (__preinit_array_end = .)
                0x200037d4                . = ALIGN (0x4)
                0x200037d4                PROVIDE (__init_array_start = .)
 *(SORT_BY_NAME(.init_array.*))
 *(.init_array)
 .init_array    0x200037d4        0x4 c:/users/spencer/appdata/local/arduino15/packages/adafruit/tools/arm-none-eabi-gcc/9-2019q4/bin/../lib/gcc/arm-none-eabi/9.2.1/thumb/v7e-m+fp/hard/crtfastmath.o
 .init_array    0x200037d8        0x4 c:/users/spencer/appdata/local/arduino15/packages/adafruit/tools/arm-none-eabi-gcc/9-2019q4/bin/../lib/gcc/arm-none-eabi/9.2.1/thumb/v7e-m+fp/hard/crtbegin.o
 .init_array    0x200037dc        0x4 c:\Users\Spencer\Desktop\Keyboard\Firmware\BadgersRunFirmware\Build/core\core.a(Uart.cpp.o)
                0x200037e0                PROVIDE (__init_array_end = .)
                0x200037e0                . = ALIGN (0x4)
                [!provide]                PROVIDE (__fini_array_start = .)
 *(SORT_BY_NAME(.fini_array.*))
 *(.fini_array)
 .fini_array    0x200037e0        0x4 c:/users/spencer/appdata/local/arduino15/packages/adafruit/tools/arm-none-eabi-gcc/9-2019q4/bin/../lib/gcc/arm-none-eabi/9.2.1/thumb/v7e-m+fp/hard/crtbegin.o
                [!provide]                PROVIDE (__fini_array_end = .)
 *(.jcr*)
                0x200037e4                . = ALIGN (0x4)
                0x200037e4                __data_end__ = .
LOAD c:/users/spencer/appdata/local/arduino15/packages/adafruit/tools/arm-none-eabi-gcc/9-2019q4/bin/../lib/gcc/arm-none-eabi/9.2.1/thumb/v7e-m+fp/hard/crtfastmath.o
LOAD c:/users/spencer/appdata/local/arduino15/packages/adafruit/tools/arm-none-eabi-gcc/9-2019q4/bin/../lib/gcc/arm-none-eabi/9.2.1/thumb/v7e-m+fp/hard/crti.o
LOAD c:/users/spencer/appdata/local/arduino15/packages/adafruit/tools/arm-none-eabi-gcc/9-2019q4/bin/../lib/gcc/arm-none-eabi/9.2.1/thumb/v7e-m+fp/hard/crtbegin.o
LOAD c:/users/spencer/appdata/local/arduino15/packages/adafruit/tools/arm-none-eabi-gcc/9-2019q4/bin/../lib/gcc/arm-none-eabi/9.2.1/../../../../arm-none-eabi/lib/thumb/v7e-m+fp/hard/crt0.o
LOAD c:\Users\Spencer\Desktop\Keyboard\Firmware\BadgersRunFirmware\Build\sketch\keyboard.ino.cpp.o
LOAD c:\Users\Spencer\Desktop\Keyboard\Firmware\BadgersRunFirmware\Build\core\variant.cpp.o
START GROUP
LOAD c:/users/spencer/appdata/local/arduino15/packages/adafruit/tools/arm-none-eabi-gcc/9-2019q4/bin/../lib/gcc/arm-none-eabi/9.2.1/../../../../arm-none-eabi/lib/thumb/v7e-m+fp/hard\libm.a
LOAD c:\Users\Spencer\Desktop\Keyboard\Firmware\BadgersRunFirmware\Build/core\core.a
END GROUP
START GROUP
LOAD c:/users/spencer/appdata/local/arduino15/packages/adafruit/tools/arm-none-eabi-gcc/9-2019q4/bin/../lib/gcc/arm-none-eabi/9.2.1/thumb/v7e-m+fp/hard\libgcc.a
LOAD c:/users/spencer/appdata/local/arduino15/packages/adafruit/tools/arm-none-eabi-gcc/9-2019q4/bin/../lib/gcc/arm-none-eabi/9.2.1/../../../../arm-none-eabi/lib/thumb/v7e-m+fp/hard\libc_nano.a
END GROUP
START GROUP
LOAD c:/users/spencer/appdata/local/arduino15/packages/adafruit/tools/arm-none-eabi-gcc/9-2019q4/bin/../lib/gcc/arm-none-eabi/9.2.1/thumb/v7e-m+fp/hard\libgcc.a
LOAD c:/users/spencer/appdata/local/arduino15/packages/adafruit/tools/arm-none-eabi-gcc/9-2019q4/bin/../lib/gcc/arm-none-eabi/9.2.1/../../../../arm-none-eabi/lib/thumb/v7e-m+fp/hard\libc_nano.a
LOAD c:/users/spencer/appdata/local/arduino15/packages/adafruit/tools/arm-none-eabi-gcc/9-2019q4/bin/../lib/gcc/arm-none-eabi/9.2.1/../../../../arm-none-eabi/lib/thumb/v7e-m+fp/hard\libnosys.a
END GROUP
START GROUP
LOAD c:/users/spencer/appdata/local/arduino15/packages/adafruit/tools/arm-none-eabi-gcc/9-2019q4/bin/../lib/gcc/arm-none-eabi/9.2.1/thumb/v7e-m+fp/hard\libgcc.a
LOAD c:/users/spencer/appdata/local/arduino15/packages/adafruit/tools/arm-none-eabi-gcc/9-2019q4/bin/../lib/gcc/arm-none-eabi/9.2.1/../../../../arm-none-eabi/lib/thumb/v7e-m+fp/hard\libc_nano.a
LOAD c:/users/spencer/appdata/local/arduino15/packages/adafruit/tools/arm-none-eabi-gcc/9-2019q4/bin/../lib/gcc/arm-none-eabi/9.2.1/../../../../arm-none-eabi/lib/thumb/v7e-m+fp/hard\libnosys.a
END GROUP
LOAD c:/users/spencer/appdata/local/arduino15/packages/adafruit/tools/arm-none-eabi-gcc/9-2019q4/bin/../lib/gcc/arm-none-eabi/9.2.1/thumb/v7e-m+fp/hard/crtend.o
LOAD c:/users/spencer/appdata/local/arduino15/packages/adafruit/tools/arm-none-eabi-gcc/9-2019q4/bin/../lib/gcc/arm-none-eabi/9.2.1/thumb/v7e-m+fp/hard/crtn.o
START GROUP
LOAD c:/users/spencer/appdata/local/arduino15/packages/adafruit/tools/arm-none-eabi-gcc/9-2019q4/bin/../lib/gcc/arm-none-eabi/9.2.1/thumb/v7e-m+fp/hard\libgcc.a
LOAD c:/users/spencer/appdata/local/arduino15/packages/adafruit/tools/arm-none-eabi-gcc/9-2019q4/bin/../lib/gcc/arm-none-eabi/9.2.1/../../../../arm-none-eabi/lib/thumb/v7e-m+fp/hard\libc.a
LOAD c:/users/spencer/appdata/local/arduino15/packages/adafruit/tools/arm-none-eabi-gcc/9-2019q4/bin/../lib/gcc/arm-none-eabi/9.2.1/../../../../arm-none-eabi/lib/thumb/v7e-m+fp/hard\libnosys.a
END GROUP

.igot.plt       0x200037e4        0x0 load address 0x0002e0b8
 .igot.plt      0x200037e4        0x0 c:/users/spencer/appdata/local/arduino15/packages/adafruit/tools/arm-none-eabi-gcc/9-2019q4/bin/../lib/gcc/arm-none-eabi/9.2.1/thumb/v7e-m+fp/hard/crtfastmath.o
                0x200037e4                . = ALIGN (0x4)

.svc_data       0x200037e4        0x0
                [!provide]                PROVIDE (__start_svc_data = .)
 *(.svc_data)
                [!provide]                PROVIDE (__stop_svc_data = .)

.fs_data        0x200037e4        0x0
                [!provide]                PROVIDE (__start_fs_data = .)
 *(.fs_data)
                [!provide]                PROVIDE (__stop_fs_data = .)

.bss            0x200037e4      0xb18 load address 0x0002e0b8
                0x200037e4                . = ALIGN (0x4)
                0x200037e4                __bss_start__ = .
 *(.bss*)
 .bss           0x200037e4       0x1c c:/users/spencer/appdata/local/arduino15/packages/adafruit/tools/arm-none-eabi-gcc/9-2019q4/bin/../lib/gcc/arm-none-eabi/9.2.1/thumb/v7e-m+fp/hard/crtbegin.o
 .bss._ZL11_loopHandle
                0x20003800        0x4 c:\Users\Spencer\Desktop\Keyboard\Firmware\BadgersRunFirmware\Build/core\core.a(main.cpp.o)
 .bss._ZZ29vApplicationGetIdleTaskMemoryE12xIdleTaskTCB
                0x20003804       0x54 c:\Users\Spencer\Desktop\Keyboard\Firmware\BadgersRunFirmware\Build/core\core.a(rtos.cpp.o)
 .bss._ZZ29vApplicationGetIdleTaskMemoryE15uxIdleTaskStack
                0x20003858      0x190 c:\Users\Spencer\Desktop\Keyboard\Firmware\BadgersRunFirmware\Build/core\core.a(rtos.cpp.o)
 .bss._ZZ30vApplicationGetTimerTaskMemoryE13xTimerTaskTCB
                0x200039e8       0x54 c:\Users\Spencer\Desktop\Keyboard\Firmware\BadgersRunFirmware\Build/core\core.a(rtos.cpp.o)
 .bss._ZZ30vApplicationGetTimerTaskMemoryE16uxTimerTaskStack
                0x20003a3c      0x400 c:\Users\Spencer\Desktop\Keyboard\Firmware\BadgersRunFirmware\Build/core\core.a(rtos.cpp.o)
 .bss._ZZ11dbg_err_strE11unknown_str
                0x20003e3c        0x7 c:\Users\Spencer\Desktop\Keyboard\Firmware\BadgersRunFirmware\Build/core\core.a(debug.cpp.o)
 *fill*         0x20003e43        0x1 
 .bss.pxCurrentTCB
                0x20003e44        0x4 c:\Users\Spencer\Desktop\Keyboard\Firmware\BadgersRunFirmware\Build/core\core.a(tasks.c.o)
                0x20003e44                pxCurrentTCB
 .bss.pxDelayedTaskList
                0x20003e48        0x4 c:\Users\Spencer\Desktop\Keyboard\Firmware\BadgersRunFirmware\Build/core\core.a(tasks.c.o)
 .bss.pxOverflowDelayedTaskList
                0x20003e4c        0x4 c:\Users\Spencer\Desktop\Keyboard\Firmware\BadgersRunFirmware\Build/core\core.a(tasks.c.o)
 .bss.pxReadyTasksLists
                0x20003e50       0x64 c:\Users\Spencer\Desktop\Keyboard\Firmware\BadgersRunFirmware\Build/core\core.a(tasks.c.o)
 .bss.uxCurrentNumberOfTasks
                0x20003eb4        0x4 c:\Users\Spencer\Desktop\Keyboard\Firmware\BadgersRunFirmware\Build/core\core.a(tasks.c.o)
 .bss.uxDeletedTasksWaitingCleanUp
                0x20003eb8        0x4 c:\Users\Spencer\Desktop\Keyboard\Firmware\BadgersRunFirmware\Build/core\core.a(tasks.c.o)
 .bss.uxPendedTicks
                0x20003ebc        0x4 c:\Users\Spencer\Desktop\Keyboard\Firmware\BadgersRunFirmware\Build/core\core.a(tasks.c.o)
 .bss.uxSchedulerSuspended
                0x20003ec0        0x4 c:\Users\Spencer\Desktop\Keyboard\Firmware\BadgersRunFirmware\Build/core\core.a(tasks.c.o)
 .bss.uxTaskNumber
                0x20003ec4        0x4 c:\Users\Spencer\Desktop\Keyboard\Firmware\BadgersRunFirmware\Build/core\core.a(tasks.c.o)
 .bss.uxTopReadyPriority
                0x20003ec8        0x4 c:\Users\Spencer\Desktop\Keyboard\Firmware\BadgersRunFirmware\Build/core\core.a(tasks.c.o)
 .bss.xDelayedTaskList1
                0x20003ecc       0x14 c:\Users\Spencer\Desktop\Keyboard\Firmware\BadgersRunFirmware\Build/core\core.a(tasks.c.o)
 .bss.xDelayedTaskList2
                0x20003ee0       0x14 c:\Users\Spencer\Desktop\Keyboard\Firmware\BadgersRunFirmware\Build/core\core.a(tasks.c.o)
 .bss.xIdleTaskHandle
                0x20003ef4        0x4 c:\Users\Spencer\Desktop\Keyboard\Firmware\BadgersRunFirmware\Build/core\core.a(tasks.c.o)
 .bss.xNextTaskUnblockTime
                0x20003ef8        0x4 c:\Users\Spencer\Desktop\Keyboard\Firmware\BadgersRunFirmware\Build/core\core.a(tasks.c.o)
 .bss.xNumOfOverflows
                0x20003efc        0x4 c:\Users\Spencer\Desktop\Keyboard\Firmware\BadgersRunFirmware\Build/core\core.a(tasks.c.o)
 .bss.xPendingReadyList
                0x20003f00       0x14 c:\Users\Spencer\Desktop\Keyboard\Firmware\BadgersRunFirmware\Build/core\core.a(tasks.c.o)
 .bss.xSchedulerRunning
                0x20003f14        0x4 c:\Users\Spencer\Desktop\Keyboard\Firmware\BadgersRunFirmware\Build/core\core.a(tasks.c.o)
 .bss.xSuspendedTaskList
                0x20003f18       0x14 c:\Users\Spencer\Desktop\Keyboard\Firmware\BadgersRunFirmware\Build/core\core.a(tasks.c.o)
 .bss.xTasksWaitingTermination
                0x20003f2c       0x14 c:\Users\Spencer\Desktop\Keyboard\Firmware\BadgersRunFirmware\Build/core\core.a(tasks.c.o)
 .bss.xTickCount
                0x20003f40        0x4 c:\Users\Spencer\Desktop\Keyboard\Firmware\BadgersRunFirmware\Build/core\core.a(tasks.c.o)
 .bss.xYieldPending
                0x20003f44        0x4 c:\Users\Spencer\Desktop\Keyboard\Firmware\BadgersRunFirmware\Build/core\core.a(tasks.c.o)
 .bss.pxCurrentTimerList
                0x20003f48        0x4 c:\Users\Spencer\Desktop\Keyboard\Firmware\BadgersRunFirmware\Build/core\core.a(timers.c.o)
 .bss.pxOverflowTimerList
                0x20003f4c        0x4 c:\Users\Spencer\Desktop\Keyboard\Firmware\BadgersRunFirmware\Build/core\core.a(timers.c.o)
 .bss.ucStaticTimerQueueStorage.9330
                0x20003f50      0x200 c:\Users\Spencer\Desktop\Keyboard\Firmware\BadgersRunFirmware\Build/core\core.a(timers.c.o)
 .bss.xActiveTimerList1
                0x20004150       0x14 c:\Users\Spencer\Desktop\Keyboard\Firmware\BadgersRunFirmware\Build/core\core.a(timers.c.o)
 .bss.xActiveTimerList2
                0x20004164       0x14 c:\Users\Spencer\Desktop\Keyboard\Firmware\BadgersRunFirmware\Build/core\core.a(timers.c.o)
 .bss.xLastTime.9283
                0x20004178        0x4 c:\Users\Spencer\Desktop\Keyboard\Firmware\BadgersRunFirmware\Build/core\core.a(timers.c.o)
 .bss.xStaticTimerQueue.9329
                0x2000417c       0x50 c:\Users\Spencer\Desktop\Keyboard\Firmware\BadgersRunFirmware\Build/core\core.a(timers.c.o)
 .bss.xTimerQueue
                0x200041cc        0x4 c:\Users\Spencer\Desktop\Keyboard\Firmware\BadgersRunFirmware\Build/core\core.a(timers.c.o)
 .bss.xTimerTaskHandle
                0x200041d0        0x4 c:\Users\Spencer\Desktop\Keyboard\Firmware\BadgersRunFirmware\Build/core\core.a(timers.c.o)
 .bss.uxCriticalNesting
                0x200041d4        0x4 c:\Users\Spencer\Desktop\Keyboard\Firmware\BadgersRunFirmware\Build/core\core.a(port_cmsis.c.o)
 .bss._cb_qdepth
                0x200041d8        0x4 c:\Users\Spencer\Desktop\Keyboard\Firmware\BadgersRunFirmware\Build/core\core.a(AdaCallback.c.o)
 .bss._cb_queue
                0x200041dc        0x4 c:\Users\Spencer\Desktop\Keyboard\Firmware\BadgersRunFirmware\Build/core\core.a(AdaCallback.c.o)
 .bss._cb_task  0x200041e0        0x4 c:\Users\Spencer\Desktop\Keyboard\Firmware\BadgersRunFirmware\Build/core\core.a(AdaCallback.c.o)
 .bss.fw_str.11523
                0x200041e4       0x1f c:\Users\Spencer\Desktop\Keyboard\Firmware\BadgersRunFirmware\Build/core\core.a(utilities.c.o)
 *fill*         0x20004203        0x1 
 .bss.serial_str.11532
                0x20004204       0x11 c:\Users\Spencer\Desktop\Keyboard\Firmware\BadgersRunFirmware\Build/core\core.a(utilities.c.o)
 *fill*         0x20004215        0x3 
 .bss.bootloaderVersion
                0x20004218        0x4 c:\Users\Spencer\Desktop\Keyboard\Firmware\BadgersRunFirmware\Build/core\core.a(wiring.c.o)
                0x20004218                bootloaderVersion
 .bss.Serial    0x2000421c       0xa8 c:\Users\Spencer\Desktop\Keyboard\Firmware\BadgersRunFirmware\Build/core\core.a(Uart.cpp.o)
                0x2000421c                Serial
 .bss.__malloc_free_list
                0x200042c4        0x4 c:/users/spencer/appdata/local/arduino15/packages/adafruit/tools/arm-none-eabi-gcc/9-2019q4/bin/../lib/gcc/arm-none-eabi/9.2.1/../../../../arm-none-eabi/lib/thumb/v7e-m+fp/hard\libc_nano.a(lib_a-nano-mallocr.o)
                0x200042c4                __malloc_free_list
 .bss.__malloc_sbrk_start
                0x200042c8        0x4 c:/users/spencer/appdata/local/arduino15/packages/adafruit/tools/arm-none-eabi-gcc/9-2019q4/bin/../lib/gcc/arm-none-eabi/9.2.1/../../../../arm-none-eabi/lib/thumb/v7e-m+fp/hard\libc_nano.a(lib_a-nano-mallocr.o)
                0x200042c8                __malloc_sbrk_start
 .bss.heap_end.5507
                0x200042cc        0x4 c:/users/spencer/appdata/local/arduino15/packages/adafruit/tools/arm-none-eabi-gcc/9-2019q4/bin/../lib/gcc/arm-none-eabi/9.2.1/../../../../arm-none-eabi/lib/thumb/v7e-m+fp/hard\libnosys.a(sbrk.o)
 *(COMMON)
 COMMON         0x200042d0        0xc c:\Users\Spencer\Desktop\Keyboard\Firmware\BadgersRunFirmware\Build/core\core.a(wiring.c.o)
                0x200042d0                nrf_nvic_state
 COMMON         0x200042dc       0x10 c:\Users\Spencer\Desktop\Keyboard\Firmware\BadgersRunFirmware\Build/core\core.a(queue.c.o)
                0x200042dc                xQueueRegistry
 COMMON         0x200042ec        0x9 c:/users/spencer/appdata/local/arduino15/packages/adafruit/tools/arm-none-eabi-gcc/9-2019q4/bin/../lib/gcc/arm-none-eabi/9.2.1/../../../../arm-none-eabi/lib/thumb/v7e-m+fp/hard\libc_nano.a(lib_a-lock.o)
                0x200042ec                __lock___atexit_recursive_mutex
                0x200042ed                __lock___arc4random_mutex
                0x200042ee                __lock___env_recursive_mutex
                0x200042ef                __lock___sinit_recursive_mutex
                0x200042f0                __lock___malloc_recursive_mutex
                0x200042f1                __lock___at_quick_exit_mutex
                0x200042f2                __lock___dd_hash_mutex
                0x200042f3                __lock___tz_mutex
                0x200042f4                __lock___sfp_recursive_mutex
 *fill*         0x200042f5        0x3 
 COMMON         0x200042f8        0x4 c:/users/spencer/appdata/local/arduino15/packages/adafruit/tools/arm-none-eabi-gcc/9-2019q4/bin/../lib/gcc/arm-none-eabi/9.2.1/../../../../arm-none-eabi/lib/thumb/v7e-m+fp/hard\libc_nano.a(lib_a-reent.o)
                0x200042f8                errno
                0x200042fc                . = ALIGN (0x4)
                0x200042fc                __bss_end__ = .

.heap           0x200042fc     0xb504 load address 0x0002ebd0
                0x200042fc                __HeapBase = .
                0x200042fc                __end__ = .
                0x200042fc                PROVIDE (end = .)
 *(.heap*)
                0x2000f800                . = ALIGN (__StackLimit)
 *fill*         0x200042fc     0xb504 
                0x2000f800                __HeapLimit = .
                0x00000001                ASSERT ((__StackLimit >= __HeapLimit), region RAM overflowed with stack)
                0x00000001                ASSERT ((__StackLimit >= __bss_end__), region RAM overflowed with stack)
OUTPUT(c:\Users\Spencer\Desktop\Keyboard\Firmware\BadgersRunFirmware\Build/keyboard.ino.elf elf32-littlearm)

.ARM.attributes
                0x00000000       0x32
 .ARM.attributes
                0x00000000       0x34 c:/users/spencer/appdata/local/arduino15/packages/adafruit/tools/arm-none-eabi-gcc/9-2019q4/bin/../lib/gcc/arm-none-eabi/9.2.1/thumb/v7e-m+fp/hard/crtfastmath.o
 .ARM.attributes
                0x00000034       0x1e c:/users/spencer/appdata/local/arduino15/packages/adafruit/tools/arm-none-eabi-gcc/9-2019q4/bin/../lib/gcc/arm-none-eabi/9.2.1/thumb/v7e-m+fp/hard/crti.o
 .ARM.attributes
                0x00000052       0x34 c:/users/spencer/appdata/local/arduino15/packages/adafruit/tools/arm-none-eabi-gcc/9-2019q4/bin/../lib/gcc/arm-none-eabi/9.2.1/thumb/v7e-m+fp/hard/crtbegin.o
 .ARM.attributes
                0x00000086       0x1c c:/users/spencer/appdata/local/arduino15/packages/adafruit/tools/arm-none-eabi-gcc/9-2019q4/bin/../lib/gcc/arm-none-eabi/9.2.1/../../../../arm-none-eabi/lib/thumb/v7e-m+fp/hard/crt0.o
 .ARM.attributes
                0x000000a2       0x30 c:\Users\Spencer\Desktop\Keyboard\Firmware\BadgersRunFirmware\Build\sketch\keyboard.ino.cpp.o
 .ARM.attributes
                0x000000d2       0x30 c:\Users\Spencer\Desktop\Keyboard\Firmware\BadgersRunFirmware\Build\core\variant.cpp.o
 .ARM.attributes
                0x00000102       0x1c c:\Users\Spencer\Desktop\Keyboard\Firmware\BadgersRunFirmware\Build/core\core.a(gcc_startup_nrf52.S.o)
 .ARM.attributes
                0x0000011e       0x30 c:\Users\Spencer\Desktop\Keyboard\Firmware\BadgersRunFirmware\Build/core\core.a(system_nrf52.c.o)
 .ARM.attributes
                0x0000014e       0x30 c:\Users\Spencer\Desktop\Keyboard\Firmware\BadgersRunFirmware\Build/core\core.a(wiring_digital.c.o)
 .ARM.attributes
                0x0000017e       0x30 c:\Users\Spencer\Desktop\Keyboard\Firmware\BadgersRunFirmware\Build/core\core.a(main.cpp.o)
 .ARM.attributes
                0x000001ae       0x30 c:\Users\Spencer\Desktop\Keyboard\Firmware\BadgersRunFirmware\Build/core\core.a(rtos.cpp.o)
 .ARM.attributes
                0x000001de       0x30 c:\Users\Spencer\Desktop\Keyboard\Firmware\BadgersRunFirmware\Build/core\core.a(debug.cpp.o)
 .ARM.attributes
                0x0000020e       0x30 c:\Users\Spencer\Desktop\Keyboard\Firmware\BadgersRunFirmware\Build/core\core.a(heap_3.c.o)
 .ARM.attributes
                0x0000023e       0x30 c:\Users\Spencer\Desktop\Keyboard\Firmware\BadgersRunFirmware\Build/core\core.a(tasks.c.o)
 .ARM.attributes
                0x0000026e       0x30 c:\Users\Spencer\Desktop\Keyboard\Firmware\BadgersRunFirmware\Build/core\core.a(timers.c.o)
 .ARM.attributes
                0x0000029e       0x30 c:\Users\Spencer\Desktop\Keyboard\Firmware\BadgersRunFirmware\Build/core\core.a(port_cmsis.c.o)
 .ARM.attributes
                0x000002ce       0x30 c:\Users\Spencer\Desktop\Keyboard\Firmware\BadgersRunFirmware\Build/core\core.a(port_cmsis_systick.c.o)
 .ARM.attributes
                0x000002fe       0x30 c:\Users\Spencer\Desktop\Keyboard\Firmware\BadgersRunFirmware\Build/core\core.a(port.c.o)
 .ARM.attributes
                0x0000032e       0x30 c:\Users\Spencer\Desktop\Keyboard\Firmware\BadgersRunFirmware\Build/core\core.a(hooks.c.o)
 .ARM.attributes
                0x0000035e       0x30 c:\Users\Spencer\Desktop\Keyboard\Firmware\BadgersRunFirmware\Build/core\core.a(AdaCallback.c.o)
 .ARM.attributes
                0x0000038e       0x30 c:\Users\Spencer\Desktop\Keyboard\Firmware\BadgersRunFirmware\Build/core\core.a(utilities.c.o)
 .ARM.attributes
                0x000003be       0x30 c:\Users\Spencer\Desktop\Keyboard\Firmware\BadgersRunFirmware\Build/core\core.a(wiring.c.o)
 .ARM.attributes
                0x000003ee       0x30 c:\Users\Spencer\Desktop\Keyboard\Firmware\BadgersRunFirmware\Build/core\core.a(Uart.cpp.o)
 .ARM.attributes
                0x0000041e       0x30 c:\Users\Spencer\Desktop\Keyboard\Firmware\BadgersRunFirmware\Build/core\core.a(list.c.o)
 .ARM.attributes
                0x0000044e       0x30 c:\Users\Spencer\Desktop\Keyboard\Firmware\BadgersRunFirmware\Build/core\core.a(queue.c.o)
 .ARM.attributes
                0x0000047e       0x30 c:\Users\Spencer\Desktop\Keyboard\Firmware\BadgersRunFirmware\Build/core\core.a(RingBuffer.cpp.o)
 .ARM.attributes
                0x000004ae       0x34 c:/users/spencer/appdata/local/arduino15/packages/adafruit/tools/arm-none-eabi-gcc/9-2019q4/bin/../lib/gcc/arm-none-eabi/9.2.1/../../../../arm-none-eabi/lib/thumb/v7e-m+fp/hard\libc_nano.a(lib_a-exit.o)
 .ARM.attributes
                0x000004e2       0x32 c:/users/spencer/appdata/local/arduino15/packages/adafruit/tools/arm-none-eabi-gcc/9-2019q4/bin/../lib/gcc/arm-none-eabi/9.2.1/../../../../arm-none-eabi/lib/thumb/v7e-m+fp/hard\libc_nano.a(lib_a-impure.o)
 .ARM.attributes
                0x00000514       0x34 c:/users/spencer/appdata/local/arduino15/packages/adafruit/tools/arm-none-eabi-gcc/9-2019q4/bin/../lib/gcc/arm-none-eabi/9.2.1/../../../../arm-none-eabi/lib/thumb/v7e-m+fp/hard\libc_nano.a(lib_a-init.o)
 .ARM.attributes
                0x00000548       0x34 c:/users/spencer/appdata/local/arduino15/packages/adafruit/tools/arm-none-eabi-gcc/9-2019q4/bin/../lib/gcc/arm-none-eabi/9.2.1/../../../../arm-none-eabi/lib/thumb/v7e-m+fp/hard\libc_nano.a(lib_a-malloc.o)
 .ARM.attributes
                0x0000057c       0x34 c:/users/spencer/appdata/local/arduino15/packages/adafruit/tools/arm-none-eabi-gcc/9-2019q4/bin/../lib/gcc/arm-none-eabi/9.2.1/../../../../arm-none-eabi/lib/thumb/v7e-m+fp/hard\libc_nano.a(lib_a-memcpy-stub.o)
 .ARM.attributes
                0x000005b0       0x34 c:/users/spencer/appdata/local/arduino15/packages/adafruit/tools/arm-none-eabi-gcc/9-2019q4/bin/../lib/gcc/arm-none-eabi/9.2.1/../../../../arm-none-eabi/lib/thumb/v7e-m+fp/hard\libc_nano.a(lib_a-memset.o)
 .ARM.attributes
                0x000005e4       0x34 c:/users/spencer/appdata/local/arduino15/packages/adafruit/tools/arm-none-eabi-gcc/9-2019q4/bin/../lib/gcc/arm-none-eabi/9.2.1/../../../../arm-none-eabi/lib/thumb/v7e-m+fp/hard\libc_nano.a(lib_a-nano-freer.o)
 .ARM.attributes
                0x00000618       0x34 c:/users/spencer/appdata/local/arduino15/packages/adafruit/tools/arm-none-eabi-gcc/9-2019q4/bin/../lib/gcc/arm-none-eabi/9.2.1/../../../../arm-none-eabi/lib/thumb/v7e-m+fp/hard\libc_nano.a(lib_a-nano-mallocr.o)
 .ARM.attributes
                0x0000064c       0x34 c:/users/spencer/appdata/local/arduino15/packages/adafruit/tools/arm-none-eabi-gcc/9-2019q4/bin/../lib/gcc/arm-none-eabi/9.2.1/../../../../arm-none-eabi/lib/thumb/v7e-m+fp/hard\libc_nano.a(lib_a-nano-vfprintf_float.o)
 .ARM.attributes
                0x00000680       0x34 c:/users/spencer/appdata/local/arduino15/packages/adafruit/tools/arm-none-eabi-gcc/9-2019q4/bin/../lib/gcc/arm-none-eabi/9.2.1/../../../../arm-none-eabi/lib/thumb/v7e-m+fp/hard\libc_nano.a(lib_a-nano-vfprintf_i.o)
 .ARM.attributes
                0x000006b4       0x34 c:/users/spencer/appdata/local/arduino15/packages/adafruit/tools/arm-none-eabi-gcc/9-2019q4/bin/../lib/gcc/arm-none-eabi/9.2.1/../../../../arm-none-eabi/lib/thumb/v7e-m+fp/hard\libc_nano.a(lib_a-printf.o)
 .ARM.attributes
                0x000006e8       0x34 c:/users/spencer/appdata/local/arduino15/packages/adafruit/tools/arm-none-eabi-gcc/9-2019q4/bin/../lib/gcc/arm-none-eabi/9.2.1/../../../../arm-none-eabi/lib/thumb/v7e-m+fp/hard\libc_nano.a(lib_a-putchar.o)
 .ARM.attributes
                0x0000071c       0x34 c:/users/spencer/appdata/local/arduino15/packages/adafruit/tools/arm-none-eabi-gcc/9-2019q4/bin/../lib/gcc/arm-none-eabi/9.2.1/../../../../arm-none-eabi/lib/thumb/v7e-m+fp/hard\libc_nano.a(lib_a-puts.o)
 .ARM.attributes
                0x00000750       0x34 c:/users/spencer/appdata/local/arduino15/packages/adafruit/tools/arm-none-eabi-gcc/9-2019q4/bin/../lib/gcc/arm-none-eabi/9.2.1/../../../../arm-none-eabi/lib/thumb/v7e-m+fp/hard\libc_nano.a(lib_a-sbrkr.o)
 .ARM.attributes
                0x00000784       0x34 c:/users/spencer/appdata/local/arduino15/packages/adafruit/tools/arm-none-eabi-gcc/9-2019q4/bin/../lib/gcc/arm-none-eabi/9.2.1/../../../../arm-none-eabi/lib/thumb/v7e-m+fp/hard\libc_nano.a(lib_a-sprintf.o)
 .ARM.attributes
                0x000007b8       0x17 c:/users/spencer/appdata/local/arduino15/packages/adafruit/tools/arm-none-eabi-gcc/9-2019q4/bin/../lib/gcc/arm-none-eabi/9.2.1/../../../../arm-none-eabi/lib/thumb/v7e-m+fp/hard\libc_nano.a(lib_a-strlen.o)
 .ARM.attributes
                0x000007cf       0x34 c:/users/spencer/appdata/local/arduino15/packages/adafruit/tools/arm-none-eabi-gcc/9-2019q4/bin/../lib/gcc/arm-none-eabi/9.2.1/../../../../arm-none-eabi/lib/thumb/v7e-m+fp/hard\libc_nano.a(lib_a-wbuf.o)
 .ARM.attributes
                0x00000803       0x34 c:/users/spencer/appdata/local/arduino15/packages/adafruit/tools/arm-none-eabi-gcc/9-2019q4/bin/../lib/gcc/arm-none-eabi/9.2.1/../../../../arm-none-eabi/lib/thumb/v7e-m+fp/hard\libc_nano.a(lib_a-wsetup.o)
 .ARM.attributes
                0x00000837       0x32 c:/users/spencer/appdata/local/arduino15/packages/adafruit/tools/arm-none-eabi-gcc/9-2019q4/bin/../lib/gcc/arm-none-eabi/9.2.1/../../../../arm-none-eabi/lib/thumb/v7e-m+fp/hard\libc_nano.a(lib_a-ctype_.o)
 .ARM.attributes
                0x00000869       0x34 c:/users/spencer/appdata/local/arduino15/packages/adafruit/tools/arm-none-eabi-gcc/9-2019q4/bin/../lib/gcc/arm-none-eabi/9.2.1/../../../../arm-none-eabi/lib/thumb/v7e-m+fp/hard\libc_nano.a(lib_a-dtoa.o)
 .ARM.attributes
                0x0000089d       0x34 c:/users/spencer/appdata/local/arduino15/packages/adafruit/tools/arm-none-eabi-gcc/9-2019q4/bin/../lib/gcc/arm-none-eabi/9.2.1/../../../../arm-none-eabi/lib/thumb/v7e-m+fp/hard\libc_nano.a(lib_a-fflush.o)
 .ARM.attributes
                0x000008d1       0x34 c:/users/spencer/appdata/local/arduino15/packages/adafruit/tools/arm-none-eabi-gcc/9-2019q4/bin/../lib/gcc/arm-none-eabi/9.2.1/../../../../arm-none-eabi/lib/thumb/v7e-m+fp/hard\libc_nano.a(lib_a-findfp.o)
 .ARM.attributes
                0x00000905       0x34 c:/users/spencer/appdata/local/arduino15/packages/adafruit/tools/arm-none-eabi-gcc/9-2019q4/bin/../lib/gcc/arm-none-eabi/9.2.1/../../../../arm-none-eabi/lib/thumb/v7e-m+fp/hard\libc_nano.a(lib_a-fwalk.o)
 .ARM.attributes
                0x00000939       0x34 c:/users/spencer/appdata/local/arduino15/packages/adafruit/tools/arm-none-eabi-gcc/9-2019q4/bin/../lib/gcc/arm-none-eabi/9.2.1/../../../../arm-none-eabi/lib/thumb/v7e-m+fp/hard\libc_nano.a(lib_a-localeconv.o)
 .ARM.attributes
                0x0000096d       0x34 c:/users/spencer/appdata/local/arduino15/packages/adafruit/tools/arm-none-eabi-gcc/9-2019q4/bin/../lib/gcc/arm-none-eabi/9.2.1/../../../../arm-none-eabi/lib/thumb/v7e-m+fp/hard\libc_nano.a(lib_a-lock.o)
 .ARM.attributes
                0x000009a1       0x34 c:/users/spencer/appdata/local/arduino15/packages/adafruit/tools/arm-none-eabi-gcc/9-2019q4/bin/../lib/gcc/arm-none-eabi/9.2.1/../../../../arm-none-eabi/lib/thumb/v7e-m+fp/hard\libc_nano.a(lib_a-makebuf.o)
 .ARM.attributes
                0x000009d5       0x1c c:/users/spencer/appdata/local/arduino15/packages/adafruit/tools/arm-none-eabi-gcc/9-2019q4/bin/../lib/gcc/arm-none-eabi/9.2.1/../../../../arm-none-eabi/lib/thumb/v7e-m+fp/hard\libc_nano.a(lib_a-memchr.o)
 .ARM.attributes
                0x000009f1       0x34 c:/users/spencer/appdata/local/arduino15/packages/adafruit/tools/arm-none-eabi-gcc/9-2019q4/bin/../lib/gcc/arm-none-eabi/9.2.1/../../../../arm-none-eabi/lib/thumb/v7e-m+fp/hard\libc_nano.a(lib_a-mlock.o)
 .ARM.attributes
                0x00000a25       0x34 c:/users/spencer/appdata/local/arduino15/packages/adafruit/tools/arm-none-eabi-gcc/9-2019q4/bin/../lib/gcc/arm-none-eabi/9.2.1/../../../../arm-none-eabi/lib/thumb/v7e-m+fp/hard\libc_nano.a(lib_a-mprec.o)
 .ARM.attributes
                0x00000a59       0x34 c:/users/spencer/appdata/local/arduino15/packages/adafruit/tools/arm-none-eabi-gcc/9-2019q4/bin/../lib/gcc/arm-none-eabi/9.2.1/../../../../arm-none-eabi/lib/thumb/v7e-m+fp/hard\libc_nano.a(lib_a-nano-callocr.o)
 .ARM.attributes
                0x00000a8d       0x34 c:/users/spencer/appdata/local/arduino15/packages/adafruit/tools/arm-none-eabi-gcc/9-2019q4/bin/../lib/gcc/arm-none-eabi/9.2.1/../../../../arm-none-eabi/lib/thumb/v7e-m+fp/hard\libc_nano.a(lib_a-nano-svfprintf.o)
 .ARM.attributes
                0x00000ac1       0x34 c:/users/spencer/appdata/local/arduino15/packages/adafruit/tools/arm-none-eabi-gcc/9-2019q4/bin/../lib/gcc/arm-none-eabi/9.2.1/../../../../arm-none-eabi/lib/thumb/v7e-m+fp/hard\libc_nano.a(lib_a-nano-vfprintf.o)
 .ARM.attributes
                0x00000af5       0x34 c:/users/spencer/appdata/local/arduino15/packages/adafruit/tools/arm-none-eabi-gcc/9-2019q4/bin/../lib/gcc/arm-none-eabi/9.2.1/../../../../arm-none-eabi/lib/thumb/v7e-m+fp/hard\libc_nano.a(lib_a-putc.o)
 .ARM.attributes
                0x00000b29       0x34 c:/users/spencer/appdata/local/arduino15/packages/adafruit/tools/arm-none-eabi-gcc/9-2019q4/bin/../lib/gcc/arm-none-eabi/9.2.1/../../../../arm-none-eabi/lib/thumb/v7e-m+fp/hard\libc_nano.a(lib_a-reent.o)
 .ARM.attributes
                0x00000b5d       0x34 c:/users/spencer/appdata/local/arduino15/packages/adafruit/tools/arm-none-eabi-gcc/9-2019q4/bin/../lib/gcc/arm-none-eabi/9.2.1/../../../../arm-none-eabi/lib/thumb/v7e-m+fp/hard\libc_nano.a(lib_a-stdio.o)
 .ARM.attributes
                0x00000b91       0x34 c:/users/spencer/appdata/local/arduino15/packages/adafruit/tools/arm-none-eabi-gcc/9-2019q4/bin/../lib/gcc/arm-none-eabi/9.2.1/../../../../arm-none-eabi/lib/thumb/v7e-m+fp/hard\libc_nano.a(lib_a-writer.o)
 .ARM.attributes
                0x00000bc5       0x34 c:/users/spencer/appdata/local/arduino15/packages/adafruit/tools/arm-none-eabi-gcc/9-2019q4/bin/../lib/gcc/arm-none-eabi/9.2.1/../../../../arm-none-eabi/lib/thumb/v7e-m+fp/hard\libc_nano.a(lib_a-closer.o)
 .ARM.attributes
                0x00000bf9       0x34 c:/users/spencer/appdata/local/arduino15/packages/adafruit/tools/arm-none-eabi-gcc/9-2019q4/bin/../lib/gcc/arm-none-eabi/9.2.1/../../../../arm-none-eabi/lib/thumb/v7e-m+fp/hard\libc_nano.a(lib_a-fstatr.o)
 .ARM.attributes
                0x00000c2d       0x34 c:/users/spencer/appdata/local/arduino15/packages/adafruit/tools/arm-none-eabi-gcc/9-2019q4/bin/../lib/gcc/arm-none-eabi/9.2.1/../../../../arm-none-eabi/lib/thumb/v7e-m+fp/hard\libc_nano.a(lib_a-isattyr.o)
 .ARM.attributes
                0x00000c61       0x34 c:/users/spencer/appdata/local/arduino15/packages/adafruit/tools/arm-none-eabi-gcc/9-2019q4/bin/../lib/gcc/arm-none-eabi/9.2.1/../../../../arm-none-eabi/lib/thumb/v7e-m+fp/hard\libc_nano.a(lib_a-locale.o)
 .ARM.attributes
                0x00000c95       0x34 c:/users/spencer/appdata/local/arduino15/packages/adafruit/tools/arm-none-eabi-gcc/9-2019q4/bin/../lib/gcc/arm-none-eabi/9.2.1/../../../../arm-none-eabi/lib/thumb/v7e-m+fp/hard\libc_nano.a(lib_a-lseekr.o)
 .ARM.attributes
                0x00000cc9       0x34 c:/users/spencer/appdata/local/arduino15/packages/adafruit/tools/arm-none-eabi-gcc/9-2019q4/bin/../lib/gcc/arm-none-eabi/9.2.1/../../../../arm-none-eabi/lib/thumb/v7e-m+fp/hard\libc_nano.a(lib_a-mbtowc_r.o)
 .ARM.attributes
                0x00000cfd       0x34 c:/users/spencer/appdata/local/arduino15/packages/adafruit/tools/arm-none-eabi-gcc/9-2019q4/bin/../lib/gcc/arm-none-eabi/9.2.1/../../../../arm-none-eabi/lib/thumb/v7e-m+fp/hard\libc_nano.a(lib_a-memmove.o)
 .ARM.attributes
                0x00000d31       0x34 c:/users/spencer/appdata/local/arduino15/packages/adafruit/tools/arm-none-eabi-gcc/9-2019q4/bin/../lib/gcc/arm-none-eabi/9.2.1/../../../../arm-none-eabi/lib/thumb/v7e-m+fp/hard\libc_nano.a(lib_a-nano-reallocr.o)
 .ARM.attributes
                0x00000d65       0x34 c:/users/spencer/appdata/local/arduino15/packages/adafruit/tools/arm-none-eabi-gcc/9-2019q4/bin/../lib/gcc/arm-none-eabi/9.2.1/../../../../arm-none-eabi/lib/thumb/v7e-m+fp/hard\libc_nano.a(lib_a-readr.o)
 .ARM.attributes
                0x00000d99       0x34 c:/users/spencer/appdata/local/arduino15/packages/adafruit/tools/arm-none-eabi-gcc/9-2019q4/bin/../lib/gcc/arm-none-eabi/9.2.1/../../../../arm-none-eabi/lib/thumb/v7e-m+fp/hard\libc_nano.a(lib_a-wctomb_r.o)
 .ARM.attributes
                0x00000dcd       0x34 c:/users/spencer/appdata/local/arduino15/packages/adafruit/tools/arm-none-eabi-gcc/9-2019q4/bin/../lib/gcc/arm-none-eabi/9.2.1/../../../../arm-none-eabi/lib/thumb/v7e-m+fp/hard\libc_nano.a(lib_a-nano-msizer.o)
 .ARM.attributes
                0x00000e01       0x1e c:/users/spencer/appdata/local/arduino15/packages/adafruit/tools/arm-none-eabi-gcc/9-2019q4/bin/../lib/gcc/arm-none-eabi/9.2.1/thumb/v7e-m+fp/hard\libgcc.a(_arm_addsubdf3.o)
 .ARM.attributes
                0x00000e1f       0x1e c:/users/spencer/appdata/local/arduino15/packages/adafruit/tools/arm-none-eabi-gcc/9-2019q4/bin/../lib/gcc/arm-none-eabi/9.2.1/thumb/v7e-m+fp/hard\libgcc.a(_arm_muldivdf3.o)
 .ARM.attributes
                0x00000e3d       0x1e c:/users/spencer/appdata/local/arduino15/packages/adafruit/tools/arm-none-eabi-gcc/9-2019q4/bin/../lib/gcc/arm-none-eabi/9.2.1/thumb/v7e-m+fp/hard\libgcc.a(_arm_cmpdf2.o)
 .ARM.attributes
                0x00000e5b       0x1e c:/users/spencer/appdata/local/arduino15/packages/adafruit/tools/arm-none-eabi-gcc/9-2019q4/bin/../lib/gcc/arm-none-eabi/9.2.1/thumb/v7e-m+fp/hard\libgcc.a(_arm_unorddf2.o)
 .ARM.attributes
                0x00000e79       0x1e c:/users/spencer/appdata/local/arduino15/packages/adafruit/tools/arm-none-eabi-gcc/9-2019q4/bin/../lib/gcc/arm-none-eabi/9.2.1/thumb/v7e-m+fp/hard\libgcc.a(_arm_fixdfsi.o)
 .ARM.attributes
                0x00000e97       0x34 c:/users/spencer/appdata/local/arduino15/packages/adafruit/tools/arm-none-eabi-gcc/9-2019q4/bin/../lib/gcc/arm-none-eabi/9.2.1/../../../../arm-none-eabi/lib/thumb/v7e-m+fp/hard\libnosys.a(close.o)
 .ARM.attributes
                0x00000ecb       0x34 c:/users/spencer/appdata/local/arduino15/packages/adafruit/tools/arm-none-eabi-gcc/9-2019q4/bin/../lib/gcc/arm-none-eabi/9.2.1/../../../../arm-none-eabi/lib/thumb/v7e-m+fp/hard\libnosys.a(fstat.o)
 .ARM.attributes
                0x00000eff       0x34 c:/users/spencer/appdata/local/arduino15/packages/adafruit/tools/arm-none-eabi-gcc/9-2019q4/bin/../lib/gcc/arm-none-eabi/9.2.1/../../../../arm-none-eabi/lib/thumb/v7e-m+fp/hard\libnosys.a(isatty.o)
 .ARM.attributes
                0x00000f33       0x34 c:/users/spencer/appdata/local/arduino15/packages/adafruit/tools/arm-none-eabi-gcc/9-2019q4/bin/../lib/gcc/arm-none-eabi/9.2.1/../../../../arm-none-eabi/lib/thumb/v7e-m+fp/hard\libnosys.a(lseek.o)
 .ARM.attributes
                0x00000f67       0x34 c:/users/spencer/appdata/local/arduino15/packages/adafruit/tools/arm-none-eabi-gcc/9-2019q4/bin/../lib/gcc/arm-none-eabi/9.2.1/../../../../arm-none-eabi/lib/thumb/v7e-m+fp/hard\libnosys.a(read.o)
 .ARM.attributes
                0x00000f9b       0x34 c:/users/spencer/appdata/local/arduino15/packages/adafruit/tools/arm-none-eabi-gcc/9-2019q4/bin/../lib/gcc/arm-none-eabi/9.2.1/../../../../arm-none-eabi/lib/thumb/v7e-m+fp/hard\libnosys.a(sbrk.o)
 .ARM.attributes
                0x00000fcf       0x34 c:/users/spencer/appdata/local/arduino15/packages/adafruit/tools/arm-none-eabi-gcc/9-2019q4/bin/../lib/gcc/arm-none-eabi/9.2.1/../../../../arm-none-eabi/lib/thumb/v7e-m+fp/hard\libnosys.a(_exit.o)
 .ARM.attributes
                0x00001003       0x32 c:/users/spencer/appdata/local/arduino15/packages/adafruit/tools/arm-none-eabi-gcc/9-2019q4/bin/../lib/gcc/arm-none-eabi/9.2.1/thumb/v7e-m+fp/hard/crtend.o
 .ARM.attributes
                0x00001035       0x1e c:/users/spencer/appdata/local/arduino15/packages/adafruit/tools/arm-none-eabi-gcc/9-2019q4/bin/../lib/gcc/arm-none-eabi/9.2.1/thumb/v7e-m+fp/hard/crtn.o

.comment        0x00000000       0x79
 .comment       0x00000000       0x79 c:\Users\Spencer\Desktop\Keyboard\Firmware\BadgersRunFirmware\Build\sketch\keyboard.ino.cpp.o
                                 0x7a (size before relaxing)
 .comment       0x00000079       0x7a c:\Users\Spencer\Desktop\Keyboard\Firmware\BadgersRunFirmware\Build\core\variant.cpp.o
 .comment       0x00000079       0x7a c:\Users\Spencer\Desktop\Keyboard\Firmware\BadgersRunFirmware\Build/core\core.a(system_nrf52.c.o)
 .comment       0x00000079       0x7a c:\Users\Spencer\Desktop\Keyboard\Firmware\BadgersRunFirmware\Build/core\core.a(wiring_digital.c.o)
 .comment       0x00000079       0x7a c:\Users\Spencer\Desktop\Keyboard\Firmware\BadgersRunFirmware\Build/core\core.a(main.cpp.o)
 .comment       0x00000079       0x7a c:\Users\Spencer\Desktop\Keyboard\Firmware\BadgersRunFirmware\Build/core\core.a(rtos.cpp.o)
 .comment       0x00000079       0x7a c:\Users\Spencer\Desktop\Keyboard\Firmware\BadgersRunFirmware\Build/core\core.a(debug.cpp.o)
 .comment       0x00000079       0x7a c:\Users\Spencer\Desktop\Keyboard\Firmware\BadgersRunFirmware\Build/core\core.a(heap_3.c.o)
 .comment       0x00000079       0x7a c:\Users\Spencer\Desktop\Keyboard\Firmware\BadgersRunFirmware\Build/core\core.a(tasks.c.o)
 .comment       0x00000079       0x7a c:\Users\Spencer\Desktop\Keyboard\Firmware\BadgersRunFirmware\Build/core\core.a(timers.c.o)
 .comment       0x00000079       0x7a c:\Users\Spencer\Desktop\Keyboard\Firmware\BadgersRunFirmware\Build/core\core.a(port_cmsis.c.o)
 .comment       0x00000079       0x7a c:\Users\Spencer\Desktop\Keyboard\Firmware\BadgersRunFirmware\Build/core\core.a(port_cmsis_systick.c.o)
 .comment       0x00000079       0x7a c:\Users\Spencer\Desktop\Keyboard\Firmware\BadgersRunFirmware\Build/core\core.a(port.c.o)
 .comment       0x00000079       0x7a c:\Users\Spencer\Desktop\Keyboard\Firmware\BadgersRunFirmware\Build/core\core.a(hooks.c.o)
 .comment       0x00000079       0x7a c:\Users\Spencer\Desktop\Keyboard\Firmware\BadgersRunFirmware\Build/core\core.a(AdaCallback.c.o)
 .comment       0x00000079       0x7a c:\Users\Spencer\Desktop\Keyboard\Firmware\BadgersRunFirmware\Build/core\core.a(utilities.c.o)
 .comment       0x00000079       0x7a c:\Users\Spencer\Desktop\Keyboard\Firmware\BadgersRunFirmware\Build/core\core.a(wiring.c.o)
 .comment       0x00000079       0x7a c:\Users\Spencer\Desktop\Keyboard\Firmware\BadgersRunFirmware\Build/core\core.a(Uart.cpp.o)
 .comment       0x00000079       0x7a c:\Users\Spencer\Desktop\Keyboard\Firmware\BadgersRunFirmware\Build/core\core.a(list.c.o)
 .comment       0x00000079       0x7a c:\Users\Spencer\Desktop\Keyboard\Firmware\BadgersRunFirmware\Build/core\core.a(queue.c.o)
 .comment       0x00000079       0x7a c:\Users\Spencer\Desktop\Keyboard\Firmware\BadgersRunFirmware\Build/core\core.a(RingBuffer.cpp.o)

.debug_frame    0x00000000     0x2a50
 .debug_frame   0x00000000       0x20 c:/users/spencer/appdata/local/arduino15/packages/adafruit/tools/arm-none-eabi-gcc/9-2019q4/bin/../lib/gcc/arm-none-eabi/9.2.1/thumb/v7e-m+fp/hard/crtfastmath.o
 .debug_frame   0x00000020       0x30 c:\Users\Spencer\Desktop\Keyboard\Firmware\BadgersRunFirmware\Build\sketch\keyboard.ino.cpp.o
 .debug_frame   0x00000050       0x2c c:\Users\Spencer\Desktop\Keyboard\Firmware\BadgersRunFirmware\Build\core\variant.cpp.o
 .debug_frame   0x0000007c       0x40 c:\Users\Spencer\Desktop\Keyboard\Firmware\BadgersRunFirmware\Build/core\core.a(system_nrf52.c.o)
 .debug_frame   0x000000bc       0x70 c:\Users\Spencer\Desktop\Keyboard\Firmware\BadgersRunFirmware\Build/core\core.a(wiring_digital.c.o)
 .debug_frame   0x0000012c       0x90 c:\Users\Spencer\Desktop\Keyboard\Firmware\BadgersRunFirmware\Build/core\core.a(main.cpp.o)
 .debug_frame   0x000001bc       0xd8 c:\Users\Spencer\Desktop\Keyboard\Firmware\BadgersRunFirmware\Build/core\core.a(rtos.cpp.o)
 .debug_frame   0x00000294      0x15c c:\Users\Spencer\Desktop\Keyboard\Firmware\BadgersRunFirmware\Build/core\core.a(debug.cpp.o)
 .debug_frame   0x000003f0       0x4c c:\Users\Spencer\Desktop\Keyboard\Firmware\BadgersRunFirmware\Build/core\core.a(heap_3.c.o)
 .debug_frame   0x0000043c      0x6f0 c:\Users\Spencer\Desktop\Keyboard\Firmware\BadgersRunFirmware\Build/core\core.a(tasks.c.o)
 .debug_frame   0x00000b2c      0x22c c:\Users\Spencer\Desktop\Keyboard\Firmware\BadgersRunFirmware\Build/core\core.a(timers.c.o)
 .debug_frame   0x00000d58       0x84 c:\Users\Spencer\Desktop\Keyboard\Firmware\BadgersRunFirmware\Build/core\core.a(port_cmsis.c.o)
 .debug_frame   0x00000ddc       0x9c c:\Users\Spencer\Desktop\Keyboard\Firmware\BadgersRunFirmware\Build/core\core.a(port_cmsis_systick.c.o)
 .debug_frame   0x00000e78       0x40 c:\Users\Spencer\Desktop\Keyboard\Firmware\BadgersRunFirmware\Build/core\core.a(port.c.o)
 .debug_frame   0x00000eb8       0x40 c:\Users\Spencer\Desktop\Keyboard\Firmware\BadgersRunFirmware\Build/core\core.a(hooks.c.o)
 .debug_frame   0x00000ef8       0xd4 c:\Users\Spencer\Desktop\Keyboard\Firmware\BadgersRunFirmware\Build/core\core.a(AdaCallback.c.o)
 .debug_frame   0x00000fcc       0x70 c:\Users\Spencer\Desktop\Keyboard\Firmware\BadgersRunFirmware\Build/core\core.a(utilities.c.o)
 .debug_frame   0x0000103c       0xfc c:\Users\Spencer\Desktop\Keyboard\Firmware\BadgersRunFirmware\Build/core\core.a(wiring.c.o)
 .debug_frame   0x00001138      0x1f4 c:\Users\Spencer\Desktop\Keyboard\Firmware\BadgersRunFirmware\Build/core\core.a(Uart.cpp.o)
 .debug_frame   0x0000132c       0x88 c:\Users\Spencer\Desktop\Keyboard\Firmware\BadgersRunFirmware\Build/core\core.a(list.c.o)
 .debug_frame   0x000013b4      0x3b0 c:\Users\Spencer\Desktop\Keyboard\Firmware\BadgersRunFirmware\Build/core\core.a(queue.c.o)
 .debug_frame   0x00001764       0xa4 c:\Users\Spencer\Desktop\Keyboard\Firmware\BadgersRunFirmware\Build/core\core.a(RingBuffer.cpp.o)
 .debug_frame   0x00001808       0x28 c:/users/spencer/appdata/local/arduino15/packages/adafruit/tools/arm-none-eabi-gcc/9-2019q4/bin/../lib/gcc/arm-none-eabi/9.2.1/../../../../arm-none-eabi/lib/thumb/v7e-m+fp/hard\libc_nano.a(lib_a-exit.o)
 .debug_frame   0x00001830       0x2c c:/users/spencer/appdata/local/arduino15/packages/adafruit/tools/arm-none-eabi-gcc/9-2019q4/bin/../lib/gcc/arm-none-eabi/9.2.1/../../../../arm-none-eabi/lib/thumb/v7e-m+fp/hard\libc_nano.a(lib_a-init.o)
 .debug_frame   0x0000185c       0x30 c:/users/spencer/appdata/local/arduino15/packages/adafruit/tools/arm-none-eabi-gcc/9-2019q4/bin/../lib/gcc/arm-none-eabi/9.2.1/../../../../arm-none-eabi/lib/thumb/v7e-m+fp/hard\libc_nano.a(lib_a-malloc.o)
 .debug_frame   0x0000188c       0x28 c:/users/spencer/appdata/local/arduino15/packages/adafruit/tools/arm-none-eabi-gcc/9-2019q4/bin/../lib/gcc/arm-none-eabi/9.2.1/../../../../arm-none-eabi/lib/thumb/v7e-m+fp/hard\libc_nano.a(lib_a-memcpy-stub.o)
 .debug_frame   0x000018b4       0x20 c:/users/spencer/appdata/local/arduino15/packages/adafruit/tools/arm-none-eabi-gcc/9-2019q4/bin/../lib/gcc/arm-none-eabi/9.2.1/../../../../arm-none-eabi/lib/thumb/v7e-m+fp/hard\libc_nano.a(lib_a-memset.o)
 .debug_frame   0x000018d4       0x38 c:/users/spencer/appdata/local/arduino15/packages/adafruit/tools/arm-none-eabi-gcc/9-2019q4/bin/../lib/gcc/arm-none-eabi/9.2.1/../../../../arm-none-eabi/lib/thumb/v7e-m+fp/hard\libc_nano.a(lib_a-nano-freer.o)
 .debug_frame   0x0000190c       0x30 c:/users/spencer/appdata/local/arduino15/packages/adafruit/tools/arm-none-eabi-gcc/9-2019q4/bin/../lib/gcc/arm-none-eabi/9.2.1/../../../../arm-none-eabi/lib/thumb/v7e-m+fp/hard\libc_nano.a(lib_a-nano-mallocr.o)
 .debug_frame   0x0000193c       0xa0 c:/users/spencer/appdata/local/arduino15/packages/adafruit/tools/arm-none-eabi-gcc/9-2019q4/bin/../lib/gcc/arm-none-eabi/9.2.1/../../../../arm-none-eabi/lib/thumb/v7e-m+fp/hard\libc_nano.a(lib_a-nano-vfprintf_float.o)
 .debug_frame   0x000019dc       0x60 c:/users/spencer/appdata/local/arduino15/packages/adafruit/tools/arm-none-eabi-gcc/9-2019q4/bin/../lib/gcc/arm-none-eabi/9.2.1/../../../../arm-none-eabi/lib/thumb/v7e-m+fp/hard\libc_nano.a(lib_a-nano-vfprintf_i.o)
 .debug_frame   0x00001a3c       0x74 c:/users/spencer/appdata/local/arduino15/packages/adafruit/tools/arm-none-eabi-gcc/9-2019q4/bin/../lib/gcc/arm-none-eabi/9.2.1/../../../../arm-none-eabi/lib/thumb/v7e-m+fp/hard\libc_nano.a(lib_a-printf.o)
 .debug_frame   0x00001ab0       0x50 c:/users/spencer/appdata/local/arduino15/packages/adafruit/tools/arm-none-eabi-gcc/9-2019q4/bin/../lib/gcc/arm-none-eabi/9.2.1/../../../../arm-none-eabi/lib/thumb/v7e-m+fp/hard\libc_nano.a(lib_a-putchar.o)
 .debug_frame   0x00001b00       0x3c c:/users/spencer/appdata/local/arduino15/packages/adafruit/tools/arm-none-eabi-gcc/9-2019q4/bin/../lib/gcc/arm-none-eabi/9.2.1/../../../../arm-none-eabi/lib/thumb/v7e-m+fp/hard\libc_nano.a(lib_a-puts.o)
 .debug_frame   0x00001b3c       0x2c c:/users/spencer/appdata/local/arduino15/packages/adafruit/tools/arm-none-eabi-gcc/9-2019q4/bin/../lib/gcc/arm-none-eabi/9.2.1/../../../../arm-none-eabi/lib/thumb/v7e-m+fp/hard\libc_nano.a(lib_a-sbrkr.o)
 .debug_frame   0x00001b68       0x6c c:/users/spencer/appdata/local/arduino15/packages/adafruit/tools/arm-none-eabi-gcc/9-2019q4/bin/../lib/gcc/arm-none-eabi/9.2.1/../../../../arm-none-eabi/lib/thumb/v7e-m+fp/hard\libc_nano.a(lib_a-sprintf.o)
 .debug_frame   0x00001bd4       0x40 c:/users/spencer/appdata/local/arduino15/packages/adafruit/tools/arm-none-eabi-gcc/9-2019q4/bin/../lib/gcc/arm-none-eabi/9.2.1/../../../../arm-none-eabi/lib/thumb/v7e-m+fp/hard\libc_nano.a(lib_a-wbuf.o)
 .debug_frame   0x00001c14       0x2c c:/users/spencer/appdata/local/arduino15/packages/adafruit/tools/arm-none-eabi-gcc/9-2019q4/bin/../lib/gcc/arm-none-eabi/9.2.1/../../../../arm-none-eabi/lib/thumb/v7e-m+fp/hard\libc_nano.a(lib_a-wsetup.o)
 .debug_frame   0x00001c40       0x7c c:/users/spencer/appdata/local/arduino15/packages/adafruit/tools/arm-none-eabi-gcc/9-2019q4/bin/../lib/gcc/arm-none-eabi/9.2.1/../../../../arm-none-eabi/lib/thumb/v7e-m+fp/hard\libc_nano.a(lib_a-dtoa.o)
 .debug_frame   0x00001cbc       0x5c c:/users/spencer/appdata/local/arduino15/packages/adafruit/tools/arm-none-eabi-gcc/9-2019q4/bin/../lib/gcc/arm-none-eabi/9.2.1/../../../../arm-none-eabi/lib/thumb/v7e-m+fp/hard\libc_nano.a(lib_a-fflush.o)
 .debug_frame   0x00001d18      0x14c c:/users/spencer/appdata/local/arduino15/packages/adafruit/tools/arm-none-eabi-gcc/9-2019q4/bin/../lib/gcc/arm-none-eabi/9.2.1/../../../../arm-none-eabi/lib/thumb/v7e-m+fp/hard\libc_nano.a(lib_a-findfp.o)
 .debug_frame   0x00001e64       0x54 c:/users/spencer/appdata/local/arduino15/packages/adafruit/tools/arm-none-eabi-gcc/9-2019q4/bin/../lib/gcc/arm-none-eabi/9.2.1/../../../../arm-none-eabi/lib/thumb/v7e-m+fp/hard\libc_nano.a(lib_a-fwalk.o)
 .debug_frame   0x00001eb8       0x40 c:/users/spencer/appdata/local/arduino15/packages/adafruit/tools/arm-none-eabi-gcc/9-2019q4/bin/../lib/gcc/arm-none-eabi/9.2.1/../../../../arm-none-eabi/lib/thumb/v7e-m+fp/hard\libc_nano.a(lib_a-localeconv.o)
 .debug_frame   0x00001ef8       0xb0 c:/users/spencer/appdata/local/arduino15/packages/adafruit/tools/arm-none-eabi-gcc/9-2019q4/bin/../lib/gcc/arm-none-eabi/9.2.1/../../../../arm-none-eabi/lib/thumb/v7e-m+fp/hard\libc_nano.a(lib_a-lock.o)
 .debug_frame   0x00001fa8       0x58 c:/users/spencer/appdata/local/arduino15/packages/adafruit/tools/arm-none-eabi-gcc/9-2019q4/bin/../lib/gcc/arm-none-eabi/9.2.1/../../../../arm-none-eabi/lib/thumb/v7e-m+fp/hard\libc_nano.a(lib_a-makebuf.o)
 .debug_frame   0x00002000       0x30 c:/users/spencer/appdata/local/arduino15/packages/adafruit/tools/arm-none-eabi-gcc/9-2019q4/bin/../lib/gcc/arm-none-eabi/9.2.1/../../../../arm-none-eabi/lib/thumb/v7e-m+fp/hard\libc_nano.a(lib_a-mlock.o)
 .debug_frame   0x00002030      0x25c c:/users/spencer/appdata/local/arduino15/packages/adafruit/tools/arm-none-eabi-gcc/9-2019q4/bin/../lib/gcc/arm-none-eabi/9.2.1/../../../../arm-none-eabi/lib/thumb/v7e-m+fp/hard\libc_nano.a(lib_a-mprec.o)
 .debug_frame   0x0000228c       0x2c c:/users/spencer/appdata/local/arduino15/packages/adafruit/tools/arm-none-eabi-gcc/9-2019q4/bin/../lib/gcc/arm-none-eabi/9.2.1/../../../../arm-none-eabi/lib/thumb/v7e-m+fp/hard\libc_nano.a(lib_a-nano-callocr.o)
 .debug_frame   0x000022b8       0x90 c:/users/spencer/appdata/local/arduino15/packages/adafruit/tools/arm-none-eabi-gcc/9-2019q4/bin/../lib/gcc/arm-none-eabi/9.2.1/../../../../arm-none-eabi/lib/thumb/v7e-m+fp/hard\libc_nano.a(lib_a-nano-svfprintf.o)
 .debug_frame   0x00002348       0xac c:/users/spencer/appdata/local/arduino15/packages/adafruit/tools/arm-none-eabi-gcc/9-2019q4/bin/../lib/gcc/arm-none-eabi/9.2.1/../../../../arm-none-eabi/lib/thumb/v7e-m+fp/hard\libc_nano.a(lib_a-nano-vfprintf.o)
 .debug_frame   0x000023f4       0x3c c:/users/spencer/appdata/local/arduino15/packages/adafruit/tools/arm-none-eabi-gcc/9-2019q4/bin/../lib/gcc/arm-none-eabi/9.2.1/../../../../arm-none-eabi/lib/thumb/v7e-m+fp/hard\libc_nano.a(lib_a-putc.o)
 .debug_frame   0x00002430       0x5c c:/users/spencer/appdata/local/arduino15/packages/adafruit/tools/arm-none-eabi-gcc/9-2019q4/bin/../lib/gcc/arm-none-eabi/9.2.1/../../../../arm-none-eabi/lib/thumb/v7e-m+fp/hard\libc_nano.a(lib_a-reent.o)
 .debug_frame   0x0000248c       0x88 c:/users/spencer/appdata/local/arduino15/packages/adafruit/tools/arm-none-eabi-gcc/9-2019q4/bin/../lib/gcc/arm-none-eabi/9.2.1/../../../../arm-none-eabi/lib/thumb/v7e-m+fp/hard\libc_nano.a(lib_a-stdio.o)
 .debug_frame   0x00002514       0x2c c:/users/spencer/appdata/local/arduino15/packages/adafruit/tools/arm-none-eabi-gcc/9-2019q4/bin/../lib/gcc/arm-none-eabi/9.2.1/../../../../arm-none-eabi/lib/thumb/v7e-m+fp/hard\libc_nano.a(lib_a-writer.o)
 .debug_frame   0x00002540       0x2c c:/users/spencer/appdata/local/arduino15/packages/adafruit/tools/arm-none-eabi-gcc/9-2019q4/bin/../lib/gcc/arm-none-eabi/9.2.1/../../../../arm-none-eabi/lib/thumb/v7e-m+fp/hard\libc_nano.a(lib_a-closer.o)
 .debug_frame   0x0000256c       0x2c c:/users/spencer/appdata/local/arduino15/packages/adafruit/tools/arm-none-eabi-gcc/9-2019q4/bin/../lib/gcc/arm-none-eabi/9.2.1/../../../../arm-none-eabi/lib/thumb/v7e-m+fp/hard\libc_nano.a(lib_a-fstatr.o)
 .debug_frame   0x00002598       0x2c c:/users/spencer/appdata/local/arduino15/packages/adafruit/tools/arm-none-eabi-gcc/9-2019q4/bin/../lib/gcc/arm-none-eabi/9.2.1/../../../../arm-none-eabi/lib/thumb/v7e-m+fp/hard\libc_nano.a(lib_a-isattyr.o)
 .debug_frame   0x000025c4       0x48 c:/users/spencer/appdata/local/arduino15/packages/adafruit/tools/arm-none-eabi-gcc/9-2019q4/bin/../lib/gcc/arm-none-eabi/9.2.1/../../../../arm-none-eabi/lib/thumb/v7e-m+fp/hard\libc_nano.a(lib_a-locale.o)
 .debug_frame   0x0000260c       0x2c c:/users/spencer/appdata/local/arduino15/packages/adafruit/tools/arm-none-eabi-gcc/9-2019q4/bin/../lib/gcc/arm-none-eabi/9.2.1/../../../../arm-none-eabi/lib/thumb/v7e-m+fp/hard\libc_nano.a(lib_a-lseekr.o)
 .debug_frame   0x00002638       0x48 c:/users/spencer/appdata/local/arduino15/packages/adafruit/tools/arm-none-eabi-gcc/9-2019q4/bin/../lib/gcc/arm-none-eabi/9.2.1/../../../../arm-none-eabi/lib/thumb/v7e-m+fp/hard\libc_nano.a(lib_a-mbtowc_r.o)
 .debug_frame   0x00002680       0x28 c:/users/spencer/appdata/local/arduino15/packages/adafruit/tools/arm-none-eabi-gcc/9-2019q4/bin/../lib/gcc/arm-none-eabi/9.2.1/../../../../arm-none-eabi/lib/thumb/v7e-m+fp/hard\libc_nano.a(lib_a-memmove.o)
 .debug_frame   0x000026a8       0x3c c:/users/spencer/appdata/local/arduino15/packages/adafruit/tools/arm-none-eabi-gcc/9-2019q4/bin/../lib/gcc/arm-none-eabi/9.2.1/../../../../arm-none-eabi/lib/thumb/v7e-m+fp/hard\libc_nano.a(lib_a-nano-reallocr.o)
 .debug_frame   0x000026e4       0x2c c:/users/spencer/appdata/local/arduino15/packages/adafruit/tools/arm-none-eabi-gcc/9-2019q4/bin/../lib/gcc/arm-none-eabi/9.2.1/../../../../arm-none-eabi/lib/thumb/v7e-m+fp/hard\libc_nano.a(lib_a-readr.o)
 .debug_frame   0x00002710       0x3c c:/users/spencer/appdata/local/arduino15/packages/adafruit/tools/arm-none-eabi-gcc/9-2019q4/bin/../lib/gcc/arm-none-eabi/9.2.1/../../../../arm-none-eabi/lib/thumb/v7e-m+fp/hard\libc_nano.a(lib_a-wctomb_r.o)
 .debug_frame   0x0000274c       0x20 c:/users/spencer/appdata/local/arduino15/packages/adafruit/tools/arm-none-eabi-gcc/9-2019q4/bin/../lib/gcc/arm-none-eabi/9.2.1/../../../../arm-none-eabi/lib/thumb/v7e-m+fp/hard\libc_nano.a(lib_a-nano-msizer.o)
 .debug_frame   0x0000276c       0xac c:/users/spencer/appdata/local/arduino15/packages/adafruit/tools/arm-none-eabi-gcc/9-2019q4/bin/../lib/gcc/arm-none-eabi/9.2.1/thumb/v7e-m+fp/hard\libgcc.a(_arm_addsubdf3.o)
 .debug_frame   0x00002818       0x50 c:/users/spencer/appdata/local/arduino15/packages/adafruit/tools/arm-none-eabi-gcc/9-2019q4/bin/../lib/gcc/arm-none-eabi/9.2.1/thumb/v7e-m+fp/hard\libgcc.a(_arm_muldivdf3.o)
 .debug_frame   0x00002868       0xc4 c:/users/spencer/appdata/local/arduino15/packages/adafruit/tools/arm-none-eabi-gcc/9-2019q4/bin/../lib/gcc/arm-none-eabi/9.2.1/thumb/v7e-m+fp/hard\libgcc.a(_arm_cmpdf2.o)
 .debug_frame   0x0000292c       0x20 c:/users/spencer/appdata/local/arduino15/packages/adafruit/tools/arm-none-eabi-gcc/9-2019q4/bin/../lib/gcc/arm-none-eabi/9.2.1/thumb/v7e-m+fp/hard\libgcc.a(_arm_unorddf2.o)
 .debug_frame   0x0000294c       0x24 c:/users/spencer/appdata/local/arduino15/packages/adafruit/tools/arm-none-eabi-gcc/9-2019q4/bin/../lib/gcc/arm-none-eabi/9.2.1/thumb/v7e-m+fp/hard\libgcc.a(_arm_fixdfsi.o)
 .debug_frame   0x00002970       0x20 c:/users/spencer/appdata/local/arduino15/packages/adafruit/tools/arm-none-eabi-gcc/9-2019q4/bin/../lib/gcc/arm-none-eabi/9.2.1/../../../../arm-none-eabi/lib/thumb/v7e-m+fp/hard\libnosys.a(close.o)
 .debug_frame   0x00002990       0x20 c:/users/spencer/appdata/local/arduino15/packages/adafruit/tools/arm-none-eabi-gcc/9-2019q4/bin/../lib/gcc/arm-none-eabi/9.2.1/../../../../arm-none-eabi/lib/thumb/v7e-m+fp/hard\libnosys.a(fstat.o)
 .debug_frame   0x000029b0       0x20 c:/users/spencer/appdata/local/arduino15/packages/adafruit/tools/arm-none-eabi-gcc/9-2019q4/bin/../lib/gcc/arm-none-eabi/9.2.1/../../../../arm-none-eabi/lib/thumb/v7e-m+fp/hard\libnosys.a(isatty.o)
 .debug_frame   0x000029d0       0x20 c:/users/spencer/appdata/local/arduino15/packages/adafruit/tools/arm-none-eabi-gcc/9-2019q4/bin/../lib/gcc/arm-none-eabi/9.2.1/../../../../arm-none-eabi/lib/thumb/v7e-m+fp/hard\libnosys.a(lseek.o)
 .debug_frame   0x000029f0       0x20 c:/users/spencer/appdata/local/arduino15/packages/adafruit/tools/arm-none-eabi-gcc/9-2019q4/bin/../lib/gcc/arm-none-eabi/9.2.1/../../../../arm-none-eabi/lib/thumb/v7e-m+fp/hard\libnosys.a(read.o)
 .debug_frame   0x00002a10       0x20 c:/users/spencer/appdata/local/arduino15/packages/adafruit/tools/arm-none-eabi-gcc/9-2019q4/bin/../lib/gcc/arm-none-eabi/9.2.1/../../../../arm-none-eabi/lib/thumb/v7e-m+fp/hard\libnosys.a(sbrk.o)
 .debug_frame   0x00002a30       0x20 c:/users/spencer/appdata/local/arduino15/packages/adafruit/tools/arm-none-eabi-gcc/9-2019q4/bin/../lib/gcc/arm-none-eabi/9.2.1/../../../../arm-none-eabi/lib/thumb/v7e-m+fp/hard\libnosys.a(_exit.o)

.debug_info     0x00000000    0x34f13
 .debug_info    0x00000000     0x5690 c:\Users\Spencer\Desktop\Keyboard\Firmware\BadgersRunFirmware\Build\sketch\keyboard.ino.cpp.o
 .debug_info    0x00005690      0x232 c:\Users\Spencer\Desktop\Keyboard\Firmware\BadgersRunFirmware\Build\core\variant.cpp.o
 .debug_info    0x000058c2       0x26 c:\Users\Spencer\Desktop\Keyboard\Firmware\BadgersRunFirmware\Build/core\core.a(gcc_startup_nrf52.S.o)
 .debug_info    0x000058e8     0x1282 c:\Users\Spencer\Desktop\Keyboard\Firmware\BadgersRunFirmware\Build/core\core.a(system_nrf52.c.o)
 .debug_info    0x00006b6a      0xfdb c:\Users\Spencer\Desktop\Keyboard\Firmware\BadgersRunFirmware\Build/core\core.a(wiring_digital.c.o)
 .debug_info    0x00007b45     0x5c32 c:\Users\Spencer\Desktop\Keyboard\Firmware\BadgersRunFirmware\Build/core\core.a(main.cpp.o)
 .debug_info    0x0000d777     0x5e56 c:\Users\Spencer\Desktop\Keyboard\Firmware\BadgersRunFirmware\Build/core\core.a(rtos.cpp.o)
 .debug_info    0x000135cd     0x6965 c:\Users\Spencer\Desktop\Keyboard\Firmware\BadgersRunFirmware\Build/core\core.a(debug.cpp.o)
 .debug_info    0x00019f32      0xa92 c:\Users\Spencer\Desktop\Keyboard\Firmware\BadgersRunFirmware\Build/core\core.a(heap_3.c.o)
 .debug_info    0x0001a9c4     0x4a44 c:\Users\Spencer\Desktop\Keyboard\Firmware\BadgersRunFirmware\Build/core\core.a(tasks.c.o)
 .debug_info    0x0001f408     0x26da c:\Users\Spencer\Desktop\Keyboard\Firmware\BadgersRunFirmware\Build/core\core.a(timers.c.o)
 .debug_info    0x00021ae2      0x90b c:\Users\Spencer\Desktop\Keyboard\Firmware\BadgersRunFirmware\Build/core\core.a(port_cmsis.c.o)
 .debug_info    0x000223ed     0x184b c:\Users\Spencer\Desktop\Keyboard\Firmware\BadgersRunFirmware\Build/core\core.a(port_cmsis_systick.c.o)
 .debug_info    0x00023c38       0xfe c:\Users\Spencer\Desktop\Keyboard\Firmware\BadgersRunFirmware\Build/core\core.a(port.c.o)
 .debug_info    0x00023d36       0x67 c:\Users\Spencer\Desktop\Keyboard\Firmware\BadgersRunFirmware\Build/core\core.a(hooks.c.o)
 .debug_info    0x00023d9d     0x161d c:\Users\Spencer\Desktop\Keyboard\Firmware\BadgersRunFirmware\Build/core\core.a(AdaCallback.c.o)
 .debug_info    0x000253ba      0xffa c:\Users\Spencer\Desktop\Keyboard\Firmware\BadgersRunFirmware\Build/core\core.a(utilities.c.o)
 .debug_info    0x000263b4     0x205d c:\Users\Spencer\Desktop\Keyboard\Firmware\BadgersRunFirmware\Build/core\core.a(wiring.c.o)
 .debug_info    0x00028411     0x725c c:\Users\Spencer\Desktop\Keyboard\Firmware\BadgersRunFirmware\Build/core\core.a(Uart.cpp.o)
 .debug_info    0x0002f66d      0xbb5 c:\Users\Spencer\Desktop\Keyboard\Firmware\BadgersRunFirmware\Build/core\core.a(list.c.o)
 .debug_info    0x00030222     0x3fa3 c:\Users\Spencer\Desktop\Keyboard\Firmware\BadgersRunFirmware\Build/core\core.a(queue.c.o)
 .debug_info    0x000341c5      0xd4e c:\Users\Spencer\Desktop\Keyboard\Firmware\BadgersRunFirmware\Build/core\core.a(RingBuffer.cpp.o)

.debug_abbrev   0x00000000     0x5f2d
 .debug_abbrev  0x00000000      0x704 c:\Users\Spencer\Desktop\Keyboard\Firmware\BadgersRunFirmware\Build\sketch\keyboard.ino.cpp.o
 .debug_abbrev  0x00000704      0x109 c:\Users\Spencer\Desktop\Keyboard\Firmware\BadgersRunFirmware\Build\core\variant.cpp.o
 .debug_abbrev  0x0000080d       0x14 c:\Users\Spencer\Desktop\Keyboard\Firmware\BadgersRunFirmware\Build/core\core.a(gcc_startup_nrf52.S.o)
 .debug_abbrev  0x00000821      0x211 c:\Users\Spencer\Desktop\Keyboard\Firmware\BadgersRunFirmware\Build/core\core.a(system_nrf52.c.o)
 .debug_abbrev  0x00000a32      0x394 c:\Users\Spencer\Desktop\Keyboard\Firmware\BadgersRunFirmware\Build/core\core.a(wiring_digital.c.o)
 .debug_abbrev  0x00000dc6      0x8a1 c:\Users\Spencer\Desktop\Keyboard\Firmware\BadgersRunFirmware\Build/core\core.a(main.cpp.o)
 .debug_abbrev  0x00001667      0x8dc c:\Users\Spencer\Desktop\Keyboard\Firmware\BadgersRunFirmware\Build/core\core.a(rtos.cpp.o)
 .debug_abbrev  0x00001f43      0xa02 c:\Users\Spencer\Desktop\Keyboard\Firmware\BadgersRunFirmware\Build/core\core.a(debug.cpp.o)
 .debug_abbrev  0x00002945      0x2a8 c:\Users\Spencer\Desktop\Keyboard\Firmware\BadgersRunFirmware\Build/core\core.a(heap_3.c.o)
 .debug_abbrev  0x00002bed      0x5ee c:\Users\Spencer\Desktop\Keyboard\Firmware\BadgersRunFirmware\Build/core\core.a(tasks.c.o)
 .debug_abbrev  0x000031db      0x4c6 c:\Users\Spencer\Desktop\Keyboard\Firmware\BadgersRunFirmware\Build/core\core.a(timers.c.o)
 .debug_abbrev  0x000036a1      0x2ec c:\Users\Spencer\Desktop\Keyboard\Firmware\BadgersRunFirmware\Build/core\core.a(port_cmsis.c.o)
 .debug_abbrev  0x0000398d      0x44d c:\Users\Spencer\Desktop\Keyboard\Firmware\BadgersRunFirmware\Build/core\core.a(port_cmsis_systick.c.o)
 .debug_abbrev  0x00003dda       0x80 c:\Users\Spencer\Desktop\Keyboard\Firmware\BadgersRunFirmware\Build/core\core.a(port.c.o)
 .debug_abbrev  0x00003e5a       0x4d c:\Users\Spencer\Desktop\Keyboard\Firmware\BadgersRunFirmware\Build/core\core.a(hooks.c.o)
 .debug_abbrev  0x00003ea7      0x43f c:\Users\Spencer\Desktop\Keyboard\Firmware\BadgersRunFirmware\Build/core\core.a(AdaCallback.c.o)
 .debug_abbrev  0x000042e6      0x2fc c:\Users\Spencer\Desktop\Keyboard\Firmware\BadgersRunFirmware\Build/core\core.a(utilities.c.o)
 .debug_abbrev  0x000045e2      0x434 c:\Users\Spencer\Desktop\Keyboard\Firmware\BadgersRunFirmware\Build/core\core.a(wiring.c.o)
 .debug_abbrev  0x00004a16      0xa64 c:\Users\Spencer\Desktop\Keyboard\Firmware\BadgersRunFirmware\Build/core\core.a(Uart.cpp.o)
 .debug_abbrev  0x0000547a      0x249 c:\Users\Spencer\Desktop\Keyboard\Firmware\BadgersRunFirmware\Build/core\core.a(list.c.o)
 .debug_abbrev  0x000056c3      0x509 c:\Users\Spencer\Desktop\Keyboard\Firmware\BadgersRunFirmware\Build/core\core.a(queue.c.o)
 .debug_abbrev  0x00005bcc      0x361 c:\Users\Spencer\Desktop\Keyboard\Firmware\BadgersRunFirmware\Build/core\core.a(RingBuffer.cpp.o)

.debug_aranges  0x00000000      0x888
 .debug_aranges
                0x00000000       0x20 c:\Users\Spencer\Desktop\Keyboard\Firmware\BadgersRunFirmware\Build\sketch\keyboard.ino.cpp.o
 .debug_aranges
                0x00000020       0x20 c:\Users\Spencer\Desktop\Keyboard\Firmware\BadgersRunFirmware\Build\core\variant.cpp.o
 .debug_aranges
                0x00000040       0x20 c:\Users\Spencer\Desktop\Keyboard\Firmware\BadgersRunFirmware\Build/core\core.a(gcc_startup_nrf52.S.o)
 .debug_aranges
                0x00000060       0x28 c:\Users\Spencer\Desktop\Keyboard\Firmware\BadgersRunFirmware\Build/core\core.a(system_nrf52.c.o)
 .debug_aranges
                0x00000088       0x48 c:\Users\Spencer\Desktop\Keyboard\Firmware\BadgersRunFirmware\Build/core\core.a(wiring_digital.c.o)
 .debug_aranges
                0x000000d0       0x48 c:\Users\Spencer\Desktop\Keyboard\Firmware\BadgersRunFirmware\Build/core\core.a(main.cpp.o)
 .debug_aranges
                0x00000118       0x58 c:\Users\Spencer\Desktop\Keyboard\Firmware\BadgersRunFirmware\Build/core\core.a(rtos.cpp.o)
 .debug_aranges
                0x00000170       0x78 c:\Users\Spencer\Desktop\Keyboard\Firmware\BadgersRunFirmware\Build/core\core.a(debug.cpp.o)
 .debug_aranges
                0x000001e8       0x28 c:\Users\Spencer\Desktop\Keyboard\Firmware\BadgersRunFirmware\Build/core\core.a(heap_3.c.o)
 .debug_aranges
                0x00000210      0x1d0 c:\Users\Spencer\Desktop\Keyboard\Firmware\BadgersRunFirmware\Build/core\core.a(tasks.c.o)
 .debug_aranges
                0x000003e0       0xa0 c:\Users\Spencer\Desktop\Keyboard\Firmware\BadgersRunFirmware\Build/core\core.a(timers.c.o)
 .debug_aranges
                0x00000480       0x48 c:\Users\Spencer\Desktop\Keyboard\Firmware\BadgersRunFirmware\Build/core\core.a(port_cmsis.c.o)
 .debug_aranges
                0x000004c8       0x40 c:\Users\Spencer\Desktop\Keyboard\Firmware\BadgersRunFirmware\Build/core\core.a(port_cmsis_systick.c.o)
 .debug_aranges
                0x00000508       0x30 c:\Users\Spencer\Desktop\Keyboard\Firmware\BadgersRunFirmware\Build/core\core.a(port.c.o)
 .debug_aranges
                0x00000538       0x30 c:\Users\Spencer\Desktop\Keyboard\Firmware\BadgersRunFirmware\Build/core\core.a(hooks.c.o)
 .debug_aranges
                0x00000568       0x40 c:\Users\Spencer\Desktop\Keyboard\Firmware\BadgersRunFirmware\Build/core\core.a(AdaCallback.c.o)
 .debug_aranges
                0x000005a8       0x30 c:\Users\Spencer\Desktop\Keyboard\Firmware\BadgersRunFirmware\Build/core\core.a(utilities.c.o)
 .debug_aranges
                0x000005d8       0x68 c:\Users\Spencer\Desktop\Keyboard\Firmware\BadgersRunFirmware\Build/core\core.a(wiring.c.o)
 .debug_aranges
                0x00000640       0xa8 c:\Users\Spencer\Desktop\Keyboard\Firmware\BadgersRunFirmware\Build/core\core.a(Uart.cpp.o)
 .debug_aranges
                0x000006e8       0x40 c:\Users\Spencer\Desktop\Keyboard\Firmware\BadgersRunFirmware\Build/core\core.a(list.c.o)
 .debug_aranges
                0x00000728      0x108 c:\Users\Spencer\Desktop\Keyboard\Firmware\BadgersRunFirmware\Build/core\core.a(queue.c.o)
 .debug_aranges
                0x00000830       0x58 c:\Users\Spencer\Desktop\Keyboard\Firmware\BadgersRunFirmware\Build/core\core.a(RingBuffer.cpp.o)

.debug_ranges   0x00000000     0x23d8
 .debug_ranges  0x00000000       0x10 c:\Users\Spencer\Desktop\Keyboard\Firmware\BadgersRunFirmware\Build\sketch\keyboard.ino.cpp.o
 .debug_ranges  0x00000010       0x10 c:\Users\Spencer\Desktop\Keyboard\Firmware\BadgersRunFirmware\Build\core\variant.cpp.o
 .debug_ranges  0x00000020      0x138 c:\Users\Spencer\Desktop\Keyboard\Firmware\BadgersRunFirmware\Build/core\core.a(system_nrf52.c.o)
 .debug_ranges  0x00000158      0x120 c:\Users\Spencer\Desktop\Keyboard\Firmware\BadgersRunFirmware\Build/core\core.a(wiring_digital.c.o)
 .debug_ranges  0x00000278       0x38 c:\Users\Spencer\Desktop\Keyboard\Firmware\BadgersRunFirmware\Build/core\core.a(main.cpp.o)
 .debug_ranges  0x000002b0       0x98 c:\Users\Spencer\Desktop\Keyboard\Firmware\BadgersRunFirmware\Build/core\core.a(rtos.cpp.o)
 .debug_ranges  0x00000348      0x1b0 c:\Users\Spencer\Desktop\Keyboard\Firmware\BadgersRunFirmware\Build/core\core.a(debug.cpp.o)
 .debug_ranges  0x000004f8       0x18 c:\Users\Spencer\Desktop\Keyboard\Firmware\BadgersRunFirmware\Build/core\core.a(heap_3.c.o)
 .debug_ranges  0x00000510      0x9c0 c:\Users\Spencer\Desktop\Keyboard\Firmware\BadgersRunFirmware\Build/core\core.a(tasks.c.o)
 .debug_ranges  0x00000ed0      0x2e0 c:\Users\Spencer\Desktop\Keyboard\Firmware\BadgersRunFirmware\Build/core\core.a(timers.c.o)
 .debug_ranges  0x000011b0       0x68 c:\Users\Spencer\Desktop\Keyboard\Firmware\BadgersRunFirmware\Build/core\core.a(port_cmsis.c.o)
 .debug_ranges  0x00001218      0x3c0 c:\Users\Spencer\Desktop\Keyboard\Firmware\BadgersRunFirmware\Build/core\core.a(port_cmsis_systick.c.o)
 .debug_ranges  0x000015d8       0x20 c:\Users\Spencer\Desktop\Keyboard\Firmware\BadgersRunFirmware\Build/core\core.a(port.c.o)
 .debug_ranges  0x000015f8       0x20 c:\Users\Spencer\Desktop\Keyboard\Firmware\BadgersRunFirmware\Build/core\core.a(hooks.c.o)
 .debug_ranges  0x00001618      0x158 c:\Users\Spencer\Desktop\Keyboard\Firmware\BadgersRunFirmware\Build/core\core.a(AdaCallback.c.o)
 .debug_ranges  0x00001770       0x68 c:\Users\Spencer\Desktop\Keyboard\Firmware\BadgersRunFirmware\Build/core\core.a(utilities.c.o)
 .debug_ranges  0x000017d8      0x120 c:\Users\Spencer\Desktop\Keyboard\Firmware\BadgersRunFirmware\Build/core\core.a(wiring.c.o)
 .debug_ranges  0x000018f8      0x338 c:\Users\Spencer\Desktop\Keyboard\Firmware\BadgersRunFirmware\Build/core\core.a(Uart.cpp.o)
 .debug_ranges  0x00001c30       0x30 c:\Users\Spencer\Desktop\Keyboard\Firmware\BadgersRunFirmware\Build/core\core.a(list.c.o)
 .debug_ranges  0x00001c60      0x700 c:\Users\Spencer\Desktop\Keyboard\Firmware\BadgersRunFirmware\Build/core\core.a(queue.c.o)
 .debug_ranges  0x00002360       0x78 c:\Users\Spencer\Desktop\Keyboard\Firmware\BadgersRunFirmware\Build/core\core.a(RingBuffer.cpp.o)

.debug_line     0x00000000    0x10265
 .debug_line    0x00000000      0x73a c:\Users\Spencer\Desktop\Keyboard\Firmware\BadgersRunFirmware\Build\sketch\keyboard.ino.cpp.o
 .debug_line    0x0000073a      0x363 c:\Users\Spencer\Desktop\Keyboard\Firmware\BadgersRunFirmware\Build\core\variant.cpp.o
 .debug_line    0x00000a9d       0xd1 c:\Users\Spencer\Desktop\Keyboard\Firmware\BadgersRunFirmware\Build/core\core.a(gcc_startup_nrf52.S.o)
 .debug_line    0x00000b6e      0x7ac c:\Users\Spencer\Desktop\Keyboard\Firmware\BadgersRunFirmware\Build/core\core.a(system_nrf52.c.o)
 .debug_line    0x0000131a      0x7a7 c:\Users\Spencer\Desktop\Keyboard\Firmware\BadgersRunFirmware\Build/core\core.a(wiring_digital.c.o)
 .debug_line    0x00001ac1      0xa42 c:\Users\Spencer\Desktop\Keyboard\Firmware\BadgersRunFirmware\Build/core\core.a(main.cpp.o)
 .debug_line    0x00002503      0xae7 c:\Users\Spencer\Desktop\Keyboard\Firmware\BadgersRunFirmware\Build/core\core.a(rtos.cpp.o)
 .debug_line    0x00002fea     0x101b c:\Users\Spencer\Desktop\Keyboard\Firmware\BadgersRunFirmware\Build/core\core.a(debug.cpp.o)
 .debug_line    0x00004005      0x4d5 c:\Users\Spencer\Desktop\Keyboard\Firmware\BadgersRunFirmware\Build/core\core.a(heap_3.c.o)
 .debug_line    0x000044da     0x3760 c:\Users\Spencer\Desktop\Keyboard\Firmware\BadgersRunFirmware\Build/core\core.a(tasks.c.o)
 .debug_line    0x00007c3a      0xf86 c:\Users\Spencer\Desktop\Keyboard\Firmware\BadgersRunFirmware\Build/core\core.a(timers.c.o)
 .debug_line    0x00008bc0      0x53c c:\Users\Spencer\Desktop\Keyboard\Firmware\BadgersRunFirmware\Build/core\core.a(port_cmsis.c.o)
 .debug_line    0x000090fc      0xcdc c:\Users\Spencer\Desktop\Keyboard\Firmware\BadgersRunFirmware\Build/core\core.a(port_cmsis_systick.c.o)
 .debug_line    0x00009dd8      0x2fb c:\Users\Spencer\Desktop\Keyboard\Firmware\BadgersRunFirmware\Build/core\core.a(port.c.o)
 .debug_line    0x0000a0d3       0xd6 c:\Users\Spencer\Desktop\Keyboard\Firmware\BadgersRunFirmware\Build/core\core.a(hooks.c.o)
 .debug_line    0x0000a1a9      0xaff c:\Users\Spencer\Desktop\Keyboard\Firmware\BadgersRunFirmware\Build/core\core.a(AdaCallback.c.o)
 .debug_line    0x0000aca8      0x5f4 c:\Users\Spencer\Desktop\Keyboard\Firmware\BadgersRunFirmware\Build/core\core.a(utilities.c.o)
 .debug_line    0x0000b29c      0x891 c:\Users\Spencer\Desktop\Keyboard\Firmware\BadgersRunFirmware\Build/core\core.a(wiring.c.o)
 .debug_line    0x0000bb2d     0x1190 c:\Users\Spencer\Desktop\Keyboard\Firmware\BadgersRunFirmware\Build/core\core.a(Uart.cpp.o)
 .debug_line    0x0000ccbd      0x6a3 c:\Users\Spencer\Desktop\Keyboard\Firmware\BadgersRunFirmware\Build/core\core.a(list.c.o)
 .debug_line    0x0000d360     0x2b48 c:\Users\Spencer\Desktop\Keyboard\Firmware\BadgersRunFirmware\Build/core\core.a(queue.c.o)
 .debug_line    0x0000fea8      0x3bd c:\Users\Spencer\Desktop\Keyboard\Firmware\BadgersRunFirmware\Build/core\core.a(RingBuffer.cpp.o)

.debug_str      0x00000000     0x832e
 .debug_str     0x00000000     0x32cd c:\Users\Spencer\Desktop\Keyboard\Firmware\BadgersRunFirmware\Build\sketch\keyboard.ino.cpp.o
                               0x34d6 (size before relaxing)
 .debug_str     0x000032cd       0xa3 c:\Users\Spencer\Desktop\Keyboard\Firmware\BadgersRunFirmware\Build\core\variant.cpp.o
                                0x32e (size before relaxing)
 .debug_str     0x00003370       0x85 c:\Users\Spencer\Desktop\Keyboard\Firmware\BadgersRunFirmware\Build/core\core.a(gcc_startup_nrf52.S.o)
                                 0xd4 (size before relaxing)
 .debug_str     0x000033f5      0x5dc c:\Users\Spencer\Desktop\Keyboard\Firmware\BadgersRunFirmware\Build/core\core.a(system_nrf52.c.o)
                                0x765 (size before relaxing)
 .debug_str     0x000039d1      0x114 c:\Users\Spencer\Desktop\Keyboard\Firmware\BadgersRunFirmware\Build/core\core.a(wiring_digital.c.o)
                                0x7ea (size before relaxing)
 .debug_str     0x00003ae5      0x21f c:\Users\Spencer\Desktop\Keyboard\Firmware\BadgersRunFirmware\Build/core\core.a(main.cpp.o)
                               0x3725 (size before relaxing)
 .debug_str     0x00003d04      0x352 c:\Users\Spencer\Desktop\Keyboard\Firmware\BadgersRunFirmware\Build/core\core.a(rtos.cpp.o)
                               0x3892 (size before relaxing)
 .debug_str     0x00004056      0x8a2 c:\Users\Spencer\Desktop\Keyboard\Firmware\BadgersRunFirmware\Build/core\core.a(debug.cpp.o)
                               0x3e1e (size before relaxing)
 .debug_str     0x000048f8       0xba c:\Users\Spencer\Desktop\Keyboard\Firmware\BadgersRunFirmware\Build/core\core.a(heap_3.c.o)
                                0x6fd (size before relaxing)
 .debug_str     0x000049b2      0xfa2 c:\Users\Spencer\Desktop\Keyboard\Firmware\BadgersRunFirmware\Build/core\core.a(tasks.c.o)
                               0x1909 (size before relaxing)
 .debug_str     0x00005954      0x703 c:\Users\Spencer\Desktop\Keyboard\Firmware\BadgersRunFirmware\Build/core\core.a(timers.c.o)
                               0x10e4 (size before relaxing)
 .debug_str     0x00006057      0x40d c:\Users\Spencer\Desktop\Keyboard\Firmware\BadgersRunFirmware\Build/core\core.a(port_cmsis.c.o)
                                0x7aa (size before relaxing)
 .debug_str     0x00006464      0xa37 c:\Users\Spencer\Desktop\Keyboard\Firmware\BadgersRunFirmware\Build/core\core.a(port_cmsis_systick.c.o)
                               0x119d (size before relaxing)
 .debug_str     0x00006e9b       0x9a c:\Users\Spencer\Desktop\Keyboard\Firmware\BadgersRunFirmware\Build/core\core.a(port.c.o)
                                0x2c4 (size before relaxing)
 .debug_str     0x00006f35       0x7b c:\Users\Spencer\Desktop\Keyboard\Firmware\BadgersRunFirmware\Build/core\core.a(hooks.c.o)
                                0x1b9 (size before relaxing)
 .debug_str     0x00006fb0      0x22c c:\Users\Spencer\Desktop\Keyboard\Firmware\BadgersRunFirmware\Build/core\core.a(AdaCallback.c.o)
                                0xafd (size before relaxing)
 .debug_str     0x000071dc       0xaa c:\Users\Spencer\Desktop\Keyboard\Firmware\BadgersRunFirmware\Build/core\core.a(utilities.c.o)
                                0x8da (size before relaxing)
 .debug_str     0x00007286      0x34f c:\Users\Spencer\Desktop\Keyboard\Firmware\BadgersRunFirmware\Build/core\core.a(wiring.c.o)
                               0x1585 (size before relaxing)
 .debug_str     0x000075d5      0x6e2 c:\Users\Spencer\Desktop\Keyboard\Firmware\BadgersRunFirmware\Build/core\core.a(Uart.cpp.o)
                               0x40d7 (size before relaxing)
 .debug_str     0x00007cb7       0xb4 c:\Users\Spencer\Desktop\Keyboard\Firmware\BadgersRunFirmware\Build/core\core.a(list.c.o)
                                0x7ae (size before relaxing)
 .debug_str     0x00007d6b      0x53e c:\Users\Spencer\Desktop\Keyboard\Firmware\BadgersRunFirmware\Build/core\core.a(queue.c.o)
                               0x1102 (size before relaxing)
 .debug_str     0x000082a9       0x85 c:\Users\Spencer\Desktop\Keyboard\Firmware\BadgersRunFirmware\Build/core\core.a(RingBuffer.cpp.o)
                                0x80a (size before relaxing)

.debug_loc      0x00000000     0xab4d
 .debug_loc     0x00000000      0x5b0 c:\Users\Spencer\Desktop\Keyboard\Firmware\BadgersRunFirmware\Build/core\core.a(system_nrf52.c.o)
 .debug_loc     0x000005b0      0x548 c:\Users\Spencer\Desktop\Keyboard\Firmware\BadgersRunFirmware\Build/core\core.a(wiring_digital.c.o)
 .debug_loc     0x00000af8       0x94 c:\Users\Spencer\Desktop\Keyboard\Firmware\BadgersRunFirmware\Build/core\core.a(main.cpp.o)
 .debug_loc     0x00000b8c      0x1b0 c:\Users\Spencer\Desktop\Keyboard\Firmware\BadgersRunFirmware\Build/core\core.a(rtos.cpp.o)
 .debug_loc     0x00000d3c      0x7aa c:\Users\Spencer\Desktop\Keyboard\Firmware\BadgersRunFirmware\Build/core\core.a(debug.cpp.o)
 .debug_loc     0x000014e6       0x84 c:\Users\Spencer\Desktop\Keyboard\Firmware\BadgersRunFirmware\Build/core\core.a(heap_3.c.o)
 .debug_loc     0x0000156a     0x366c c:\Users\Spencer\Desktop\Keyboard\Firmware\BadgersRunFirmware\Build/core\core.a(tasks.c.o)
 .debug_loc     0x00004bd6     0x130c c:\Users\Spencer\Desktop\Keyboard\Firmware\BadgersRunFirmware\Build/core\core.a(timers.c.o)
 .debug_loc     0x00005ee2      0x105 c:\Users\Spencer\Desktop\Keyboard\Firmware\BadgersRunFirmware\Build/core\core.a(port_cmsis.c.o)
 .debug_loc     0x00005fe7      0x957 c:\Users\Spencer\Desktop\Keyboard\Firmware\BadgersRunFirmware\Build/core\core.a(port_cmsis_systick.c.o)
 .debug_loc     0x0000693e      0x4f1 c:\Users\Spencer\Desktop\Keyboard\Firmware\BadgersRunFirmware\Build/core\core.a(AdaCallback.c.o)
 .debug_loc     0x00006e2f       0x5d c:\Users\Spencer\Desktop\Keyboard\Firmware\BadgersRunFirmware\Build/core\core.a(utilities.c.o)
 .debug_loc     0x00006e8c      0x1f3 c:\Users\Spencer\Desktop\Keyboard\Firmware\BadgersRunFirmware\Build/core\core.a(wiring.c.o)
 .debug_loc     0x0000707f      0xf20 c:\Users\Spencer\Desktop\Keyboard\Firmware\BadgersRunFirmware\Build/core\core.a(Uart.cpp.o)
 .debug_loc     0x00007f9f       0xbc c:\Users\Spencer\Desktop\Keyboard\Firmware\BadgersRunFirmware\Build/core\core.a(list.c.o)
 .debug_loc     0x0000805b     0x2902 c:\Users\Spencer\Desktop\Keyboard\Firmware\BadgersRunFirmware\Build/core\core.a(queue.c.o)
 .debug_loc     0x0000a95d      0x1f0 c:\Users\Spencer\Desktop\Keyboard\Firmware\BadgersRunFirmware\Build/core\core.a(RingBuffer.cpp.o)

.stab           0x00000000       0x84
 .stab          0x00000000       0x24 c:/users/spencer/appdata/local/arduino15/packages/adafruit/tools/arm-none-eabi-gcc/9-2019q4/bin/../lib/gcc/arm-none-eabi/9.2.1/../../../../arm-none-eabi/lib/thumb/v7e-m+fp/hard\libnosys.a(close.o)
 .stab          0x00000024       0x18 c:/users/spencer/appdata/local/arduino15/packages/adafruit/tools/arm-none-eabi-gcc/9-2019q4/bin/../lib/gcc/arm-none-eabi/9.2.1/../../../../arm-none-eabi/lib/thumb/v7e-m+fp/hard\libnosys.a(fstat.o)
                                 0x24 (size before relaxing)
 .stab          0x0000003c       0x18 c:/users/spencer/appdata/local/arduino15/packages/adafruit/tools/arm-none-eabi-gcc/9-2019q4/bin/../lib/gcc/arm-none-eabi/9.2.1/../../../../arm-none-eabi/lib/thumb/v7e-m+fp/hard\libnosys.a(isatty.o)
                                 0x24 (size before relaxing)
 .stab          0x00000054       0x18 c:/users/spencer/appdata/local/arduino15/packages/adafruit/tools/arm-none-eabi-gcc/9-2019q4/bin/../lib/gcc/arm-none-eabi/9.2.1/../../../../arm-none-eabi/lib/thumb/v7e-m+fp/hard\libnosys.a(lseek.o)
                                 0x24 (size before relaxing)
 .stab          0x0000006c       0x18 c:/users/spencer/appdata/local/arduino15/packages/adafruit/tools/arm-none-eabi-gcc/9-2019q4/bin/../lib/gcc/arm-none-eabi/9.2.1/../../../../arm-none-eabi/lib/thumb/v7e-m+fp/hard\libnosys.a(read.o)
                                 0x24 (size before relaxing)

.stabstr        0x00000000      0x117
 .stabstr       0x00000000      0x117 c:/users/spencer/appdata/local/arduino15/packages/adafruit/tools/arm-none-eabi-gcc/9-2019q4/bin/../lib/gcc/arm-none-eabi/9.2.1/../../../../arm-none-eabi/lib/thumb/v7e-m+fp/hard\libnosys.a(close.o)

Cross Reference Table

Symbol                                            File
Bluefruit_printInfo()                             c:\Users\Spencer\Desktop\Keyboard\Firmware\BadgersRunFirmware\Build/core\core.a(main.cpp.o)
BusFault_Handler                                  c:\Users\Spencer\Desktop\Keyboard\Firmware\BadgersRunFirmware\Build/core\core.a(gcc_startup_nrf52.S.o)
CCM_AAR_IRQHandler                                c:\Users\Spencer\Desktop\Keyboard\Firmware\BadgersRunFirmware\Build/core\core.a(gcc_startup_nrf52.S.o)
COMP_LPCOMP_IRQHandler                            c:\Users\Spencer\Desktop\Keyboard\Firmware\BadgersRunFirmware\Build/core\core.a(gcc_startup_nrf52.S.o)
DebugMon_Handler                                  c:\Users\Spencer\Desktop\Keyboard\Firmware\BadgersRunFirmware\Build/core\core.a(gcc_startup_nrf52.S.o)
Default_Handler                                   c:\Users\Spencer\Desktop\Keyboard\Firmware\BadgersRunFirmware\Build/core\core.a(gcc_startup_nrf52.S.o)
ECB_IRQHandler                                    c:\Users\Spencer\Desktop\Keyboard\Firmware\BadgersRunFirmware\Build/core\core.a(gcc_startup_nrf52.S.o)
FPU_IRQHandler                                    c:\Users\Spencer\Desktop\Keyboard\Firmware\BadgersRunFirmware\Build/core\core.a(gcc_startup_nrf52.S.o)
GPIOTE_IRQHandler                                 c:\Users\Spencer\Desktop\Keyboard\Firmware\BadgersRunFirmware\Build/core\core.a(gcc_startup_nrf52.S.o)
HardFault_Handler                                 c:\Users\Spencer\Desktop\Keyboard\Firmware\BadgersRunFirmware\Build/core\core.a(debug.cpp.o)
                                                  c:\Users\Spencer\Desktop\Keyboard\Firmware\BadgersRunFirmware\Build/core\core.a(gcc_startup_nrf52.S.o)
I2S_IRQHandler                                    c:\Users\Spencer\Desktop\Keyboard\Firmware\BadgersRunFirmware\Build/core\core.a(gcc_startup_nrf52.S.o)
MWU_IRQHandler                                    c:\Users\Spencer\Desktop\Keyboard\Firmware\BadgersRunFirmware\Build/core\core.a(gcc_startup_nrf52.S.o)
MemoryManagement_Handler                          c:\Users\Spencer\Desktop\Keyboard\Firmware\BadgersRunFirmware\Build/core\core.a(gcc_startup_nrf52.S.o)
NFCT_IRQHandler                                   c:\Users\Spencer\Desktop\Keyboard\Firmware\BadgersRunFirmware\Build/core\core.a(gcc_startup_nrf52.S.o)
NMI_Handler                                       c:\Users\Spencer\Desktop\Keyboard\Firmware\BadgersRunFirmware\Build/core\core.a(gcc_startup_nrf52.S.o)
PDM_IRQHandler                                    c:\Users\Spencer\Desktop\Keyboard\Firmware\BadgersRunFirmware\Build/core\core.a(gcc_startup_nrf52.S.o)
POWER_CLOCK_IRQHandler                            c:\Users\Spencer\Desktop\Keyboard\Firmware\BadgersRunFirmware\Build/core\core.a(gcc_startup_nrf52.S.o)
PWM0_IRQHandler                                   c:\Users\Spencer\Desktop\Keyboard\Firmware\BadgersRunFirmware\Build/core\core.a(gcc_startup_nrf52.S.o)
PWM1_IRQHandler                                   c:\Users\Spencer\Desktop\Keyboard\Firmware\BadgersRunFirmware\Build/core\core.a(gcc_startup_nrf52.S.o)
PWM2_IRQHandler                                   c:\Users\Spencer\Desktop\Keyboard\Firmware\BadgersRunFirmware\Build/core\core.a(gcc_startup_nrf52.S.o)
PendSV_Handler                                    c:\Users\Spencer\Desktop\Keyboard\Firmware\BadgersRunFirmware\Build/core\core.a(port.c.o)
                                                  c:\Users\Spencer\Desktop\Keyboard\Firmware\BadgersRunFirmware\Build/core\core.a(gcc_startup_nrf52.S.o)
Print::availableForWrite()                        c:\Users\Spencer\Desktop\Keyboard\Firmware\BadgersRunFirmware\Build/core\core.a(Uart.cpp.o)
QDEC_IRQHandler                                   c:\Users\Spencer\Desktop\Keyboard\Firmware\BadgersRunFirmware\Build/core\core.a(gcc_startup_nrf52.S.o)
RADIO_IRQHandler                                  c:\Users\Spencer\Desktop\Keyboard\Firmware\BadgersRunFirmware\Build/core\core.a(gcc_startup_nrf52.S.o)
RNG_IRQHandler                                    c:\Users\Spencer\Desktop\Keyboard\Firmware\BadgersRunFirmware\Build/core\core.a(gcc_startup_nrf52.S.o)
RTC0_IRQHandler                                   c:\Users\Spencer\Desktop\Keyboard\Firmware\BadgersRunFirmware\Build/core\core.a(gcc_startup_nrf52.S.o)
RTC1_IRQHandler                                   c:\Users\Spencer\Desktop\Keyboard\Firmware\BadgersRunFirmware\Build/core\core.a(port_cmsis_systick.c.o)
                                                  c:\Users\Spencer\Desktop\Keyboard\Firmware\BadgersRunFirmware\Build/core\core.a(gcc_startup_nrf52.S.o)
RTC2_IRQHandler                                   c:\Users\Spencer\Desktop\Keyboard\Firmware\BadgersRunFirmware\Build/core\core.a(gcc_startup_nrf52.S.o)
Reset_Handler                                     c:\Users\Spencer\Desktop\Keyboard\Firmware\BadgersRunFirmware\Build/core\core.a(gcc_startup_nrf52.S.o)
RingBuffer::RingBuffer()                          c:\Users\Spencer\Desktop\Keyboard\Firmware\BadgersRunFirmware\Build/core\core.a(RingBuffer.cpp.o)
RingBuffer::RingBuffer()                          c:\Users\Spencer\Desktop\Keyboard\Firmware\BadgersRunFirmware\Build/core\core.a(RingBuffer.cpp.o)
                                                  c:\Users\Spencer\Desktop\Keyboard\Firmware\BadgersRunFirmware\Build/core\core.a(Uart.cpp.o)
RingBuffer::available()                           c:\Users\Spencer\Desktop\Keyboard\Firmware\BadgersRunFirmware\Build/core\core.a(RingBuffer.cpp.o)
                                                  c:\Users\Spencer\Desktop\Keyboard\Firmware\BadgersRunFirmware\Build/core\core.a(Uart.cpp.o)
RingBuffer::clear()                               c:\Users\Spencer\Desktop\Keyboard\Firmware\BadgersRunFirmware\Build/core\core.a(RingBuffer.cpp.o)
                                                  c:\Users\Spencer\Desktop\Keyboard\Firmware\BadgersRunFirmware\Build/core\core.a(Uart.cpp.o)
RingBuffer::isFull()                              c:\Users\Spencer\Desktop\Keyboard\Firmware\BadgersRunFirmware\Build/core\core.a(RingBuffer.cpp.o)
RingBuffer::nextIndex(int)                        c:\Users\Spencer\Desktop\Keyboard\Firmware\BadgersRunFirmware\Build/core\core.a(RingBuffer.cpp.o)
RingBuffer::peek()                                c:\Users\Spencer\Desktop\Keyboard\Firmware\BadgersRunFirmware\Build/core\core.a(RingBuffer.cpp.o)
                                                  c:\Users\Spencer\Desktop\Keyboard\Firmware\BadgersRunFirmware\Build/core\core.a(Uart.cpp.o)
RingBuffer::read_char()                           c:\Users\Spencer\Desktop\Keyboard\Firmware\BadgersRunFirmware\Build/core\core.a(RingBuffer.cpp.o)
                                                  c:\Users\Spencer\Desktop\Keyboard\Firmware\BadgersRunFirmware\Build/core\core.a(Uart.cpp.o)
RingBuffer::store_char(unsigned char)             c:\Users\Spencer\Desktop\Keyboard\Firmware\BadgersRunFirmware\Build/core\core.a(RingBuffer.cpp.o)
                                                  c:\Users\Spencer\Desktop\Keyboard\Firmware\BadgersRunFirmware\Build/core\core.a(Uart.cpp.o)
SAADC_IRQHandler                                  c:\Users\Spencer\Desktop\Keyboard\Firmware\BadgersRunFirmware\Build/core\core.a(gcc_startup_nrf52.S.o)
SPIM0_SPIS0_TWIM0_TWIS0_SPI0_TWI0_IRQHandler      c:\Users\Spencer\Desktop\Keyboard\Firmware\BadgersRunFirmware\Build/core\core.a(gcc_startup_nrf52.S.o)
SPIM1_SPIS1_TWIM1_TWIS1_SPI1_TWI1_IRQHandler      c:\Users\Spencer\Desktop\Keyboard\Firmware\BadgersRunFirmware\Build/core\core.a(gcc_startup_nrf52.S.o)
SPIM2_SPIS2_SPI2_IRQHandler                       c:\Users\Spencer\Desktop\Keyboard\Firmware\BadgersRunFirmware\Build/core\core.a(gcc_startup_nrf52.S.o)
SVC_Handler                                       c:\Users\Spencer\Desktop\Keyboard\Firmware\BadgersRunFirmware\Build/core\core.a(port.c.o)
                                                  c:\Users\Spencer\Desktop\Keyboard\Firmware\BadgersRunFirmware\Build/core\core.a(gcc_startup_nrf52.S.o)
SWI0_EGU0_IRQHandler                              c:\Users\Spencer\Desktop\Keyboard\Firmware\BadgersRunFirmware\Build/core\core.a(gcc_startup_nrf52.S.o)
SWI1_EGU1_IRQHandler                              c:\Users\Spencer\Desktop\Keyboard\Firmware\BadgersRunFirmware\Build/core\core.a(gcc_startup_nrf52.S.o)
SWI2_EGU2_IRQHandler                              c:\Users\Spencer\Desktop\Keyboard\Firmware\BadgersRunFirmware\Build/core\core.a(gcc_startup_nrf52.S.o)
SWI3_EGU3_IRQHandler                              c:\Users\Spencer\Desktop\Keyboard\Firmware\BadgersRunFirmware\Build/core\core.a(gcc_startup_nrf52.S.o)
SWI4_EGU4_IRQHandler                              c:\Users\Spencer\Desktop\Keyboard\Firmware\BadgersRunFirmware\Build/core\core.a(gcc_startup_nrf52.S.o)
SWI5_EGU5_IRQHandler                              c:\Users\Spencer\Desktop\Keyboard\Firmware\BadgersRunFirmware\Build/core\core.a(gcc_startup_nrf52.S.o)
Scheduler                                         c:\Users\Spencer\Desktop\Keyboard\Firmware\BadgersRunFirmware\Build/core\core.a(rtos.cpp.o)
SchedulerRTOS::SchedulerRTOS()                    c:\Users\Spencer\Desktop\Keyboard\Firmware\BadgersRunFirmware\Build/core\core.a(rtos.cpp.o)
SchedulerRTOS::SchedulerRTOS()                    c:\Users\Spencer\Desktop\Keyboard\Firmware\BadgersRunFirmware\Build/core\core.a(rtos.cpp.o)
SchedulerRTOS::startLoop(void (*)(), unsigned long, unsigned long, char const*) c:\Users\Spencer\Desktop\Keyboard\Firmware\BadgersRunFirmware\Build/core\core.a(rtos.cpp.o)
Serial                                            c:\Users\Spencer\Desktop\Keyboard\Firmware\BadgersRunFirmware\Build/core\core.a(Uart.cpp.o)
                                                  c:\Users\Spencer\Desktop\Keyboard\Firmware\BadgersRunFirmware\Build/core\core.a(main.cpp.o)
SysTick_Handler                                   c:\Users\Spencer\Desktop\Keyboard\Firmware\BadgersRunFirmware\Build/core\core.a(gcc_startup_nrf52.S.o)
SystemCoreClock                                   c:\Users\Spencer\Desktop\Keyboard\Firmware\BadgersRunFirmware\Build/core\core.a(system_nrf52.c.o)
SystemCoreClockUpdate                             c:\Users\Spencer\Desktop\Keyboard\Firmware\BadgersRunFirmware\Build/core\core.a(system_nrf52.c.o)
SystemInit                                        c:\Users\Spencer\Desktop\Keyboard\Firmware\BadgersRunFirmware\Build/core\core.a(system_nrf52.c.o)
                                                  c:\Users\Spencer\Desktop\Keyboard\Firmware\BadgersRunFirmware\Build/core\core.a(gcc_startup_nrf52.S.o)
TEMP_IRQHandler                                   c:\Users\Spencer\Desktop\Keyboard\Firmware\BadgersRunFirmware\Build/core\core.a(gcc_startup_nrf52.S.o)
TIMER0_IRQHandler                                 c:\Users\Spencer\Desktop\Keyboard\Firmware\BadgersRunFirmware\Build/core\core.a(gcc_startup_nrf52.S.o)
TIMER1_IRQHandler                                 c:\Users\Spencer\Desktop\Keyboard\Firmware\BadgersRunFirmware\Build/core\core.a(gcc_startup_nrf52.S.o)
TIMER2_IRQHandler                                 c:\Users\Spencer\Desktop\Keyboard\Firmware\BadgersRunFirmware\Build/core\core.a(gcc_startup_nrf52.S.o)
TIMER3_IRQHandler                                 c:\Users\Spencer\Desktop\Keyboard\Firmware\BadgersRunFirmware\Build/core\core.a(gcc_startup_nrf52.S.o)
TIMER4_IRQHandler                                 c:\Users\Spencer\Desktop\Keyboard\Firmware\BadgersRunFirmware\Build/core\core.a(gcc_startup_nrf52.S.o)
UARTE0_UART0_IRQHandler                           c:\Users\Spencer\Desktop\Keyboard\Firmware\BadgersRunFirmware\Build/core\core.a(Uart.cpp.o)
                                                  c:\Users\Spencer\Desktop\Keyboard\Firmware\BadgersRunFirmware\Build/core\core.a(gcc_startup_nrf52.S.o)
Uart::IrqHandler()                                c:\Users\Spencer\Desktop\Keyboard\Firmware\BadgersRunFirmware\Build/core\core.a(Uart.cpp.o)
Uart::Uart(NRF_UARTE_Type*, IRQn_Type, unsigned char, unsigned char) c:\Users\Spencer\Desktop\Keyboard\Firmware\BadgersRunFirmware\Build/core\core.a(Uart.cpp.o)
Uart::Uart(NRF_UARTE_Type*, IRQn_Type, unsigned char, unsigned char) c:\Users\Spencer\Desktop\Keyboard\Firmware\BadgersRunFirmware\Build/core\core.a(Uart.cpp.o)
Uart::Uart(NRF_UARTE_Type*, IRQn_Type, unsigned char, unsigned char, unsigned char, unsigned char) c:\Users\Spencer\Desktop\Keyboard\Firmware\BadgersRunFirmware\Build/core\core.a(Uart.cpp.o)
Uart::Uart(NRF_UARTE_Type*, IRQn_Type, unsigned char, unsigned char, unsigned char, unsigned char) c:\Users\Spencer\Desktop\Keyboard\Firmware\BadgersRunFirmware\Build/core\core.a(Uart.cpp.o)
Uart::available()                                 c:\Users\Spencer\Desktop\Keyboard\Firmware\BadgersRunFirmware\Build/core\core.a(Uart.cpp.o)
Uart::begin(unsigned long)                        c:\Users\Spencer\Desktop\Keyboard\Firmware\BadgersRunFirmware\Build/core\core.a(Uart.cpp.o)
                                                  c:\Users\Spencer\Desktop\Keyboard\Firmware\BadgersRunFirmware\Build/core\core.a(main.cpp.o)
Uart::begin(unsigned long, unsigned short)        c:\Users\Spencer\Desktop\Keyboard\Firmware\BadgersRunFirmware\Build/core\core.a(Uart.cpp.o)
Uart::end()                                       c:\Users\Spencer\Desktop\Keyboard\Firmware\BadgersRunFirmware\Build/core\core.a(Uart.cpp.o)
Uart::flush()                                     c:\Users\Spencer\Desktop\Keyboard\Firmware\BadgersRunFirmware\Build/core\core.a(Uart.cpp.o)
Uart::operator bool()                             c:\Users\Spencer\Desktop\Keyboard\Firmware\BadgersRunFirmware\Build/core\core.a(Uart.cpp.o)
Uart::peek()                                      c:\Users\Spencer\Desktop\Keyboard\Firmware\BadgersRunFirmware\Build/core\core.a(Uart.cpp.o)
Uart::read()                                      c:\Users\Spencer\Desktop\Keyboard\Firmware\BadgersRunFirmware\Build/core\core.a(Uart.cpp.o)
Uart::setPins(unsigned char, unsigned char)       c:\Users\Spencer\Desktop\Keyboard\Firmware\BadgersRunFirmware\Build/core\core.a(Uart.cpp.o)
Uart::write(unsigned char const*, unsigned int)   c:\Users\Spencer\Desktop\Keyboard\Firmware\BadgersRunFirmware\Build/core\core.a(Uart.cpp.o)
                                                  c:\Users\Spencer\Desktop\Keyboard\Firmware\BadgersRunFirmware\Build/core\core.a(main.cpp.o)
Uart::write(unsigned char)                        c:\Users\Spencer\Desktop\Keyboard\Firmware\BadgersRunFirmware\Build/core\core.a(Uart.cpp.o)
UsageFault_Handler                                c:\Users\Spencer\Desktop\Keyboard\Firmware\BadgersRunFirmware\Build/core\core.a(gcc_startup_nrf52.S.o)
WDT_IRQHandler                                    c:\Users\Spencer\Desktop\Keyboard\Firmware\BadgersRunFirmware\Build/core\core.a(gcc_startup_nrf52.S.o)
_Balloc                                           c:/users/spencer/appdata/local/arduino15/packages/adafruit/tools/arm-none-eabi-gcc/9-2019q4/bin/../lib/gcc/arm-none-eabi/9.2.1/../../../../arm-none-eabi/lib/thumb/v7e-m+fp/hard\libc_nano.a(lib_a-mprec.o)
                                                  c:/users/spencer/appdata/local/arduino15/packages/adafruit/tools/arm-none-eabi-gcc/9-2019q4/bin/../lib/gcc/arm-none-eabi/9.2.1/../../../../arm-none-eabi/lib/thumb/v7e-m+fp/hard\libc_nano.a(lib_a-dtoa.o)
_Bfree                                            c:/users/spencer/appdata/local/arduino15/packages/adafruit/tools/arm-none-eabi-gcc/9-2019q4/bin/../lib/gcc/arm-none-eabi/9.2.1/../../../../arm-none-eabi/lib/thumb/v7e-m+fp/hard\libc_nano.a(lib_a-mprec.o)
                                                  c:/users/spencer/appdata/local/arduino15/packages/adafruit/tools/arm-none-eabi-gcc/9-2019q4/bin/../lib/gcc/arm-none-eabi/9.2.1/../../../../arm-none-eabi/lib/thumb/v7e-m+fp/hard\libc_nano.a(lib_a-dtoa.o)
_PathLocale                                       c:/users/spencer/appdata/local/arduino15/packages/adafruit/tools/arm-none-eabi-gcc/9-2019q4/bin/../lib/gcc/arm-none-eabi/9.2.1/../../../../arm-none-eabi/lib/thumb/v7e-m+fp/hard\libc_nano.a(lib_a-locale.o)
__HeapBase                                        c:\Users\Spencer\Desktop\Keyboard\Firmware\BadgersRunFirmware\Build/core\core.a(debug.cpp.o)
__HeapLimit                                       c:\Users\Spencer\Desktop\Keyboard\Firmware\BadgersRunFirmware\Build/core\core.a(debug.cpp.o)
__StackLimit                                      c:\Users\Spencer\Desktop\Keyboard\Firmware\BadgersRunFirmware\Build/core\core.a(debug.cpp.o)
                                                  c:\Users\Spencer\Desktop\Keyboard\Firmware\BadgersRunFirmware\Build/core\core.a(gcc_startup_nrf52.S.o)
__StackSize                                       c:\Users\Spencer\Desktop\Keyboard\Firmware\BadgersRunFirmware\Build/core\core.a(gcc_startup_nrf52.S.o)
__StackTop                                        c:\Users\Spencer\Desktop\Keyboard\Firmware\BadgersRunFirmware\Build/core\core.a(debug.cpp.o)
                                                  c:\Users\Spencer\Desktop\Keyboard\Firmware\BadgersRunFirmware\Build/core\core.a(gcc_startup_nrf52.S.o)
__adddf3                                          c:/users/spencer/appdata/local/arduino15/packages/adafruit/tools/arm-none-eabi-gcc/9-2019q4/bin/../lib/gcc/arm-none-eabi/9.2.1/thumb/v7e-m+fp/hard\libgcc.a(_arm_addsubdf3.o)
__aeabi_cdcmpeq                                   c:/users/spencer/appdata/local/arduino15/packages/adafruit/tools/arm-none-eabi-gcc/9-2019q4/bin/../lib/gcc/arm-none-eabi/9.2.1/thumb/v7e-m+fp/hard\libgcc.a(_arm_cmpdf2.o)
__aeabi_cdcmple                                   c:/users/spencer/appdata/local/arduino15/packages/adafruit/tools/arm-none-eabi-gcc/9-2019q4/bin/../lib/gcc/arm-none-eabi/9.2.1/thumb/v7e-m+fp/hard\libgcc.a(_arm_cmpdf2.o)
__aeabi_cdrcmple                                  c:/users/spencer/appdata/local/arduino15/packages/adafruit/tools/arm-none-eabi-gcc/9-2019q4/bin/../lib/gcc/arm-none-eabi/9.2.1/thumb/v7e-m+fp/hard\libgcc.a(_arm_cmpdf2.o)
__aeabi_d2iz                                      c:/users/spencer/appdata/local/arduino15/packages/adafruit/tools/arm-none-eabi-gcc/9-2019q4/bin/../lib/gcc/arm-none-eabi/9.2.1/thumb/v7e-m+fp/hard\libgcc.a(_arm_fixdfsi.o)
                                                  c:/users/spencer/appdata/local/arduino15/packages/adafruit/tools/arm-none-eabi-gcc/9-2019q4/bin/../lib/gcc/arm-none-eabi/9.2.1/../../../../arm-none-eabi/lib/thumb/v7e-m+fp/hard\libc_nano.a(lib_a-dtoa.o)
__aeabi_dadd                                      c:/users/spencer/appdata/local/arduino15/packages/adafruit/tools/arm-none-eabi-gcc/9-2019q4/bin/../lib/gcc/arm-none-eabi/9.2.1/thumb/v7e-m+fp/hard\libgcc.a(_arm_addsubdf3.o)
                                                  c:/users/spencer/appdata/local/arduino15/packages/adafruit/tools/arm-none-eabi-gcc/9-2019q4/bin/../lib/gcc/arm-none-eabi/9.2.1/../../../../arm-none-eabi/lib/thumb/v7e-m+fp/hard\libc_nano.a(lib_a-dtoa.o)
__aeabi_dcmpeq                                    c:/users/spencer/appdata/local/arduino15/packages/adafruit/tools/arm-none-eabi-gcc/9-2019q4/bin/../lib/gcc/arm-none-eabi/9.2.1/thumb/v7e-m+fp/hard\libgcc.a(_arm_cmpdf2.o)
                                                  c:/users/spencer/appdata/local/arduino15/packages/adafruit/tools/arm-none-eabi-gcc/9-2019q4/bin/../lib/gcc/arm-none-eabi/9.2.1/../../../../arm-none-eabi/lib/thumb/v7e-m+fp/hard\libc_nano.a(lib_a-dtoa.o)
                                                  c:/users/spencer/appdata/local/arduino15/packages/adafruit/tools/arm-none-eabi-gcc/9-2019q4/bin/../lib/gcc/arm-none-eabi/9.2.1/../../../../arm-none-eabi/lib/thumb/v7e-m+fp/hard\libc_nano.a(lib_a-nano-vfprintf_float.o)
__aeabi_dcmpge                                    c:/users/spencer/appdata/local/arduino15/packages/adafruit/tools/arm-none-eabi-gcc/9-2019q4/bin/../lib/gcc/arm-none-eabi/9.2.1/thumb/v7e-m+fp/hard\libgcc.a(_arm_cmpdf2.o)
                                                  c:/users/spencer/appdata/local/arduino15/packages/adafruit/tools/arm-none-eabi-gcc/9-2019q4/bin/../lib/gcc/arm-none-eabi/9.2.1/../../../../arm-none-eabi/lib/thumb/v7e-m+fp/hard\libc_nano.a(lib_a-dtoa.o)
__aeabi_dcmpgt                                    c:/users/spencer/appdata/local/arduino15/packages/adafruit/tools/arm-none-eabi-gcc/9-2019q4/bin/../lib/gcc/arm-none-eabi/9.2.1/thumb/v7e-m+fp/hard\libgcc.a(_arm_cmpdf2.o)
                                                  c:/users/spencer/appdata/local/arduino15/packages/adafruit/tools/arm-none-eabi-gcc/9-2019q4/bin/../lib/gcc/arm-none-eabi/9.2.1/../../../../arm-none-eabi/lib/thumb/v7e-m+fp/hard\libc_nano.a(lib_a-dtoa.o)
__aeabi_dcmple                                    c:/users/spencer/appdata/local/arduino15/packages/adafruit/tools/arm-none-eabi-gcc/9-2019q4/bin/../lib/gcc/arm-none-eabi/9.2.1/thumb/v7e-m+fp/hard\libgcc.a(_arm_cmpdf2.o)
                                                  c:/users/spencer/appdata/local/arduino15/packages/adafruit/tools/arm-none-eabi-gcc/9-2019q4/bin/../lib/gcc/arm-none-eabi/9.2.1/../../../../arm-none-eabi/lib/thumb/v7e-m+fp/hard\libc_nano.a(lib_a-nano-vfprintf_float.o)
__aeabi_dcmplt                                    c:/users/spencer/appdata/local/arduino15/packages/adafruit/tools/arm-none-eabi-gcc/9-2019q4/bin/../lib/gcc/arm-none-eabi/9.2.1/thumb/v7e-m+fp/hard\libgcc.a(_arm_cmpdf2.o)
                                                  c:/users/spencer/appdata/local/arduino15/packages/adafruit/tools/arm-none-eabi-gcc/9-2019q4/bin/../lib/gcc/arm-none-eabi/9.2.1/../../../../arm-none-eabi/lib/thumb/v7e-m+fp/hard\libc_nano.a(lib_a-dtoa.o)
                                                  c:/users/spencer/appdata/local/arduino15/packages/adafruit/tools/arm-none-eabi-gcc/9-2019q4/bin/../lib/gcc/arm-none-eabi/9.2.1/../../../../arm-none-eabi/lib/thumb/v7e-m+fp/hard\libc_nano.a(lib_a-nano-vfprintf_float.o)
__aeabi_dcmpun                                    c:/users/spencer/appdata/local/arduino15/packages/adafruit/tools/arm-none-eabi-gcc/9-2019q4/bin/../lib/gcc/arm-none-eabi/9.2.1/thumb/v7e-m+fp/hard\libgcc.a(_arm_unorddf2.o)
                                                  c:/users/spencer/appdata/local/arduino15/packages/adafruit/tools/arm-none-eabi-gcc/9-2019q4/bin/../lib/gcc/arm-none-eabi/9.2.1/../../../../arm-none-eabi/lib/thumb/v7e-m+fp/hard\libc_nano.a(lib_a-nano-vfprintf_float.o)
__aeabi_ddiv                                      c:/users/spencer/appdata/local/arduino15/packages/adafruit/tools/arm-none-eabi-gcc/9-2019q4/bin/../lib/gcc/arm-none-eabi/9.2.1/thumb/v7e-m+fp/hard\libgcc.a(_arm_muldivdf3.o)
                                                  c:/users/spencer/appdata/local/arduino15/packages/adafruit/tools/arm-none-eabi-gcc/9-2019q4/bin/../lib/gcc/arm-none-eabi/9.2.1/../../../../arm-none-eabi/lib/thumb/v7e-m+fp/hard\libc_nano.a(lib_a-mprec.o)
                                                  c:/users/spencer/appdata/local/arduino15/packages/adafruit/tools/arm-none-eabi-gcc/9-2019q4/bin/../lib/gcc/arm-none-eabi/9.2.1/../../../../arm-none-eabi/lib/thumb/v7e-m+fp/hard\libc_nano.a(lib_a-dtoa.o)
__aeabi_dmul                                      c:/users/spencer/appdata/local/arduino15/packages/adafruit/tools/arm-none-eabi-gcc/9-2019q4/bin/../lib/gcc/arm-none-eabi/9.2.1/thumb/v7e-m+fp/hard\libgcc.a(_arm_muldivdf3.o)
                                                  c:/users/spencer/appdata/local/arduino15/packages/adafruit/tools/arm-none-eabi-gcc/9-2019q4/bin/../lib/gcc/arm-none-eabi/9.2.1/thumb/v7e-m+fp/hard\libgcc.a(_arm_muldf3.o)
                                                  c:/users/spencer/appdata/local/arduino15/packages/adafruit/tools/arm-none-eabi-gcc/9-2019q4/bin/../lib/gcc/arm-none-eabi/9.2.1/../../../../arm-none-eabi/lib/thumb/v7e-m+fp/hard\libc_nano.a(lib_a-mprec.o)
                                                  c:/users/spencer/appdata/local/arduino15/packages/adafruit/tools/arm-none-eabi-gcc/9-2019q4/bin/../lib/gcc/arm-none-eabi/9.2.1/../../../../arm-none-eabi/lib/thumb/v7e-m+fp/hard\libc_nano.a(lib_a-dtoa.o)
__aeabi_drsub                                     c:/users/spencer/appdata/local/arduino15/packages/adafruit/tools/arm-none-eabi-gcc/9-2019q4/bin/../lib/gcc/arm-none-eabi/9.2.1/thumb/v7e-m+fp/hard\libgcc.a(_arm_addsubdf3.o)
__aeabi_dsub                                      c:/users/spencer/appdata/local/arduino15/packages/adafruit/tools/arm-none-eabi-gcc/9-2019q4/bin/../lib/gcc/arm-none-eabi/9.2.1/thumb/v7e-m+fp/hard\libgcc.a(_arm_addsubdf3.o)
                                                  c:/users/spencer/appdata/local/arduino15/packages/adafruit/tools/arm-none-eabi-gcc/9-2019q4/bin/../lib/gcc/arm-none-eabi/9.2.1/../../../../arm-none-eabi/lib/thumb/v7e-m+fp/hard\libc_nano.a(lib_a-dtoa.o)
__aeabi_f2d                                       c:/users/spencer/appdata/local/arduino15/packages/adafruit/tools/arm-none-eabi-gcc/9-2019q4/bin/../lib/gcc/arm-none-eabi/9.2.1/thumb/v7e-m+fp/hard\libgcc.a(_arm_addsubdf3.o)
__aeabi_i2d                                       c:/users/spencer/appdata/local/arduino15/packages/adafruit/tools/arm-none-eabi-gcc/9-2019q4/bin/../lib/gcc/arm-none-eabi/9.2.1/thumb/v7e-m+fp/hard\libgcc.a(_arm_addsubdf3.o)
                                                  c:/users/spencer/appdata/local/arduino15/packages/adafruit/tools/arm-none-eabi-gcc/9-2019q4/bin/../lib/gcc/arm-none-eabi/9.2.1/../../../../arm-none-eabi/lib/thumb/v7e-m+fp/hard\libc_nano.a(lib_a-dtoa.o)
__aeabi_l2d                                       c:/users/spencer/appdata/local/arduino15/packages/adafruit/tools/arm-none-eabi-gcc/9-2019q4/bin/../lib/gcc/arm-none-eabi/9.2.1/thumb/v7e-m+fp/hard\libgcc.a(_arm_addsubdf3.o)
__aeabi_ui2d                                      c:/users/spencer/appdata/local/arduino15/packages/adafruit/tools/arm-none-eabi-gcc/9-2019q4/bin/../lib/gcc/arm-none-eabi/9.2.1/thumb/v7e-m+fp/hard\libgcc.a(_arm_addsubdf3.o)
                                                  c:/users/spencer/appdata/local/arduino15/packages/adafruit/tools/arm-none-eabi-gcc/9-2019q4/bin/../lib/gcc/arm-none-eabi/9.2.1/../../../../arm-none-eabi/lib/thumb/v7e-m+fp/hard\libc_nano.a(lib_a-dtoa.o)
__aeabi_ul2d                                      c:/users/spencer/appdata/local/arduino15/packages/adafruit/tools/arm-none-eabi-gcc/9-2019q4/bin/../lib/gcc/arm-none-eabi/9.2.1/thumb/v7e-m+fp/hard\libgcc.a(_arm_addsubdf3.o)
__any_on                                          c:/users/spencer/appdata/local/arduino15/packages/adafruit/tools/arm-none-eabi-gcc/9-2019q4/bin/../lib/gcc/arm-none-eabi/9.2.1/../../../../arm-none-eabi/lib/thumb/v7e-m+fp/hard\libc_nano.a(lib_a-mprec.o)
__ascii_mbtowc                                    c:/users/spencer/appdata/local/arduino15/packages/adafruit/tools/arm-none-eabi-gcc/9-2019q4/bin/../lib/gcc/arm-none-eabi/9.2.1/../../../../arm-none-eabi/lib/thumb/v7e-m+fp/hard\libc_nano.a(lib_a-mbtowc_r.o)
                                                  c:/users/spencer/appdata/local/arduino15/packages/adafruit/tools/arm-none-eabi-gcc/9-2019q4/bin/../lib/gcc/arm-none-eabi/9.2.1/../../../../arm-none-eabi/lib/thumb/v7e-m+fp/hard\libc_nano.a(lib_a-locale.o)
__ascii_wctomb                                    c:/users/spencer/appdata/local/arduino15/packages/adafruit/tools/arm-none-eabi-gcc/9-2019q4/bin/../lib/gcc/arm-none-eabi/9.2.1/../../../../arm-none-eabi/lib/thumb/v7e-m+fp/hard\libc_nano.a(lib_a-wctomb_r.o)
                                                  c:/users/spencer/appdata/local/arduino15/packages/adafruit/tools/arm-none-eabi-gcc/9-2019q4/bin/../lib/gcc/arm-none-eabi/9.2.1/../../../../arm-none-eabi/lib/thumb/v7e-m+fp/hard\libc_nano.a(lib_a-locale.o)
__b2d                                             c:/users/spencer/appdata/local/arduino15/packages/adafruit/tools/arm-none-eabi-gcc/9-2019q4/bin/../lib/gcc/arm-none-eabi/9.2.1/../../../../arm-none-eabi/lib/thumb/v7e-m+fp/hard\libc_nano.a(lib_a-mprec.o)
__bss_end__                                       c:\Users\Spencer\Desktop\Keyboard\Firmware\BadgersRunFirmware\Build/core\core.a(debug.cpp.o)
                                                  c:/users/spencer/appdata/local/arduino15/packages/adafruit/tools/arm-none-eabi-gcc/9-2019q4/bin/../lib/gcc/arm-none-eabi/9.2.1/../../../../arm-none-eabi/lib/thumb/v7e-m+fp/hard/crt0.o
__bss_start__                                     c:\Users\Spencer\Desktop\Keyboard\Firmware\BadgersRunFirmware\Build/core\core.a(gcc_startup_nrf52.S.o)
                                                  c:/users/spencer/appdata/local/arduino15/packages/adafruit/tools/arm-none-eabi-gcc/9-2019q4/bin/../lib/gcc/arm-none-eabi/9.2.1/../../../../arm-none-eabi/lib/thumb/v7e-m+fp/hard/crt0.o
__call_exitprocs                                  c:/users/spencer/appdata/local/arduino15/packages/adafruit/tools/arm-none-eabi-gcc/9-2019q4/bin/../lib/gcc/arm-none-eabi/9.2.1/../../../../arm-none-eabi/lib/thumb/v7e-m+fp/hard\libc_nano.a(lib_a-exit.o)
__cmpdf2                                          c:/users/spencer/appdata/local/arduino15/packages/adafruit/tools/arm-none-eabi-gcc/9-2019q4/bin/../lib/gcc/arm-none-eabi/9.2.1/thumb/v7e-m+fp/hard\libgcc.a(_arm_cmpdf2.o)
__copybits                                        c:/users/spencer/appdata/local/arduino15/packages/adafruit/tools/arm-none-eabi-gcc/9-2019q4/bin/../lib/gcc/arm-none-eabi/9.2.1/../../../../arm-none-eabi/lib/thumb/v7e-m+fp/hard\libc_nano.a(lib_a-mprec.o)
__cvt                                             c:/users/spencer/appdata/local/arduino15/packages/adafruit/tools/arm-none-eabi-gcc/9-2019q4/bin/../lib/gcc/arm-none-eabi/9.2.1/../../../../arm-none-eabi/lib/thumb/v7e-m+fp/hard\libc_nano.a(lib_a-nano-vfprintf_float.o)
__d2b                                             c:/users/spencer/appdata/local/arduino15/packages/adafruit/tools/arm-none-eabi-gcc/9-2019q4/bin/../lib/gcc/arm-none-eabi/9.2.1/../../../../arm-none-eabi/lib/thumb/v7e-m+fp/hard\libc_nano.a(lib_a-mprec.o)
                                                  c:/users/spencer/appdata/local/arduino15/packages/adafruit/tools/arm-none-eabi-gcc/9-2019q4/bin/../lib/gcc/arm-none-eabi/9.2.1/../../../../arm-none-eabi/lib/thumb/v7e-m+fp/hard\libc_nano.a(lib_a-dtoa.o)
__data_start__                                    c:\Users\Spencer\Desktop\Keyboard\Firmware\BadgersRunFirmware\Build/core\core.a(debug.cpp.o)
                                                  c:\Users\Spencer\Desktop\Keyboard\Firmware\BadgersRunFirmware\Build/core\core.a(gcc_startup_nrf52.S.o)
__deregister_frame_info                           c:/users/spencer/appdata/local/arduino15/packages/adafruit/tools/arm-none-eabi-gcc/9-2019q4/bin/../lib/gcc/arm-none-eabi/9.2.1/thumb/v7e-m+fp/hard/crtbegin.o
__divdf3                                          c:/users/spencer/appdata/local/arduino15/packages/adafruit/tools/arm-none-eabi-gcc/9-2019q4/bin/../lib/gcc/arm-none-eabi/9.2.1/thumb/v7e-m+fp/hard\libgcc.a(_arm_muldivdf3.o)
__dso_handle                                      c:/users/spencer/appdata/local/arduino15/packages/adafruit/tools/arm-none-eabi-gcc/9-2019q4/bin/../lib/gcc/arm-none-eabi/9.2.1/thumb/v7e-m+fp/hard/crtbegin.o
__eqdf2                                           c:/users/spencer/appdata/local/arduino15/packages/adafruit/tools/arm-none-eabi-gcc/9-2019q4/bin/../lib/gcc/arm-none-eabi/9.2.1/thumb/v7e-m+fp/hard\libgcc.a(_arm_cmpdf2.o)
__etext                                           c:\Users\Spencer\Desktop\Keyboard\Firmware\BadgersRunFirmware\Build/core\core.a(gcc_startup_nrf52.S.o)
__exponent                                        c:/users/spencer/appdata/local/arduino15/packages/adafruit/tools/arm-none-eabi-gcc/9-2019q4/bin/../lib/gcc/arm-none-eabi/9.2.1/../../../../arm-none-eabi/lib/thumb/v7e-m+fp/hard\libc_nano.a(lib_a-nano-vfprintf_float.o)
__extendsfdf2                                     c:/users/spencer/appdata/local/arduino15/packages/adafruit/tools/arm-none-eabi-gcc/9-2019q4/bin/../lib/gcc/arm-none-eabi/9.2.1/thumb/v7e-m+fp/hard\libgcc.a(_arm_addsubdf3.o)
__fixdfsi                                         c:/users/spencer/appdata/local/arduino15/packages/adafruit/tools/arm-none-eabi-gcc/9-2019q4/bin/../lib/gcc/arm-none-eabi/9.2.1/thumb/v7e-m+fp/hard\libgcc.a(_arm_fixdfsi.o)
__floatdidf                                       c:/users/spencer/appdata/local/arduino15/packages/adafruit/tools/arm-none-eabi-gcc/9-2019q4/bin/../lib/gcc/arm-none-eabi/9.2.1/thumb/v7e-m+fp/hard\libgcc.a(_arm_addsubdf3.o)
__floatsidf                                       c:/users/spencer/appdata/local/arduino15/packages/adafruit/tools/arm-none-eabi-gcc/9-2019q4/bin/../lib/gcc/arm-none-eabi/9.2.1/thumb/v7e-m+fp/hard\libgcc.a(_arm_addsubdf3.o)
__floatundidf                                     c:/users/spencer/appdata/local/arduino15/packages/adafruit/tools/arm-none-eabi-gcc/9-2019q4/bin/../lib/gcc/arm-none-eabi/9.2.1/thumb/v7e-m+fp/hard\libgcc.a(_arm_addsubdf3.o)
__floatunsidf                                     c:/users/spencer/appdata/local/arduino15/packages/adafruit/tools/arm-none-eabi-gcc/9-2019q4/bin/../lib/gcc/arm-none-eabi/9.2.1/thumb/v7e-m+fp/hard\libgcc.a(_arm_addsubdf3.o)
__fp_lock_all                                     c:/users/spencer/appdata/local/arduino15/packages/adafruit/tools/arm-none-eabi-gcc/9-2019q4/bin/../lib/gcc/arm-none-eabi/9.2.1/../../../../arm-none-eabi/lib/thumb/v7e-m+fp/hard\libc_nano.a(lib_a-findfp.o)
__fp_unlock_all                                   c:/users/spencer/appdata/local/arduino15/packages/adafruit/tools/arm-none-eabi-gcc/9-2019q4/bin/../lib/gcc/arm-none-eabi/9.2.1/../../../../arm-none-eabi/lib/thumb/v7e-m+fp/hard\libc_nano.a(lib_a-findfp.o)
__gedf2                                           c:/users/spencer/appdata/local/arduino15/packages/adafruit/tools/arm-none-eabi-gcc/9-2019q4/bin/../lib/gcc/arm-none-eabi/9.2.1/thumb/v7e-m+fp/hard\libgcc.a(_arm_cmpdf2.o)
__global_locale                                   c:/users/spencer/appdata/local/arduino15/packages/adafruit/tools/arm-none-eabi-gcc/9-2019q4/bin/../lib/gcc/arm-none-eabi/9.2.1/../../../../arm-none-eabi/lib/thumb/v7e-m+fp/hard\libc_nano.a(lib_a-locale.o)
                                                  c:/users/spencer/appdata/local/arduino15/packages/adafruit/tools/arm-none-eabi-gcc/9-2019q4/bin/../lib/gcc/arm-none-eabi/9.2.1/../../../../arm-none-eabi/lib/thumb/v7e-m+fp/hard\libc_nano.a(lib_a-wctomb_r.o)
                                                  c:/users/spencer/appdata/local/arduino15/packages/adafruit/tools/arm-none-eabi-gcc/9-2019q4/bin/../lib/gcc/arm-none-eabi/9.2.1/../../../../arm-none-eabi/lib/thumb/v7e-m+fp/hard\libc_nano.a(lib_a-mbtowc_r.o)
                                                  c:/users/spencer/appdata/local/arduino15/packages/adafruit/tools/arm-none-eabi-gcc/9-2019q4/bin/../lib/gcc/arm-none-eabi/9.2.1/../../../../arm-none-eabi/lib/thumb/v7e-m+fp/hard\libc_nano.a(lib_a-localeconv.o)
__gtdf2                                           c:/users/spencer/appdata/local/arduino15/packages/adafruit/tools/arm-none-eabi-gcc/9-2019q4/bin/../lib/gcc/arm-none-eabi/9.2.1/thumb/v7e-m+fp/hard\libgcc.a(_arm_cmpdf2.o)
__hi0bits                                         c:/users/spencer/appdata/local/arduino15/packages/adafruit/tools/arm-none-eabi-gcc/9-2019q4/bin/../lib/gcc/arm-none-eabi/9.2.1/../../../../arm-none-eabi/lib/thumb/v7e-m+fp/hard\libc_nano.a(lib_a-mprec.o)
                                                  c:/users/spencer/appdata/local/arduino15/packages/adafruit/tools/arm-none-eabi-gcc/9-2019q4/bin/../lib/gcc/arm-none-eabi/9.2.1/../../../../arm-none-eabi/lib/thumb/v7e-m+fp/hard\libc_nano.a(lib_a-dtoa.o)
__i2b                                             c:/users/spencer/appdata/local/arduino15/packages/adafruit/tools/arm-none-eabi-gcc/9-2019q4/bin/../lib/gcc/arm-none-eabi/9.2.1/../../../../arm-none-eabi/lib/thumb/v7e-m+fp/hard\libc_nano.a(lib_a-mprec.o)
                                                  c:/users/spencer/appdata/local/arduino15/packages/adafruit/tools/arm-none-eabi-gcc/9-2019q4/bin/../lib/gcc/arm-none-eabi/9.2.1/../../../../arm-none-eabi/lib/thumb/v7e-m+fp/hard\libc_nano.a(lib_a-dtoa.o)
__init_array_end                                  c:/users/spencer/appdata/local/arduino15/packages/adafruit/tools/arm-none-eabi-gcc/9-2019q4/bin/../lib/gcc/arm-none-eabi/9.2.1/../../../../arm-none-eabi/lib/thumb/v7e-m+fp/hard\libc_nano.a(lib_a-init.o)
__init_array_start                                c:/users/spencer/appdata/local/arduino15/packages/adafruit/tools/arm-none-eabi-gcc/9-2019q4/bin/../lib/gcc/arm-none-eabi/9.2.1/../../../../arm-none-eabi/lib/thumb/v7e-m+fp/hard\libc_nano.a(lib_a-init.o)
__isr_vector                                      c:\Users\Spencer\Desktop\Keyboard\Firmware\BadgersRunFirmware\Build/core\core.a(gcc_startup_nrf52.S.o)
                                                  c:\Users\Spencer\Desktop\Keyboard\Firmware\BadgersRunFirmware\Build/core\core.a(port.c.o)
__ledf2                                           c:/users/spencer/appdata/local/arduino15/packages/adafruit/tools/arm-none-eabi-gcc/9-2019q4/bin/../lib/gcc/arm-none-eabi/9.2.1/thumb/v7e-m+fp/hard\libgcc.a(_arm_cmpdf2.o)
__libc_fini_array                                 c:/users/spencer/appdata/local/arduino15/packages/adafruit/tools/arm-none-eabi-gcc/9-2019q4/bin/../lib/gcc/arm-none-eabi/9.2.1/../../../../arm-none-eabi/lib/thumb/v7e-m+fp/hard/crt0.o
__libc_init_array                                 c:/users/spencer/appdata/local/arduino15/packages/adafruit/tools/arm-none-eabi-gcc/9-2019q4/bin/../lib/gcc/arm-none-eabi/9.2.1/../../../../arm-none-eabi/lib/thumb/v7e-m+fp/hard\libc_nano.a(lib_a-init.o)
                                                  c:/users/spencer/appdata/local/arduino15/packages/adafruit/tools/arm-none-eabi-gcc/9-2019q4/bin/../lib/gcc/arm-none-eabi/9.2.1/../../../../arm-none-eabi/lib/thumb/v7e-m+fp/hard/crt0.o
__lo0bits                                         c:/users/spencer/appdata/local/arduino15/packages/adafruit/tools/arm-none-eabi-gcc/9-2019q4/bin/../lib/gcc/arm-none-eabi/9.2.1/../../../../arm-none-eabi/lib/thumb/v7e-m+fp/hard\libc_nano.a(lib_a-mprec.o)
__locale_mb_cur_max                               c:/users/spencer/appdata/local/arduino15/packages/adafruit/tools/arm-none-eabi-gcc/9-2019q4/bin/../lib/gcc/arm-none-eabi/9.2.1/../../../../arm-none-eabi/lib/thumb/v7e-m+fp/hard\libc_nano.a(lib_a-locale.o)
__localeconv_l                                    c:/users/spencer/appdata/local/arduino15/packages/adafruit/tools/arm-none-eabi-gcc/9-2019q4/bin/../lib/gcc/arm-none-eabi/9.2.1/../../../../arm-none-eabi/lib/thumb/v7e-m+fp/hard\libc_nano.a(lib_a-localeconv.o)
__lock___arc4random_mutex                         c:/users/spencer/appdata/local/arduino15/packages/adafruit/tools/arm-none-eabi-gcc/9-2019q4/bin/../lib/gcc/arm-none-eabi/9.2.1/../../../../arm-none-eabi/lib/thumb/v7e-m+fp/hard\libc_nano.a(lib_a-lock.o)
__lock___at_quick_exit_mutex                      c:/users/spencer/appdata/local/arduino15/packages/adafruit/tools/arm-none-eabi-gcc/9-2019q4/bin/../lib/gcc/arm-none-eabi/9.2.1/../../../../arm-none-eabi/lib/thumb/v7e-m+fp/hard\libc_nano.a(lib_a-lock.o)
__lock___atexit_recursive_mutex                   c:/users/spencer/appdata/local/arduino15/packages/adafruit/tools/arm-none-eabi-gcc/9-2019q4/bin/../lib/gcc/arm-none-eabi/9.2.1/../../../../arm-none-eabi/lib/thumb/v7e-m+fp/hard\libc_nano.a(lib_a-lock.o)
__lock___dd_hash_mutex                            c:/users/spencer/appdata/local/arduino15/packages/adafruit/tools/arm-none-eabi-gcc/9-2019q4/bin/../lib/gcc/arm-none-eabi/9.2.1/../../../../arm-none-eabi/lib/thumb/v7e-m+fp/hard\libc_nano.a(lib_a-lock.o)
__lock___env_recursive_mutex                      c:/users/spencer/appdata/local/arduino15/packages/adafruit/tools/arm-none-eabi-gcc/9-2019q4/bin/../lib/gcc/arm-none-eabi/9.2.1/../../../../arm-none-eabi/lib/thumb/v7e-m+fp/hard\libc_nano.a(lib_a-lock.o)
__lock___malloc_recursive_mutex                   c:/users/spencer/appdata/local/arduino15/packages/adafruit/tools/arm-none-eabi-gcc/9-2019q4/bin/../lib/gcc/arm-none-eabi/9.2.1/../../../../arm-none-eabi/lib/thumb/v7e-m+fp/hard\libc_nano.a(lib_a-lock.o)
                                                  c:/users/spencer/appdata/local/arduino15/packages/adafruit/tools/arm-none-eabi-gcc/9-2019q4/bin/../lib/gcc/arm-none-eabi/9.2.1/../../../../arm-none-eabi/lib/thumb/v7e-m+fp/hard\libc_nano.a(lib_a-mlock.o)
__lock___sfp_recursive_mutex                      c:/users/spencer/appdata/local/arduino15/packages/adafruit/tools/arm-none-eabi-gcc/9-2019q4/bin/../lib/gcc/arm-none-eabi/9.2.1/../../../../arm-none-eabi/lib/thumb/v7e-m+fp/hard\libc_nano.a(lib_a-lock.o)
                                                  c:/users/spencer/appdata/local/arduino15/packages/adafruit/tools/arm-none-eabi-gcc/9-2019q4/bin/../lib/gcc/arm-none-eabi/9.2.1/../../../../arm-none-eabi/lib/thumb/v7e-m+fp/hard\libc_nano.a(lib_a-findfp.o)
__lock___sinit_recursive_mutex                    c:/users/spencer/appdata/local/arduino15/packages/adafruit/tools/arm-none-eabi-gcc/9-2019q4/bin/../lib/gcc/arm-none-eabi/9.2.1/../../../../arm-none-eabi/lib/thumb/v7e-m+fp/hard\libc_nano.a(lib_a-lock.o)
                                                  c:/users/spencer/appdata/local/arduino15/packages/adafruit/tools/arm-none-eabi-gcc/9-2019q4/bin/../lib/gcc/arm-none-eabi/9.2.1/../../../../arm-none-eabi/lib/thumb/v7e-m+fp/hard\libc_nano.a(lib_a-findfp.o)
__lock___tz_mutex                                 c:/users/spencer/appdata/local/arduino15/packages/adafruit/tools/arm-none-eabi-gcc/9-2019q4/bin/../lib/gcc/arm-none-eabi/9.2.1/../../../../arm-none-eabi/lib/thumb/v7e-m+fp/hard\libc_nano.a(lib_a-lock.o)
__lshift                                          c:/users/spencer/appdata/local/arduino15/packages/adafruit/tools/arm-none-eabi-gcc/9-2019q4/bin/../lib/gcc/arm-none-eabi/9.2.1/../../../../arm-none-eabi/lib/thumb/v7e-m+fp/hard\libc_nano.a(lib_a-mprec.o)
                                                  c:/users/spencer/appdata/local/arduino15/packages/adafruit/tools/arm-none-eabi-gcc/9-2019q4/bin/../lib/gcc/arm-none-eabi/9.2.1/../../../../arm-none-eabi/lib/thumb/v7e-m+fp/hard\libc_nano.a(lib_a-dtoa.o)
__ltdf2                                           c:/users/spencer/appdata/local/arduino15/packages/adafruit/tools/arm-none-eabi-gcc/9-2019q4/bin/../lib/gcc/arm-none-eabi/9.2.1/thumb/v7e-m+fp/hard\libgcc.a(_arm_cmpdf2.o)
__malloc_current_mallinfo                         c:/users/spencer/appdata/local/arduino15/packages/adafruit/tools/arm-none-eabi-gcc/9-2019q4/bin/../lib/gcc/arm-none-eabi/9.2.1/../../../../arm-none-eabi/lib/thumb/v7e-m+fp/hard\libc_nano.a(lib_a-nano-mallinfor.o)
                                                  c:/users/spencer/appdata/local/arduino15/packages/adafruit/tools/arm-none-eabi-gcc/9-2019q4/bin/../lib/gcc/arm-none-eabi/9.2.1/../../../../arm-none-eabi/lib/thumb/v7e-m+fp/hard\libc_nano.a(lib_a-nano-mallstatsr.o)
__malloc_free_list                                c:/users/spencer/appdata/local/arduino15/packages/adafruit/tools/arm-none-eabi-gcc/9-2019q4/bin/../lib/gcc/arm-none-eabi/9.2.1/../../../../arm-none-eabi/lib/thumb/v7e-m+fp/hard\libc_nano.a(lib_a-nano-mallocr.o)
                                                  c:/users/spencer/appdata/local/arduino15/packages/adafruit/tools/arm-none-eabi-gcc/9-2019q4/bin/../lib/gcc/arm-none-eabi/9.2.1/../../../../arm-none-eabi/lib/thumb/v7e-m+fp/hard\libc_nano.a(lib_a-nano-mallinfor.o)
                                                  c:/users/spencer/appdata/local/arduino15/packages/adafruit/tools/arm-none-eabi-gcc/9-2019q4/bin/../lib/gcc/arm-none-eabi/9.2.1/../../../../arm-none-eabi/lib/thumb/v7e-m+fp/hard\libc_nano.a(lib_a-nano-freer.o)
__malloc_lock                                     c:/users/spencer/appdata/local/arduino15/packages/adafruit/tools/arm-none-eabi-gcc/9-2019q4/bin/../lib/gcc/arm-none-eabi/9.2.1/../../../../arm-none-eabi/lib/thumb/v7e-m+fp/hard\libc_nano.a(lib_a-mlock.o)
                                                  c:/users/spencer/appdata/local/arduino15/packages/adafruit/tools/arm-none-eabi-gcc/9-2019q4/bin/../lib/gcc/arm-none-eabi/9.2.1/../../../../arm-none-eabi/lib/thumb/v7e-m+fp/hard\libc_nano.a(lib_a-nano-mallocr.o)
                                                  c:/users/spencer/appdata/local/arduino15/packages/adafruit/tools/arm-none-eabi-gcc/9-2019q4/bin/../lib/gcc/arm-none-eabi/9.2.1/../../../../arm-none-eabi/lib/thumb/v7e-m+fp/hard\libc_nano.a(lib_a-nano-mallinfor.o)
                                                  c:/users/spencer/appdata/local/arduino15/packages/adafruit/tools/arm-none-eabi-gcc/9-2019q4/bin/../lib/gcc/arm-none-eabi/9.2.1/../../../../arm-none-eabi/lib/thumb/v7e-m+fp/hard\libc_nano.a(lib_a-nano-freer.o)
__malloc_sbrk_start                               c:/users/spencer/appdata/local/arduino15/packages/adafruit/tools/arm-none-eabi-gcc/9-2019q4/bin/../lib/gcc/arm-none-eabi/9.2.1/../../../../arm-none-eabi/lib/thumb/v7e-m+fp/hard\libc_nano.a(lib_a-nano-mallocr.o)
                                                  c:/users/spencer/appdata/local/arduino15/packages/adafruit/tools/arm-none-eabi-gcc/9-2019q4/bin/../lib/gcc/arm-none-eabi/9.2.1/../../../../arm-none-eabi/lib/thumb/v7e-m+fp/hard\libc_nano.a(lib_a-nano-mallinfor.o)
__malloc_unlock                                   c:/users/spencer/appdata/local/arduino15/packages/adafruit/tools/arm-none-eabi-gcc/9-2019q4/bin/../lib/gcc/arm-none-eabi/9.2.1/../../../../arm-none-eabi/lib/thumb/v7e-m+fp/hard\libc_nano.a(lib_a-mlock.o)
                                                  c:/users/spencer/appdata/local/arduino15/packages/adafruit/tools/arm-none-eabi-gcc/9-2019q4/bin/../lib/gcc/arm-none-eabi/9.2.1/../../../../arm-none-eabi/lib/thumb/v7e-m+fp/hard\libc_nano.a(lib_a-nano-mallocr.o)
                                                  c:/users/spencer/appdata/local/arduino15/packages/adafruit/tools/arm-none-eabi-gcc/9-2019q4/bin/../lib/gcc/arm-none-eabi/9.2.1/../../../../arm-none-eabi/lib/thumb/v7e-m+fp/hard\libc_nano.a(lib_a-nano-mallinfor.o)
                                                  c:/users/spencer/appdata/local/arduino15/packages/adafruit/tools/arm-none-eabi-gcc/9-2019q4/bin/../lib/gcc/arm-none-eabi/9.2.1/../../../../arm-none-eabi/lib/thumb/v7e-m+fp/hard\libc_nano.a(lib_a-nano-freer.o)
__mcmp                                            c:/users/spencer/appdata/local/arduino15/packages/adafruit/tools/arm-none-eabi-gcc/9-2019q4/bin/../lib/gcc/arm-none-eabi/9.2.1/../../../../arm-none-eabi/lib/thumb/v7e-m+fp/hard\libc_nano.a(lib_a-mprec.o)
                                                  c:/users/spencer/appdata/local/arduino15/packages/adafruit/tools/arm-none-eabi-gcc/9-2019q4/bin/../lib/gcc/arm-none-eabi/9.2.1/../../../../arm-none-eabi/lib/thumb/v7e-m+fp/hard\libc_nano.a(lib_a-dtoa.o)
__mdiff                                           c:/users/spencer/appdata/local/arduino15/packages/adafruit/tools/arm-none-eabi-gcc/9-2019q4/bin/../lib/gcc/arm-none-eabi/9.2.1/../../../../arm-none-eabi/lib/thumb/v7e-m+fp/hard\libc_nano.a(lib_a-mprec.o)
                                                  c:/users/spencer/appdata/local/arduino15/packages/adafruit/tools/arm-none-eabi-gcc/9-2019q4/bin/../lib/gcc/arm-none-eabi/9.2.1/../../../../arm-none-eabi/lib/thumb/v7e-m+fp/hard\libc_nano.a(lib_a-dtoa.o)
__mprec_bigtens                                   c:/users/spencer/appdata/local/arduino15/packages/adafruit/tools/arm-none-eabi-gcc/9-2019q4/bin/../lib/gcc/arm-none-eabi/9.2.1/../../../../arm-none-eabi/lib/thumb/v7e-m+fp/hard\libc_nano.a(lib_a-mprec.o)
                                                  c:/users/spencer/appdata/local/arduino15/packages/adafruit/tools/arm-none-eabi-gcc/9-2019q4/bin/../lib/gcc/arm-none-eabi/9.2.1/../../../../arm-none-eabi/lib/thumb/v7e-m+fp/hard\libc_nano.a(lib_a-dtoa.o)
__mprec_tens                                      c:/users/spencer/appdata/local/arduino15/packages/adafruit/tools/arm-none-eabi-gcc/9-2019q4/bin/../lib/gcc/arm-none-eabi/9.2.1/../../../../arm-none-eabi/lib/thumb/v7e-m+fp/hard\libc_nano.a(lib_a-mprec.o)
                                                  c:/users/spencer/appdata/local/arduino15/packages/adafruit/tools/arm-none-eabi-gcc/9-2019q4/bin/../lib/gcc/arm-none-eabi/9.2.1/../../../../arm-none-eabi/lib/thumb/v7e-m+fp/hard\libc_nano.a(lib_a-dtoa.o)
__mprec_tinytens                                  c:/users/spencer/appdata/local/arduino15/packages/adafruit/tools/arm-none-eabi-gcc/9-2019q4/bin/../lib/gcc/arm-none-eabi/9.2.1/../../../../arm-none-eabi/lib/thumb/v7e-m+fp/hard\libc_nano.a(lib_a-mprec.o)
__muldf3                                          c:/users/spencer/appdata/local/arduino15/packages/adafruit/tools/arm-none-eabi-gcc/9-2019q4/bin/../lib/gcc/arm-none-eabi/9.2.1/thumb/v7e-m+fp/hard\libgcc.a(_arm_muldivdf3.o)
                                                  c:/users/spencer/appdata/local/arduino15/packages/adafruit/tools/arm-none-eabi-gcc/9-2019q4/bin/../lib/gcc/arm-none-eabi/9.2.1/thumb/v7e-m+fp/hard\libgcc.a(_arm_muldf3.o)
__multadd                                         c:/users/spencer/appdata/local/arduino15/packages/adafruit/tools/arm-none-eabi-gcc/9-2019q4/bin/../lib/gcc/arm-none-eabi/9.2.1/../../../../arm-none-eabi/lib/thumb/v7e-m+fp/hard\libc_nano.a(lib_a-mprec.o)
                                                  c:/users/spencer/appdata/local/arduino15/packages/adafruit/tools/arm-none-eabi-gcc/9-2019q4/bin/../lib/gcc/arm-none-eabi/9.2.1/../../../../arm-none-eabi/lib/thumb/v7e-m+fp/hard\libc_nano.a(lib_a-dtoa.o)
__multiply                                        c:/users/spencer/appdata/local/arduino15/packages/adafruit/tools/arm-none-eabi-gcc/9-2019q4/bin/../lib/gcc/arm-none-eabi/9.2.1/../../../../arm-none-eabi/lib/thumb/v7e-m+fp/hard\libc_nano.a(lib_a-mprec.o)
                                                  c:/users/spencer/appdata/local/arduino15/packages/adafruit/tools/arm-none-eabi-gcc/9-2019q4/bin/../lib/gcc/arm-none-eabi/9.2.1/../../../../arm-none-eabi/lib/thumb/v7e-m+fp/hard\libc_nano.a(lib_a-dtoa.o)
__nedf2                                           c:/users/spencer/appdata/local/arduino15/packages/adafruit/tools/arm-none-eabi-gcc/9-2019q4/bin/../lib/gcc/arm-none-eabi/9.2.1/thumb/v7e-m+fp/hard\libgcc.a(_arm_cmpdf2.o)
__pow5mult                                        c:/users/spencer/appdata/local/arduino15/packages/adafruit/tools/arm-none-eabi-gcc/9-2019q4/bin/../lib/gcc/arm-none-eabi/9.2.1/../../../../arm-none-eabi/lib/thumb/v7e-m+fp/hard\libc_nano.a(lib_a-mprec.o)
                                                  c:/users/spencer/appdata/local/arduino15/packages/adafruit/tools/arm-none-eabi-gcc/9-2019q4/bin/../lib/gcc/arm-none-eabi/9.2.1/../../../../arm-none-eabi/lib/thumb/v7e-m+fp/hard\libc_nano.a(lib_a-dtoa.o)
__preinit_array_end                               c:/users/spencer/appdata/local/arduino15/packages/adafruit/tools/arm-none-eabi-gcc/9-2019q4/bin/../lib/gcc/arm-none-eabi/9.2.1/../../../../arm-none-eabi/lib/thumb/v7e-m+fp/hard\libc_nano.a(lib_a-init.o)
__preinit_array_start                             c:/users/spencer/appdata/local/arduino15/packages/adafruit/tools/arm-none-eabi-gcc/9-2019q4/bin/../lib/gcc/arm-none-eabi/9.2.1/../../../../arm-none-eabi/lib/thumb/v7e-m+fp/hard\libc_nano.a(lib_a-init.o)
__ratio                                           c:/users/spencer/appdata/local/arduino15/packages/adafruit/tools/arm-none-eabi-gcc/9-2019q4/bin/../lib/gcc/arm-none-eabi/9.2.1/../../../../arm-none-eabi/lib/thumb/v7e-m+fp/hard\libc_nano.a(lib_a-mprec.o)
__register_frame_info                             c:/users/spencer/appdata/local/arduino15/packages/adafruit/tools/arm-none-eabi-gcc/9-2019q4/bin/../lib/gcc/arm-none-eabi/9.2.1/thumb/v7e-m+fp/hard/crtbegin.o
__retarget_lock_acquire                           c:/users/spencer/appdata/local/arduino15/packages/adafruit/tools/arm-none-eabi-gcc/9-2019q4/bin/../lib/gcc/arm-none-eabi/9.2.1/../../../../arm-none-eabi/lib/thumb/v7e-m+fp/hard\libc_nano.a(lib_a-lock.o)
__retarget_lock_acquire_recursive                 c:/users/spencer/appdata/local/arduino15/packages/adafruit/tools/arm-none-eabi-gcc/9-2019q4/bin/../lib/gcc/arm-none-eabi/9.2.1/../../../../arm-none-eabi/lib/thumb/v7e-m+fp/hard\libc_nano.a(lib_a-lock.o)
                                                  c:/users/spencer/appdata/local/arduino15/packages/adafruit/tools/arm-none-eabi-gcc/9-2019q4/bin/../lib/gcc/arm-none-eabi/9.2.1/../../../../arm-none-eabi/lib/thumb/v7e-m+fp/hard\libc_nano.a(lib_a-putc.o)
                                                  c:/users/spencer/appdata/local/arduino15/packages/adafruit/tools/arm-none-eabi-gcc/9-2019q4/bin/../lib/gcc/arm-none-eabi/9.2.1/../../../../arm-none-eabi/lib/thumb/v7e-m+fp/hard\libc_nano.a(lib_a-nano-vfprintf.o)
                                                  c:/users/spencer/appdata/local/arduino15/packages/adafruit/tools/arm-none-eabi-gcc/9-2019q4/bin/../lib/gcc/arm-none-eabi/9.2.1/../../../../arm-none-eabi/lib/thumb/v7e-m+fp/hard\libc_nano.a(lib_a-mlock.o)
                                                  c:/users/spencer/appdata/local/arduino15/packages/adafruit/tools/arm-none-eabi-gcc/9-2019q4/bin/../lib/gcc/arm-none-eabi/9.2.1/../../../../arm-none-eabi/lib/thumb/v7e-m+fp/hard\libc_nano.a(lib_a-findfp.o)
                                                  c:/users/spencer/appdata/local/arduino15/packages/adafruit/tools/arm-none-eabi-gcc/9-2019q4/bin/../lib/gcc/arm-none-eabi/9.2.1/../../../../arm-none-eabi/lib/thumb/v7e-m+fp/hard\libc_nano.a(lib_a-fflush.o)
                                                  c:/users/spencer/appdata/local/arduino15/packages/adafruit/tools/arm-none-eabi-gcc/9-2019q4/bin/../lib/gcc/arm-none-eabi/9.2.1/../../../../arm-none-eabi/lib/thumb/v7e-m+fp/hard\libc_nano.a(lib_a-puts.o)
__retarget_lock_close                             c:/users/spencer/appdata/local/arduino15/packages/adafruit/tools/arm-none-eabi-gcc/9-2019q4/bin/../lib/gcc/arm-none-eabi/9.2.1/../../../../arm-none-eabi/lib/thumb/v7e-m+fp/hard\libc_nano.a(lib_a-lock.o)
__retarget_lock_close_recursive                   c:/users/spencer/appdata/local/arduino15/packages/adafruit/tools/arm-none-eabi-gcc/9-2019q4/bin/../lib/gcc/arm-none-eabi/9.2.1/../../../../arm-none-eabi/lib/thumb/v7e-m+fp/hard\libc_nano.a(lib_a-lock.o)
__retarget_lock_init                              c:/users/spencer/appdata/local/arduino15/packages/adafruit/tools/arm-none-eabi-gcc/9-2019q4/bin/../lib/gcc/arm-none-eabi/9.2.1/../../../../arm-none-eabi/lib/thumb/v7e-m+fp/hard\libc_nano.a(lib_a-lock.o)
__retarget_lock_init_recursive                    c:/users/spencer/appdata/local/arduino15/packages/adafruit/tools/arm-none-eabi-gcc/9-2019q4/bin/../lib/gcc/arm-none-eabi/9.2.1/../../../../arm-none-eabi/lib/thumb/v7e-m+fp/hard\libc_nano.a(lib_a-lock.o)
                                                  c:/users/spencer/appdata/local/arduino15/packages/adafruit/tools/arm-none-eabi-gcc/9-2019q4/bin/../lib/gcc/arm-none-eabi/9.2.1/../../../../arm-none-eabi/lib/thumb/v7e-m+fp/hard\libc_nano.a(lib_a-findfp.o)
__retarget_lock_release                           c:/users/spencer/appdata/local/arduino15/packages/adafruit/tools/arm-none-eabi-gcc/9-2019q4/bin/../lib/gcc/arm-none-eabi/9.2.1/../../../../arm-none-eabi/lib/thumb/v7e-m+fp/hard\libc_nano.a(lib_a-lock.o)
__retarget_lock_release_recursive                 c:/users/spencer/appdata/local/arduino15/packages/adafruit/tools/arm-none-eabi-gcc/9-2019q4/bin/../lib/gcc/arm-none-eabi/9.2.1/../../../../arm-none-eabi/lib/thumb/v7e-m+fp/hard\libc_nano.a(lib_a-lock.o)
                                                  c:/users/spencer/appdata/local/arduino15/packages/adafruit/tools/arm-none-eabi-gcc/9-2019q4/bin/../lib/gcc/arm-none-eabi/9.2.1/../../../../arm-none-eabi/lib/thumb/v7e-m+fp/hard\libc_nano.a(lib_a-putc.o)
                                                  c:/users/spencer/appdata/local/arduino15/packages/adafruit/tools/arm-none-eabi-gcc/9-2019q4/bin/../lib/gcc/arm-none-eabi/9.2.1/../../../../arm-none-eabi/lib/thumb/v7e-m+fp/hard\libc_nano.a(lib_a-nano-vfprintf.o)
                                                  c:/users/spencer/appdata/local/arduino15/packages/adafruit/tools/arm-none-eabi-gcc/9-2019q4/bin/../lib/gcc/arm-none-eabi/9.2.1/../../../../arm-none-eabi/lib/thumb/v7e-m+fp/hard\libc_nano.a(lib_a-mlock.o)
                                                  c:/users/spencer/appdata/local/arduino15/packages/adafruit/tools/arm-none-eabi-gcc/9-2019q4/bin/../lib/gcc/arm-none-eabi/9.2.1/../../../../arm-none-eabi/lib/thumb/v7e-m+fp/hard\libc_nano.a(lib_a-findfp.o)
                                                  c:/users/spencer/appdata/local/arduino15/packages/adafruit/tools/arm-none-eabi-gcc/9-2019q4/bin/../lib/gcc/arm-none-eabi/9.2.1/../../../../arm-none-eabi/lib/thumb/v7e-m+fp/hard\libc_nano.a(lib_a-fflush.o)
                                                  c:/users/spencer/appdata/local/arduino15/packages/adafruit/tools/arm-none-eabi-gcc/9-2019q4/bin/../lib/gcc/arm-none-eabi/9.2.1/../../../../arm-none-eabi/lib/thumb/v7e-m+fp/hard\libc_nano.a(lib_a-puts.o)
__retarget_lock_try_acquire                       c:/users/spencer/appdata/local/arduino15/packages/adafruit/tools/arm-none-eabi-gcc/9-2019q4/bin/../lib/gcc/arm-none-eabi/9.2.1/../../../../arm-none-eabi/lib/thumb/v7e-m+fp/hard\libc_nano.a(lib_a-lock.o)
__retarget_lock_try_acquire_recursive             c:/users/spencer/appdata/local/arduino15/packages/adafruit/tools/arm-none-eabi-gcc/9-2019q4/bin/../lib/gcc/arm-none-eabi/9.2.1/../../../../arm-none-eabi/lib/thumb/v7e-m+fp/hard\libc_nano.a(lib_a-lock.o)
__s2b                                             c:/users/spencer/appdata/local/arduino15/packages/adafruit/tools/arm-none-eabi-gcc/9-2019q4/bin/../lib/gcc/arm-none-eabi/9.2.1/../../../../arm-none-eabi/lib/thumb/v7e-m+fp/hard\libc_nano.a(lib_a-mprec.o)
__sclose                                          c:/users/spencer/appdata/local/arduino15/packages/adafruit/tools/arm-none-eabi-gcc/9-2019q4/bin/../lib/gcc/arm-none-eabi/9.2.1/../../../../arm-none-eabi/lib/thumb/v7e-m+fp/hard\libc_nano.a(lib_a-stdio.o)
                                                  c:/users/spencer/appdata/local/arduino15/packages/adafruit/tools/arm-none-eabi-gcc/9-2019q4/bin/../lib/gcc/arm-none-eabi/9.2.1/../../../../arm-none-eabi/lib/thumb/v7e-m+fp/hard\libc_nano.a(lib_a-findfp.o)
__seofread                                        c:/users/spencer/appdata/local/arduino15/packages/adafruit/tools/arm-none-eabi-gcc/9-2019q4/bin/../lib/gcc/arm-none-eabi/9.2.1/../../../../arm-none-eabi/lib/thumb/v7e-m+fp/hard\libc_nano.a(lib_a-stdio.o)
__sf_fake_stderr                                  c:/users/spencer/appdata/local/arduino15/packages/adafruit/tools/arm-none-eabi-gcc/9-2019q4/bin/../lib/gcc/arm-none-eabi/9.2.1/../../../../arm-none-eabi/lib/thumb/v7e-m+fp/hard\libc_nano.a(lib_a-findfp.o)
                                                  c:/users/spencer/appdata/local/arduino15/packages/adafruit/tools/arm-none-eabi-gcc/9-2019q4/bin/../lib/gcc/arm-none-eabi/9.2.1/../../../../arm-none-eabi/lib/thumb/v7e-m+fp/hard\libc_nano.a(lib_a-putc.o)
                                                  c:/users/spencer/appdata/local/arduino15/packages/adafruit/tools/arm-none-eabi-gcc/9-2019q4/bin/../lib/gcc/arm-none-eabi/9.2.1/../../../../arm-none-eabi/lib/thumb/v7e-m+fp/hard\libc_nano.a(lib_a-nano-vfprintf.o)
                                                  c:/users/spencer/appdata/local/arduino15/packages/adafruit/tools/arm-none-eabi-gcc/9-2019q4/bin/../lib/gcc/arm-none-eabi/9.2.1/../../../../arm-none-eabi/lib/thumb/v7e-m+fp/hard\libc_nano.a(lib_a-fflush.o)
                                                  c:/users/spencer/appdata/local/arduino15/packages/adafruit/tools/arm-none-eabi-gcc/9-2019q4/bin/../lib/gcc/arm-none-eabi/9.2.1/../../../../arm-none-eabi/lib/thumb/v7e-m+fp/hard\libc_nano.a(lib_a-wsetup.o)
                                                  c:/users/spencer/appdata/local/arduino15/packages/adafruit/tools/arm-none-eabi-gcc/9-2019q4/bin/../lib/gcc/arm-none-eabi/9.2.1/../../../../arm-none-eabi/lib/thumb/v7e-m+fp/hard\libc_nano.a(lib_a-wbuf.o)
                                                  c:/users/spencer/appdata/local/arduino15/packages/adafruit/tools/arm-none-eabi-gcc/9-2019q4/bin/../lib/gcc/arm-none-eabi/9.2.1/../../../../arm-none-eabi/lib/thumb/v7e-m+fp/hard\libc_nano.a(lib_a-puts.o)
                                                  c:/users/spencer/appdata/local/arduino15/packages/adafruit/tools/arm-none-eabi-gcc/9-2019q4/bin/../lib/gcc/arm-none-eabi/9.2.1/../../../../arm-none-eabi/lib/thumb/v7e-m+fp/hard\libc_nano.a(lib_a-impure.o)
__sf_fake_stdin                                   c:/users/spencer/appdata/local/arduino15/packages/adafruit/tools/arm-none-eabi-gcc/9-2019q4/bin/../lib/gcc/arm-none-eabi/9.2.1/../../../../arm-none-eabi/lib/thumb/v7e-m+fp/hard\libc_nano.a(lib_a-findfp.o)
                                                  c:/users/spencer/appdata/local/arduino15/packages/adafruit/tools/arm-none-eabi-gcc/9-2019q4/bin/../lib/gcc/arm-none-eabi/9.2.1/../../../../arm-none-eabi/lib/thumb/v7e-m+fp/hard\libc_nano.a(lib_a-putc.o)
                                                  c:/users/spencer/appdata/local/arduino15/packages/adafruit/tools/arm-none-eabi-gcc/9-2019q4/bin/../lib/gcc/arm-none-eabi/9.2.1/../../../../arm-none-eabi/lib/thumb/v7e-m+fp/hard\libc_nano.a(lib_a-nano-vfprintf.o)
                                                  c:/users/spencer/appdata/local/arduino15/packages/adafruit/tools/arm-none-eabi-gcc/9-2019q4/bin/../lib/gcc/arm-none-eabi/9.2.1/../../../../arm-none-eabi/lib/thumb/v7e-m+fp/hard\libc_nano.a(lib_a-fflush.o)
                                                  c:/users/spencer/appdata/local/arduino15/packages/adafruit/tools/arm-none-eabi-gcc/9-2019q4/bin/../lib/gcc/arm-none-eabi/9.2.1/../../../../arm-none-eabi/lib/thumb/v7e-m+fp/hard\libc_nano.a(lib_a-wsetup.o)
                                                  c:/users/spencer/appdata/local/arduino15/packages/adafruit/tools/arm-none-eabi-gcc/9-2019q4/bin/../lib/gcc/arm-none-eabi/9.2.1/../../../../arm-none-eabi/lib/thumb/v7e-m+fp/hard\libc_nano.a(lib_a-wbuf.o)
                                                  c:/users/spencer/appdata/local/arduino15/packages/adafruit/tools/arm-none-eabi-gcc/9-2019q4/bin/../lib/gcc/arm-none-eabi/9.2.1/../../../../arm-none-eabi/lib/thumb/v7e-m+fp/hard\libc_nano.a(lib_a-puts.o)
                                                  c:/users/spencer/appdata/local/arduino15/packages/adafruit/tools/arm-none-eabi-gcc/9-2019q4/bin/../lib/gcc/arm-none-eabi/9.2.1/../../../../arm-none-eabi/lib/thumb/v7e-m+fp/hard\libc_nano.a(lib_a-impure.o)
__sf_fake_stdout                                  c:/users/spencer/appdata/local/arduino15/packages/adafruit/tools/arm-none-eabi-gcc/9-2019q4/bin/../lib/gcc/arm-none-eabi/9.2.1/../../../../arm-none-eabi/lib/thumb/v7e-m+fp/hard\libc_nano.a(lib_a-findfp.o)
                                                  c:/users/spencer/appdata/local/arduino15/packages/adafruit/tools/arm-none-eabi-gcc/9-2019q4/bin/../lib/gcc/arm-none-eabi/9.2.1/../../../../arm-none-eabi/lib/thumb/v7e-m+fp/hard\libc_nano.a(lib_a-putc.o)
                                                  c:/users/spencer/appdata/local/arduino15/packages/adafruit/tools/arm-none-eabi-gcc/9-2019q4/bin/../lib/gcc/arm-none-eabi/9.2.1/../../../../arm-none-eabi/lib/thumb/v7e-m+fp/hard\libc_nano.a(lib_a-nano-vfprintf.o)
                                                  c:/users/spencer/appdata/local/arduino15/packages/adafruit/tools/arm-none-eabi-gcc/9-2019q4/bin/../lib/gcc/arm-none-eabi/9.2.1/../../../../arm-none-eabi/lib/thumb/v7e-m+fp/hard\libc_nano.a(lib_a-fflush.o)
                                                  c:/users/spencer/appdata/local/arduino15/packages/adafruit/tools/arm-none-eabi-gcc/9-2019q4/bin/../lib/gcc/arm-none-eabi/9.2.1/../../../../arm-none-eabi/lib/thumb/v7e-m+fp/hard\libc_nano.a(lib_a-wsetup.o)
                                                  c:/users/spencer/appdata/local/arduino15/packages/adafruit/tools/arm-none-eabi-gcc/9-2019q4/bin/../lib/gcc/arm-none-eabi/9.2.1/../../../../arm-none-eabi/lib/thumb/v7e-m+fp/hard\libc_nano.a(lib_a-wbuf.o)
                                                  c:/users/spencer/appdata/local/arduino15/packages/adafruit/tools/arm-none-eabi-gcc/9-2019q4/bin/../lib/gcc/arm-none-eabi/9.2.1/../../../../arm-none-eabi/lib/thumb/v7e-m+fp/hard\libc_nano.a(lib_a-puts.o)
                                                  c:/users/spencer/appdata/local/arduino15/packages/adafruit/tools/arm-none-eabi-gcc/9-2019q4/bin/../lib/gcc/arm-none-eabi/9.2.1/../../../../arm-none-eabi/lib/thumb/v7e-m+fp/hard\libc_nano.a(lib_a-impure.o)
__sflush_r                                        c:/users/spencer/appdata/local/arduino15/packages/adafruit/tools/arm-none-eabi-gcc/9-2019q4/bin/../lib/gcc/arm-none-eabi/9.2.1/../../../../arm-none-eabi/lib/thumb/v7e-m+fp/hard\libc_nano.a(lib_a-fflush.o)
__sfmoreglue                                      c:/users/spencer/appdata/local/arduino15/packages/adafruit/tools/arm-none-eabi-gcc/9-2019q4/bin/../lib/gcc/arm-none-eabi/9.2.1/../../../../arm-none-eabi/lib/thumb/v7e-m+fp/hard\libc_nano.a(lib_a-findfp.o)
__sfp                                             c:/users/spencer/appdata/local/arduino15/packages/adafruit/tools/arm-none-eabi-gcc/9-2019q4/bin/../lib/gcc/arm-none-eabi/9.2.1/../../../../arm-none-eabi/lib/thumb/v7e-m+fp/hard\libc_nano.a(lib_a-findfp.o)
__sfp_lock_acquire                                c:/users/spencer/appdata/local/arduino15/packages/adafruit/tools/arm-none-eabi-gcc/9-2019q4/bin/../lib/gcc/arm-none-eabi/9.2.1/../../../../arm-none-eabi/lib/thumb/v7e-m+fp/hard\libc_nano.a(lib_a-findfp.o)
__sfp_lock_release                                c:/users/spencer/appdata/local/arduino15/packages/adafruit/tools/arm-none-eabi-gcc/9-2019q4/bin/../lib/gcc/arm-none-eabi/9.2.1/../../../../arm-none-eabi/lib/thumb/v7e-m+fp/hard\libc_nano.a(lib_a-findfp.o)
__sfputs_r                                        c:/users/spencer/appdata/local/arduino15/packages/adafruit/tools/arm-none-eabi-gcc/9-2019q4/bin/../lib/gcc/arm-none-eabi/9.2.1/../../../../arm-none-eabi/lib/thumb/v7e-m+fp/hard\libc_nano.a(lib_a-nano-vfprintf.o)
__sfvwrite_r                                      c:/users/spencer/appdata/local/arduino15/packages/adafruit/tools/arm-none-eabi-gcc/9-2019q4/bin/../lib/gcc/arm-none-eabi/9.2.1/../../../../arm-none-eabi/lib/thumb/v7e-m+fp/hard\libc_nano.a(lib_a-fvwrite.o)
                                                  c:/users/spencer/appdata/local/arduino15/packages/adafruit/tools/arm-none-eabi-gcc/9-2019q4/bin/../lib/gcc/arm-none-eabi/9.2.1/../../../../arm-none-eabi/lib/thumb/v7e-m+fp/hard\libc_nano.a(lib_a-nano-vfprintf.o)
__sinit                                           c:/users/spencer/appdata/local/arduino15/packages/adafruit/tools/arm-none-eabi-gcc/9-2019q4/bin/../lib/gcc/arm-none-eabi/9.2.1/../../../../arm-none-eabi/lib/thumb/v7e-m+fp/hard\libc_nano.a(lib_a-findfp.o)
                                                  c:/users/spencer/appdata/local/arduino15/packages/adafruit/tools/arm-none-eabi-gcc/9-2019q4/bin/../lib/gcc/arm-none-eabi/9.2.1/../../../../arm-none-eabi/lib/thumb/v7e-m+fp/hard\libc_nano.a(lib_a-putc.o)
                                                  c:/users/spencer/appdata/local/arduino15/packages/adafruit/tools/arm-none-eabi-gcc/9-2019q4/bin/../lib/gcc/arm-none-eabi/9.2.1/../../../../arm-none-eabi/lib/thumb/v7e-m+fp/hard\libc_nano.a(lib_a-nano-vfprintf.o)
                                                  c:/users/spencer/appdata/local/arduino15/packages/adafruit/tools/arm-none-eabi-gcc/9-2019q4/bin/../lib/gcc/arm-none-eabi/9.2.1/../../../../arm-none-eabi/lib/thumb/v7e-m+fp/hard\libc_nano.a(lib_a-fflush.o)
                                                  c:/users/spencer/appdata/local/arduino15/packages/adafruit/tools/arm-none-eabi-gcc/9-2019q4/bin/../lib/gcc/arm-none-eabi/9.2.1/../../../../arm-none-eabi/lib/thumb/v7e-m+fp/hard\libc_nano.a(lib_a-wsetup.o)
                                                  c:/users/spencer/appdata/local/arduino15/packages/adafruit/tools/arm-none-eabi-gcc/9-2019q4/bin/../lib/gcc/arm-none-eabi/9.2.1/../../../../arm-none-eabi/lib/thumb/v7e-m+fp/hard\libc_nano.a(lib_a-wbuf.o)
                                                  c:/users/spencer/appdata/local/arduino15/packages/adafruit/tools/arm-none-eabi-gcc/9-2019q4/bin/../lib/gcc/arm-none-eabi/9.2.1/../../../../arm-none-eabi/lib/thumb/v7e-m+fp/hard\libc_nano.a(lib_a-puts.o)
                                                  c:/users/spencer/appdata/local/arduino15/packages/adafruit/tools/arm-none-eabi-gcc/9-2019q4/bin/../lib/gcc/arm-none-eabi/9.2.1/../../../../arm-none-eabi/lib/thumb/v7e-m+fp/hard\libc_nano.a(lib_a-putchar.o)
                                                  c:/users/spencer/appdata/local/arduino15/packages/adafruit/tools/arm-none-eabi-gcc/9-2019q4/bin/../lib/gcc/arm-none-eabi/9.2.1/../../../../arm-none-eabi/lib/thumb/v7e-m+fp/hard\libc_nano.a(lib_a-printf.o)
                                                  c:/users/spencer/appdata/local/arduino15/packages/adafruit/tools/arm-none-eabi-gcc/9-2019q4/bin/../lib/gcc/arm-none-eabi/9.2.1/../../../../arm-none-eabi/lib/thumb/v7e-m+fp/hard\libc_nano.a(lib_a-mstats.o)
__sinit_lock_acquire                              c:/users/spencer/appdata/local/arduino15/packages/adafruit/tools/arm-none-eabi-gcc/9-2019q4/bin/../lib/gcc/arm-none-eabi/9.2.1/../../../../arm-none-eabi/lib/thumb/v7e-m+fp/hard\libc_nano.a(lib_a-findfp.o)
__sinit_lock_release                              c:/users/spencer/appdata/local/arduino15/packages/adafruit/tools/arm-none-eabi-gcc/9-2019q4/bin/../lib/gcc/arm-none-eabi/9.2.1/../../../../arm-none-eabi/lib/thumb/v7e-m+fp/hard\libc_nano.a(lib_a-findfp.o)
__smakebuf_r                                      c:/users/spencer/appdata/local/arduino15/packages/adafruit/tools/arm-none-eabi-gcc/9-2019q4/bin/../lib/gcc/arm-none-eabi/9.2.1/../../../../arm-none-eabi/lib/thumb/v7e-m+fp/hard\libc_nano.a(lib_a-makebuf.o)
                                                  c:/users/spencer/appdata/local/arduino15/packages/adafruit/tools/arm-none-eabi-gcc/9-2019q4/bin/../lib/gcc/arm-none-eabi/9.2.1/../../../../arm-none-eabi/lib/thumb/v7e-m+fp/hard\libc_nano.a(lib_a-wsetup.o)
__sprint_r                                        c:/users/spencer/appdata/local/arduino15/packages/adafruit/tools/arm-none-eabi-gcc/9-2019q4/bin/../lib/gcc/arm-none-eabi/9.2.1/../../../../arm-none-eabi/lib/thumb/v7e-m+fp/hard\libc_nano.a(lib_a-nano-vfprintf.o)
__sread                                           c:/users/spencer/appdata/local/arduino15/packages/adafruit/tools/arm-none-eabi-gcc/9-2019q4/bin/../lib/gcc/arm-none-eabi/9.2.1/../../../../arm-none-eabi/lib/thumb/v7e-m+fp/hard\libc_nano.a(lib_a-stdio.o)
                                                  c:/users/spencer/appdata/local/arduino15/packages/adafruit/tools/arm-none-eabi-gcc/9-2019q4/bin/../lib/gcc/arm-none-eabi/9.2.1/../../../../arm-none-eabi/lib/thumb/v7e-m+fp/hard\libc_nano.a(lib_a-findfp.o)
__sseek                                           c:/users/spencer/appdata/local/arduino15/packages/adafruit/tools/arm-none-eabi-gcc/9-2019q4/bin/../lib/gcc/arm-none-eabi/9.2.1/../../../../arm-none-eabi/lib/thumb/v7e-m+fp/hard\libc_nano.a(lib_a-stdio.o)
                                                  c:/users/spencer/appdata/local/arduino15/packages/adafruit/tools/arm-none-eabi-gcc/9-2019q4/bin/../lib/gcc/arm-none-eabi/9.2.1/../../../../arm-none-eabi/lib/thumb/v7e-m+fp/hard\libc_nano.a(lib_a-findfp.o)
__ssprint_r                                       c:/users/spencer/appdata/local/arduino15/packages/adafruit/tools/arm-none-eabi-gcc/9-2019q4/bin/../lib/gcc/arm-none-eabi/9.2.1/../../../../arm-none-eabi/lib/thumb/v7e-m+fp/hard\libc_nano.a(lib_a-nano-svfprintf.o)
__ssputs_r                                        c:/users/spencer/appdata/local/arduino15/packages/adafruit/tools/arm-none-eabi-gcc/9-2019q4/bin/../lib/gcc/arm-none-eabi/9.2.1/../../../../arm-none-eabi/lib/thumb/v7e-m+fp/hard\libc_nano.a(lib_a-nano-svfprintf.o)
__stack                                           c:/users/spencer/appdata/local/arduino15/packages/adafruit/tools/arm-none-eabi-gcc/9-2019q4/bin/../lib/gcc/arm-none-eabi/9.2.1/../../../../arm-none-eabi/lib/thumb/v7e-m+fp/hard/crt0.o
__subdf3                                          c:/users/spencer/appdata/local/arduino15/packages/adafruit/tools/arm-none-eabi-gcc/9-2019q4/bin/../lib/gcc/arm-none-eabi/9.2.1/thumb/v7e-m+fp/hard\libgcc.a(_arm_addsubdf3.o)
__swbuf                                           c:/users/spencer/appdata/local/arduino15/packages/adafruit/tools/arm-none-eabi-gcc/9-2019q4/bin/../lib/gcc/arm-none-eabi/9.2.1/../../../../arm-none-eabi/lib/thumb/v7e-m+fp/hard\libc_nano.a(lib_a-wbuf.o)
__swbuf_r                                         c:/users/spencer/appdata/local/arduino15/packages/adafruit/tools/arm-none-eabi-gcc/9-2019q4/bin/../lib/gcc/arm-none-eabi/9.2.1/../../../../arm-none-eabi/lib/thumb/v7e-m+fp/hard\libc_nano.a(lib_a-wbuf.o)
                                                  c:/users/spencer/appdata/local/arduino15/packages/adafruit/tools/arm-none-eabi-gcc/9-2019q4/bin/../lib/gcc/arm-none-eabi/9.2.1/../../../../arm-none-eabi/lib/thumb/v7e-m+fp/hard\libc_nano.a(lib_a-putc.o)
                                                  c:/users/spencer/appdata/local/arduino15/packages/adafruit/tools/arm-none-eabi-gcc/9-2019q4/bin/../lib/gcc/arm-none-eabi/9.2.1/../../../../arm-none-eabi/lib/thumb/v7e-m+fp/hard\libc_nano.a(lib_a-nano-vfprintf.o)
                                                  c:/users/spencer/appdata/local/arduino15/packages/adafruit/tools/arm-none-eabi-gcc/9-2019q4/bin/../lib/gcc/arm-none-eabi/9.2.1/../../../../arm-none-eabi/lib/thumb/v7e-m+fp/hard\libc_nano.a(lib_a-puts.o)
__swhatbuf_r                                      c:/users/spencer/appdata/local/arduino15/packages/adafruit/tools/arm-none-eabi-gcc/9-2019q4/bin/../lib/gcc/arm-none-eabi/9.2.1/../../../../arm-none-eabi/lib/thumb/v7e-m+fp/hard\libc_nano.a(lib_a-makebuf.o)
__swrite                                          c:/users/spencer/appdata/local/arduino15/packages/adafruit/tools/arm-none-eabi-gcc/9-2019q4/bin/../lib/gcc/arm-none-eabi/9.2.1/../../../../arm-none-eabi/lib/thumb/v7e-m+fp/hard\libc_nano.a(lib_a-stdio.o)
                                                  c:/users/spencer/appdata/local/arduino15/packages/adafruit/tools/arm-none-eabi-gcc/9-2019q4/bin/../lib/gcc/arm-none-eabi/9.2.1/../../../../arm-none-eabi/lib/thumb/v7e-m+fp/hard\libc_nano.a(lib_a-findfp.o)
__swsetup_r                                       c:/users/spencer/appdata/local/arduino15/packages/adafruit/tools/arm-none-eabi-gcc/9-2019q4/bin/../lib/gcc/arm-none-eabi/9.2.1/../../../../arm-none-eabi/lib/thumb/v7e-m+fp/hard\libc_nano.a(lib_a-wsetup.o)
                                                  c:/users/spencer/appdata/local/arduino15/packages/adafruit/tools/arm-none-eabi-gcc/9-2019q4/bin/../lib/gcc/arm-none-eabi/9.2.1/../../../../arm-none-eabi/lib/thumb/v7e-m+fp/hard\libc_nano.a(lib_a-fvwrite.o)
                                                  c:/users/spencer/appdata/local/arduino15/packages/adafruit/tools/arm-none-eabi-gcc/9-2019q4/bin/../lib/gcc/arm-none-eabi/9.2.1/../../../../arm-none-eabi/lib/thumb/v7e-m+fp/hard\libc_nano.a(lib_a-nano-vfprintf.o)
                                                  c:/users/spencer/appdata/local/arduino15/packages/adafruit/tools/arm-none-eabi-gcc/9-2019q4/bin/../lib/gcc/arm-none-eabi/9.2.1/../../../../arm-none-eabi/lib/thumb/v7e-m+fp/hard\libc_nano.a(lib_a-wbuf.o)
                                                  c:/users/spencer/appdata/local/arduino15/packages/adafruit/tools/arm-none-eabi-gcc/9-2019q4/bin/../lib/gcc/arm-none-eabi/9.2.1/../../../../arm-none-eabi/lib/thumb/v7e-m+fp/hard\libc_nano.a(lib_a-puts.o)
__ulp                                             c:/users/spencer/appdata/local/arduino15/packages/adafruit/tools/arm-none-eabi-gcc/9-2019q4/bin/../lib/gcc/arm-none-eabi/9.2.1/../../../../arm-none-eabi/lib/thumb/v7e-m+fp/hard\libc_nano.a(lib_a-mprec.o)
__unorddf2                                        c:/users/spencer/appdata/local/arduino15/packages/adafruit/tools/arm-none-eabi-gcc/9-2019q4/bin/../lib/gcc/arm-none-eabi/9.2.1/thumb/v7e-m+fp/hard\libgcc.a(_arm_unorddf2.o)
_calloc_r                                         c:/users/spencer/appdata/local/arduino15/packages/adafruit/tools/arm-none-eabi-gcc/9-2019q4/bin/../lib/gcc/arm-none-eabi/9.2.1/../../../../arm-none-eabi/lib/thumb/v7e-m+fp/hard\libc_nano.a(lib_a-nano-callocr.o)
                                                  c:/users/spencer/appdata/local/arduino15/packages/adafruit/tools/arm-none-eabi-gcc/9-2019q4/bin/../lib/gcc/arm-none-eabi/9.2.1/../../../../arm-none-eabi/lib/thumb/v7e-m+fp/hard\libc_nano.a(lib_a-mprec.o)
_cleanup                                          c:/users/spencer/appdata/local/arduino15/packages/adafruit/tools/arm-none-eabi-gcc/9-2019q4/bin/../lib/gcc/arm-none-eabi/9.2.1/../../../../arm-none-eabi/lib/thumb/v7e-m+fp/hard\libc_nano.a(lib_a-findfp.o)
_cleanup_r                                        c:/users/spencer/appdata/local/arduino15/packages/adafruit/tools/arm-none-eabi-gcc/9-2019q4/bin/../lib/gcc/arm-none-eabi/9.2.1/../../../../arm-none-eabi/lib/thumb/v7e-m+fp/hard\libc_nano.a(lib_a-findfp.o)
                                                  c:/users/spencer/appdata/local/arduino15/packages/adafruit/tools/arm-none-eabi-gcc/9-2019q4/bin/../lib/gcc/arm-none-eabi/9.2.1/../../../../arm-none-eabi/lib/thumb/v7e-m+fp/hard\libc_nano.a(lib_a-makebuf.o)
_close                                            c:/users/spencer/appdata/local/arduino15/packages/adafruit/tools/arm-none-eabi-gcc/9-2019q4/bin/../lib/gcc/arm-none-eabi/9.2.1/../../../../arm-none-eabi/lib/thumb/v7e-m+fp/hard\libnosys.a(close.o)
                                                  c:/users/spencer/appdata/local/arduino15/packages/adafruit/tools/arm-none-eabi-gcc/9-2019q4/bin/../lib/gcc/arm-none-eabi/9.2.1/../../../../arm-none-eabi/lib/thumb/v7e-m+fp/hard\libc_nano.a(lib_a-closer.o)
_close_r                                          c:/users/spencer/appdata/local/arduino15/packages/adafruit/tools/arm-none-eabi-gcc/9-2019q4/bin/../lib/gcc/arm-none-eabi/9.2.1/../../../../arm-none-eabi/lib/thumb/v7e-m+fp/hard\libc_nano.a(lib_a-closer.o)
                                                  c:/users/spencer/appdata/local/arduino15/packages/adafruit/tools/arm-none-eabi-gcc/9-2019q4/bin/../lib/gcc/arm-none-eabi/9.2.1/../../../../arm-none-eabi/lib/thumb/v7e-m+fp/hard\libc_nano.a(lib_a-stdio.o)
_ctype_                                           c:/users/spencer/appdata/local/arduino15/packages/adafruit/tools/arm-none-eabi-gcc/9-2019q4/bin/../lib/gcc/arm-none-eabi/9.2.1/../../../../arm-none-eabi/lib/thumb/v7e-m+fp/hard\libc_nano.a(lib_a-ctype_.o)
                                                  c:/users/spencer/appdata/local/arduino15/packages/adafruit/tools/arm-none-eabi-gcc/9-2019q4/bin/../lib/gcc/arm-none-eabi/9.2.1/../../../../arm-none-eabi/lib/thumb/v7e-m+fp/hard\libc_nano.a(lib_a-locale.o)
                                                  c:/users/spencer/appdata/local/arduino15/packages/adafruit/tools/arm-none-eabi-gcc/9-2019q4/bin/../lib/gcc/arm-none-eabi/9.2.1/../../../../arm-none-eabi/lib/thumb/v7e-m+fp/hard\libc_nano.a(lib_a-isprint.o)
_dtoa_r                                           c:/users/spencer/appdata/local/arduino15/packages/adafruit/tools/arm-none-eabi-gcc/9-2019q4/bin/../lib/gcc/arm-none-eabi/9.2.1/../../../../arm-none-eabi/lib/thumb/v7e-m+fp/hard\libc_nano.a(lib_a-dtoa.o)
                                                  c:/users/spencer/appdata/local/arduino15/packages/adafruit/tools/arm-none-eabi-gcc/9-2019q4/bin/../lib/gcc/arm-none-eabi/9.2.1/../../../../arm-none-eabi/lib/thumb/v7e-m+fp/hard\libc_nano.a(lib_a-nano-vfprintf_float.o)
_exit                                             c:/users/spencer/appdata/local/arduino15/packages/adafruit/tools/arm-none-eabi-gcc/9-2019q4/bin/../lib/gcc/arm-none-eabi/9.2.1/../../../../arm-none-eabi/lib/thumb/v7e-m+fp/hard\libnosys.a(_exit.o)
                                                  c:/users/spencer/appdata/local/arduino15/packages/adafruit/tools/arm-none-eabi-gcc/9-2019q4/bin/../lib/gcc/arm-none-eabi/9.2.1/../../../../arm-none-eabi/lib/thumb/v7e-m+fp/hard\libc_nano.a(lib_a-exit.o)
_fflush_r                                         c:/users/spencer/appdata/local/arduino15/packages/adafruit/tools/arm-none-eabi-gcc/9-2019q4/bin/../lib/gcc/arm-none-eabi/9.2.1/../../../../arm-none-eabi/lib/thumb/v7e-m+fp/hard\libc_nano.a(lib_a-fflush.o)
                                                  c:/users/spencer/appdata/local/arduino15/packages/adafruit/tools/arm-none-eabi-gcc/9-2019q4/bin/../lib/gcc/arm-none-eabi/9.2.1/../../../../arm-none-eabi/lib/thumb/v7e-m+fp/hard\libc_nano.a(lib_a-fvwrite.o)
                                                  c:/users/spencer/appdata/local/arduino15/packages/adafruit/tools/arm-none-eabi-gcc/9-2019q4/bin/../lib/gcc/arm-none-eabi/9.2.1/../../../../arm-none-eabi/lib/thumb/v7e-m+fp/hard\libc_nano.a(lib_a-findfp.o)
                                                  c:/users/spencer/appdata/local/arduino15/packages/adafruit/tools/arm-none-eabi-gcc/9-2019q4/bin/../lib/gcc/arm-none-eabi/9.2.1/../../../../arm-none-eabi/lib/thumb/v7e-m+fp/hard\libc_nano.a(lib_a-wbuf.o)
_fini                                             c:/users/spencer/appdata/local/arduino15/packages/adafruit/tools/arm-none-eabi-gcc/9-2019q4/bin/../lib/gcc/arm-none-eabi/9.2.1/thumb/v7e-m+fp/hard/crti.o
_fiprintf_r                                       c:/users/spencer/appdata/local/arduino15/packages/adafruit/tools/arm-none-eabi-gcc/9-2019q4/bin/../lib/gcc/arm-none-eabi/9.2.1/../../../../arm-none-eabi/lib/thumb/v7e-m+fp/hard\libc_nano.a(lib_a-fprintf.o)
_fprintf_r                                        c:/users/spencer/appdata/local/arduino15/packages/adafruit/tools/arm-none-eabi-gcc/9-2019q4/bin/../lib/gcc/arm-none-eabi/9.2.1/../../../../arm-none-eabi/lib/thumb/v7e-m+fp/hard\libc_nano.a(lib_a-fprintf.o)
_free_r                                           c:/users/spencer/appdata/local/arduino15/packages/adafruit/tools/arm-none-eabi-gcc/9-2019q4/bin/../lib/gcc/arm-none-eabi/9.2.1/../../../../arm-none-eabi/lib/thumb/v7e-m+fp/hard\libc_nano.a(lib_a-nano-freer.o)
                                                  c:/users/spencer/appdata/local/arduino15/packages/adafruit/tools/arm-none-eabi-gcc/9-2019q4/bin/../lib/gcc/arm-none-eabi/9.2.1/../../../../arm-none-eabi/lib/thumb/v7e-m+fp/hard\libc_nano.a(lib_a-nano-reallocr.o)
                                                  c:/users/spencer/appdata/local/arduino15/packages/adafruit/tools/arm-none-eabi-gcc/9-2019q4/bin/../lib/gcc/arm-none-eabi/9.2.1/../../../../arm-none-eabi/lib/thumb/v7e-m+fp/hard\libc_nano.a(lib_a-fvwrite.o)
                                                  c:/users/spencer/appdata/local/arduino15/packages/adafruit/tools/arm-none-eabi-gcc/9-2019q4/bin/../lib/gcc/arm-none-eabi/9.2.1/../../../../arm-none-eabi/lib/thumb/v7e-m+fp/hard\libc_nano.a(lib_a-reent.o)
                                                  c:/users/spencer/appdata/local/arduino15/packages/adafruit/tools/arm-none-eabi-gcc/9-2019q4/bin/../lib/gcc/arm-none-eabi/9.2.1/../../../../arm-none-eabi/lib/thumb/v7e-m+fp/hard\libc_nano.a(lib_a-nano-svfprintf.o)
                                                  c:/users/spencer/appdata/local/arduino15/packages/adafruit/tools/arm-none-eabi-gcc/9-2019q4/bin/../lib/gcc/arm-none-eabi/9.2.1/../../../../arm-none-eabi/lib/thumb/v7e-m+fp/hard\libc_nano.a(lib_a-fflush.o)
                                                  c:/users/spencer/appdata/local/arduino15/packages/adafruit/tools/arm-none-eabi-gcc/9-2019q4/bin/../lib/gcc/arm-none-eabi/9.2.1/../../../../arm-none-eabi/lib/thumb/v7e-m+fp/hard\libc_nano.a(lib_a-wsetup.o)
                                                  c:/users/spencer/appdata/local/arduino15/packages/adafruit/tools/arm-none-eabi-gcc/9-2019q4/bin/../lib/gcc/arm-none-eabi/9.2.1/../../../../arm-none-eabi/lib/thumb/v7e-m+fp/hard\libc_nano.a(lib_a-malloc.o)
_fstat                                            c:/users/spencer/appdata/local/arduino15/packages/adafruit/tools/arm-none-eabi-gcc/9-2019q4/bin/../lib/gcc/arm-none-eabi/9.2.1/../../../../arm-none-eabi/lib/thumb/v7e-m+fp/hard\libnosys.a(fstat.o)
                                                  c:/users/spencer/appdata/local/arduino15/packages/adafruit/tools/arm-none-eabi-gcc/9-2019q4/bin/../lib/gcc/arm-none-eabi/9.2.1/../../../../arm-none-eabi/lib/thumb/v7e-m+fp/hard\libc_nano.a(lib_a-fstatr.o)
_fstat_r                                          c:/users/spencer/appdata/local/arduino15/packages/adafruit/tools/arm-none-eabi-gcc/9-2019q4/bin/../lib/gcc/arm-none-eabi/9.2.1/../../../../arm-none-eabi/lib/thumb/v7e-m+fp/hard\libc_nano.a(lib_a-fstatr.o)
                                                  c:/users/spencer/appdata/local/arduino15/packages/adafruit/tools/arm-none-eabi-gcc/9-2019q4/bin/../lib/gcc/arm-none-eabi/9.2.1/../../../../arm-none-eabi/lib/thumb/v7e-m+fp/hard\libc_nano.a(lib_a-makebuf.o)
_fwalk                                            c:/users/spencer/appdata/local/arduino15/packages/adafruit/tools/arm-none-eabi-gcc/9-2019q4/bin/../lib/gcc/arm-none-eabi/9.2.1/../../../../arm-none-eabi/lib/thumb/v7e-m+fp/hard\libc_nano.a(lib_a-fwalk.o)
                                                  c:/users/spencer/appdata/local/arduino15/packages/adafruit/tools/arm-none-eabi-gcc/9-2019q4/bin/../lib/gcc/arm-none-eabi/9.2.1/../../../../arm-none-eabi/lib/thumb/v7e-m+fp/hard\libc_nano.a(lib_a-findfp.o)
_fwalk_reent                                      c:/users/spencer/appdata/local/arduino15/packages/adafruit/tools/arm-none-eabi-gcc/9-2019q4/bin/../lib/gcc/arm-none-eabi/9.2.1/../../../../arm-none-eabi/lib/thumb/v7e-m+fp/hard\libc_nano.a(lib_a-fwalk.o)
                                                  c:/users/spencer/appdata/local/arduino15/packages/adafruit/tools/arm-none-eabi-gcc/9-2019q4/bin/../lib/gcc/arm-none-eabi/9.2.1/../../../../arm-none-eabi/lib/thumb/v7e-m+fp/hard\libc_nano.a(lib_a-findfp.o)
                                                  c:/users/spencer/appdata/local/arduino15/packages/adafruit/tools/arm-none-eabi-gcc/9-2019q4/bin/../lib/gcc/arm-none-eabi/9.2.1/../../../../arm-none-eabi/lib/thumb/v7e-m+fp/hard\libc_nano.a(lib_a-fflush.o)
_global_impure_ptr                                c:/users/spencer/appdata/local/arduino15/packages/adafruit/tools/arm-none-eabi-gcc/9-2019q4/bin/../lib/gcc/arm-none-eabi/9.2.1/../../../../arm-none-eabi/lib/thumb/v7e-m+fp/hard\libc_nano.a(lib_a-impure.o)
                                                  c:/users/spencer/appdata/local/arduino15/packages/adafruit/tools/arm-none-eabi-gcc/9-2019q4/bin/../lib/gcc/arm-none-eabi/9.2.1/../../../../arm-none-eabi/lib/thumb/v7e-m+fp/hard\libc_nano.a(lib_a-findfp.o)
                                                  c:/users/spencer/appdata/local/arduino15/packages/adafruit/tools/arm-none-eabi-gcc/9-2019q4/bin/../lib/gcc/arm-none-eabi/9.2.1/../../../../arm-none-eabi/lib/thumb/v7e-m+fp/hard\libc_nano.a(lib_a-fflush.o)
                                                  c:/users/spencer/appdata/local/arduino15/packages/adafruit/tools/arm-none-eabi-gcc/9-2019q4/bin/../lib/gcc/arm-none-eabi/9.2.1/../../../../arm-none-eabi/lib/thumb/v7e-m+fp/hard\libc_nano.a(lib_a-exit.o)
_impure_ptr                                       c:/users/spencer/appdata/local/arduino15/packages/adafruit/tools/arm-none-eabi-gcc/9-2019q4/bin/../lib/gcc/arm-none-eabi/9.2.1/../../../../arm-none-eabi/lib/thumb/v7e-m+fp/hard\libc_nano.a(lib_a-impure.o)
                                                  c:/users/spencer/appdata/local/arduino15/packages/adafruit/tools/arm-none-eabi-gcc/9-2019q4/bin/../lib/gcc/arm-none-eabi/9.2.1/../../../../arm-none-eabi/lib/thumb/v7e-m+fp/hard\libc_nano.a(lib_a-locale.o)
                                                  c:/users/spencer/appdata/local/arduino15/packages/adafruit/tools/arm-none-eabi-gcc/9-2019q4/bin/../lib/gcc/arm-none-eabi/9.2.1/../../../../arm-none-eabi/lib/thumb/v7e-m+fp/hard\libc_nano.a(lib_a-reent.o)
                                                  c:/users/spencer/appdata/local/arduino15/packages/adafruit/tools/arm-none-eabi-gcc/9-2019q4/bin/../lib/gcc/arm-none-eabi/9.2.1/../../../../arm-none-eabi/lib/thumb/v7e-m+fp/hard\libc_nano.a(lib_a-putc.o)
                                                  c:/users/spencer/appdata/local/arduino15/packages/adafruit/tools/arm-none-eabi-gcc/9-2019q4/bin/../lib/gcc/arm-none-eabi/9.2.1/../../../../arm-none-eabi/lib/thumb/v7e-m+fp/hard\libc_nano.a(lib_a-nano-vfprintf.o)
                                                  c:/users/spencer/appdata/local/arduino15/packages/adafruit/tools/arm-none-eabi-gcc/9-2019q4/bin/../lib/gcc/arm-none-eabi/9.2.1/../../../../arm-none-eabi/lib/thumb/v7e-m+fp/hard\libc_nano.a(lib_a-fprintf.o)
                                                  c:/users/spencer/appdata/local/arduino15/packages/adafruit/tools/arm-none-eabi-gcc/9-2019q4/bin/../lib/gcc/arm-none-eabi/9.2.1/../../../../arm-none-eabi/lib/thumb/v7e-m+fp/hard\libc_nano.a(lib_a-findfp.o)
                                                  c:/users/spencer/appdata/local/arduino15/packages/adafruit/tools/arm-none-eabi-gcc/9-2019q4/bin/../lib/gcc/arm-none-eabi/9.2.1/../../../../arm-none-eabi/lib/thumb/v7e-m+fp/hard\libc_nano.a(lib_a-fflush.o)
                                                  c:/users/spencer/appdata/local/arduino15/packages/adafruit/tools/arm-none-eabi-gcc/9-2019q4/bin/../lib/gcc/arm-none-eabi/9.2.1/../../../../arm-none-eabi/lib/thumb/v7e-m+fp/hard\libc_nano.a(lib_a-wsetup.o)
                                                  c:/users/spencer/appdata/local/arduino15/packages/adafruit/tools/arm-none-eabi-gcc/9-2019q4/bin/../lib/gcc/arm-none-eabi/9.2.1/../../../../arm-none-eabi/lib/thumb/v7e-m+fp/hard\libc_nano.a(lib_a-wbuf.o)
                                                  c:/users/spencer/appdata/local/arduino15/packages/adafruit/tools/arm-none-eabi-gcc/9-2019q4/bin/../lib/gcc/arm-none-eabi/9.2.1/../../../../arm-none-eabi/lib/thumb/v7e-m+fp/hard\libc_nano.a(lib_a-sprintf.o)
                                                  c:/users/spencer/appdata/local/arduino15/packages/adafruit/tools/arm-none-eabi-gcc/9-2019q4/bin/../lib/gcc/arm-none-eabi/9.2.1/../../../../arm-none-eabi/lib/thumb/v7e-m+fp/hard\libc_nano.a(lib_a-puts.o)
                                                  c:/users/spencer/appdata/local/arduino15/packages/adafruit/tools/arm-none-eabi-gcc/9-2019q4/bin/../lib/gcc/arm-none-eabi/9.2.1/../../../../arm-none-eabi/lib/thumb/v7e-m+fp/hard\libc_nano.a(lib_a-putchar.o)
                                                  c:/users/spencer/appdata/local/arduino15/packages/adafruit/tools/arm-none-eabi-gcc/9-2019q4/bin/../lib/gcc/arm-none-eabi/9.2.1/../../../../arm-none-eabi/lib/thumb/v7e-m+fp/hard\libc_nano.a(lib_a-printf.o)
                                                  c:/users/spencer/appdata/local/arduino15/packages/adafruit/tools/arm-none-eabi-gcc/9-2019q4/bin/../lib/gcc/arm-none-eabi/9.2.1/../../../../arm-none-eabi/lib/thumb/v7e-m+fp/hard\libc_nano.a(lib_a-nano-mallstatsr.o)
                                                  c:/users/spencer/appdata/local/arduino15/packages/adafruit/tools/arm-none-eabi-gcc/9-2019q4/bin/../lib/gcc/arm-none-eabi/9.2.1/../../../../arm-none-eabi/lib/thumb/v7e-m+fp/hard\libc_nano.a(lib_a-mstats.o)
                                                  c:/users/spencer/appdata/local/arduino15/packages/adafruit/tools/arm-none-eabi-gcc/9-2019q4/bin/../lib/gcc/arm-none-eabi/9.2.1/../../../../arm-none-eabi/lib/thumb/v7e-m+fp/hard\libc_nano.a(lib_a-malloc.o)
_init                                             c:/users/spencer/appdata/local/arduino15/packages/adafruit/tools/arm-none-eabi-gcc/9-2019q4/bin/../lib/gcc/arm-none-eabi/9.2.1/thumb/v7e-m+fp/hard/crti.o
                                                  c:/users/spencer/appdata/local/arduino15/packages/adafruit/tools/arm-none-eabi-gcc/9-2019q4/bin/../lib/gcc/arm-none-eabi/9.2.1/../../../../arm-none-eabi/lib/thumb/v7e-m+fp/hard\libc_nano.a(lib_a-init.o)
_iprintf_r                                        c:/users/spencer/appdata/local/arduino15/packages/adafruit/tools/arm-none-eabi-gcc/9-2019q4/bin/../lib/gcc/arm-none-eabi/9.2.1/../../../../arm-none-eabi/lib/thumb/v7e-m+fp/hard\libc_nano.a(lib_a-printf.o)
_isatty                                           c:/users/spencer/appdata/local/arduino15/packages/adafruit/tools/arm-none-eabi-gcc/9-2019q4/bin/../lib/gcc/arm-none-eabi/9.2.1/../../../../arm-none-eabi/lib/thumb/v7e-m+fp/hard\libnosys.a(isatty.o)
                                                  c:/users/spencer/appdata/local/arduino15/packages/adafruit/tools/arm-none-eabi-gcc/9-2019q4/bin/../lib/gcc/arm-none-eabi/9.2.1/../../../../arm-none-eabi/lib/thumb/v7e-m+fp/hard\libc_nano.a(lib_a-isattyr.o)
_isatty_r                                         c:/users/spencer/appdata/local/arduino15/packages/adafruit/tools/arm-none-eabi-gcc/9-2019q4/bin/../lib/gcc/arm-none-eabi/9.2.1/../../../../arm-none-eabi/lib/thumb/v7e-m+fp/hard\libc_nano.a(lib_a-isattyr.o)
                                                  c:/users/spencer/appdata/local/arduino15/packages/adafruit/tools/arm-none-eabi-gcc/9-2019q4/bin/../lib/gcc/arm-none-eabi/9.2.1/../../../../arm-none-eabi/lib/thumb/v7e-m+fp/hard\libc_nano.a(lib_a-makebuf.o)
_localeconv_r                                     c:/users/spencer/appdata/local/arduino15/packages/adafruit/tools/arm-none-eabi-gcc/9-2019q4/bin/../lib/gcc/arm-none-eabi/9.2.1/../../../../arm-none-eabi/lib/thumb/v7e-m+fp/hard\libc_nano.a(lib_a-localeconv.o)
                                                  c:/users/spencer/appdata/local/arduino15/packages/adafruit/tools/arm-none-eabi-gcc/9-2019q4/bin/../lib/gcc/arm-none-eabi/9.2.1/../../../../arm-none-eabi/lib/thumb/v7e-m+fp/hard\libc_nano.a(lib_a-nano-vfprintf_float.o)
_lseek                                            c:/users/spencer/appdata/local/arduino15/packages/adafruit/tools/arm-none-eabi-gcc/9-2019q4/bin/../lib/gcc/arm-none-eabi/9.2.1/../../../../arm-none-eabi/lib/thumb/v7e-m+fp/hard\libnosys.a(lseek.o)
                                                  c:/users/spencer/appdata/local/arduino15/packages/adafruit/tools/arm-none-eabi-gcc/9-2019q4/bin/../lib/gcc/arm-none-eabi/9.2.1/../../../../arm-none-eabi/lib/thumb/v7e-m+fp/hard\libc_nano.a(lib_a-lseekr.o)
_lseek_r                                          c:/users/spencer/appdata/local/arduino15/packages/adafruit/tools/arm-none-eabi-gcc/9-2019q4/bin/../lib/gcc/arm-none-eabi/9.2.1/../../../../arm-none-eabi/lib/thumb/v7e-m+fp/hard\libc_nano.a(lib_a-lseekr.o)
                                                  c:/users/spencer/appdata/local/arduino15/packages/adafruit/tools/arm-none-eabi-gcc/9-2019q4/bin/../lib/gcc/arm-none-eabi/9.2.1/../../../../arm-none-eabi/lib/thumb/v7e-m+fp/hard\libc_nano.a(lib_a-stdio.o)
_mainCRTStartup                                   c:/users/spencer/appdata/local/arduino15/packages/adafruit/tools/arm-none-eabi-gcc/9-2019q4/bin/../lib/gcc/arm-none-eabi/9.2.1/../../../../arm-none-eabi/lib/thumb/v7e-m+fp/hard/crt0.o
_mallinfo_r                                       c:/users/spencer/appdata/local/arduino15/packages/adafruit/tools/arm-none-eabi-gcc/9-2019q4/bin/../lib/gcc/arm-none-eabi/9.2.1/../../../../arm-none-eabi/lib/thumb/v7e-m+fp/hard\libc_nano.a(lib_a-nano-mallinfor.o)
                                                  c:/users/spencer/appdata/local/arduino15/packages/adafruit/tools/arm-none-eabi-gcc/9-2019q4/bin/../lib/gcc/arm-none-eabi/9.2.1/../../../../arm-none-eabi/lib/thumb/v7e-m+fp/hard\libc_nano.a(lib_a-nano-mallstatsr.o)
                                                  c:/users/spencer/appdata/local/arduino15/packages/adafruit/tools/arm-none-eabi-gcc/9-2019q4/bin/../lib/gcc/arm-none-eabi/9.2.1/../../../../arm-none-eabi/lib/thumb/v7e-m+fp/hard\libc_nano.a(lib_a-mstats.o)
_malloc_r                                         c:/users/spencer/appdata/local/arduino15/packages/adafruit/tools/arm-none-eabi-gcc/9-2019q4/bin/../lib/gcc/arm-none-eabi/9.2.1/../../../../arm-none-eabi/lib/thumb/v7e-m+fp/hard\libc_nano.a(lib_a-nano-mallocr.o)
                                                  c:/users/spencer/appdata/local/arduino15/packages/adafruit/tools/arm-none-eabi-gcc/9-2019q4/bin/../lib/gcc/arm-none-eabi/9.2.1/../../../../arm-none-eabi/lib/thumb/v7e-m+fp/hard\libc_nano.a(lib_a-nano-reallocr.o)
                                                  c:/users/spencer/appdata/local/arduino15/packages/adafruit/tools/arm-none-eabi-gcc/9-2019q4/bin/../lib/gcc/arm-none-eabi/9.2.1/../../../../arm-none-eabi/lib/thumb/v7e-m+fp/hard\libc_nano.a(lib_a-fvwrite.o)
                                                  c:/users/spencer/appdata/local/arduino15/packages/adafruit/tools/arm-none-eabi-gcc/9-2019q4/bin/../lib/gcc/arm-none-eabi/9.2.1/../../../../arm-none-eabi/lib/thumb/v7e-m+fp/hard\libc_nano.a(lib_a-nano-svfprintf.o)
                                                  c:/users/spencer/appdata/local/arduino15/packages/adafruit/tools/arm-none-eabi-gcc/9-2019q4/bin/../lib/gcc/arm-none-eabi/9.2.1/../../../../arm-none-eabi/lib/thumb/v7e-m+fp/hard\libc_nano.a(lib_a-nano-callocr.o)
                                                  c:/users/spencer/appdata/local/arduino15/packages/adafruit/tools/arm-none-eabi-gcc/9-2019q4/bin/../lib/gcc/arm-none-eabi/9.2.1/../../../../arm-none-eabi/lib/thumb/v7e-m+fp/hard\libc_nano.a(lib_a-makebuf.o)
                                                  c:/users/spencer/appdata/local/arduino15/packages/adafruit/tools/arm-none-eabi-gcc/9-2019q4/bin/../lib/gcc/arm-none-eabi/9.2.1/../../../../arm-none-eabi/lib/thumb/v7e-m+fp/hard\libc_nano.a(lib_a-findfp.o)
                                                  c:/users/spencer/appdata/local/arduino15/packages/adafruit/tools/arm-none-eabi-gcc/9-2019q4/bin/../lib/gcc/arm-none-eabi/9.2.1/../../../../arm-none-eabi/lib/thumb/v7e-m+fp/hard\libc_nano.a(lib_a-malloc.o)
_malloc_stats_r                                   c:/users/spencer/appdata/local/arduino15/packages/adafruit/tools/arm-none-eabi-gcc/9-2019q4/bin/../lib/gcc/arm-none-eabi/9.2.1/../../../../arm-none-eabi/lib/thumb/v7e-m+fp/hard\libc_nano.a(lib_a-nano-mallstatsr.o)
                                                  c:/users/spencer/appdata/local/arduino15/packages/adafruit/tools/arm-none-eabi-gcc/9-2019q4/bin/../lib/gcc/arm-none-eabi/9.2.1/../../../../arm-none-eabi/lib/thumb/v7e-m+fp/hard\libc_nano.a(lib_a-mstats.o)
_malloc_usable_size_r                             c:/users/spencer/appdata/local/arduino15/packages/adafruit/tools/arm-none-eabi-gcc/9-2019q4/bin/../lib/gcc/arm-none-eabi/9.2.1/../../../../arm-none-eabi/lib/thumb/v7e-m+fp/hard\libc_nano.a(lib_a-nano-msizer.o)
                                                  c:/users/spencer/appdata/local/arduino15/packages/adafruit/tools/arm-none-eabi-gcc/9-2019q4/bin/../lib/gcc/arm-none-eabi/9.2.1/../../../../arm-none-eabi/lib/thumb/v7e-m+fp/hard\libc_nano.a(lib_a-nano-reallocr.o)
_mallopt_r                                        c:/users/spencer/appdata/local/arduino15/packages/adafruit/tools/arm-none-eabi-gcc/9-2019q4/bin/../lib/gcc/arm-none-eabi/9.2.1/../../../../arm-none-eabi/lib/thumb/v7e-m+fp/hard\libc_nano.a(lib_a-nano-malloptr.o)
                                                  c:/users/spencer/appdata/local/arduino15/packages/adafruit/tools/arm-none-eabi-gcc/9-2019q4/bin/../lib/gcc/arm-none-eabi/9.2.1/../../../../arm-none-eabi/lib/thumb/v7e-m+fp/hard\libc_nano.a(lib_a-mstats.o)
_mbtowc_r                                         c:/users/spencer/appdata/local/arduino15/packages/adafruit/tools/arm-none-eabi-gcc/9-2019q4/bin/../lib/gcc/arm-none-eabi/9.2.1/../../../../arm-none-eabi/lib/thumb/v7e-m+fp/hard\libc_nano.a(lib_a-mbtowc_r.o)
_mprec_log10                                      c:/users/spencer/appdata/local/arduino15/packages/adafruit/tools/arm-none-eabi-gcc/9-2019q4/bin/../lib/gcc/arm-none-eabi/9.2.1/../../../../arm-none-eabi/lib/thumb/v7e-m+fp/hard\libc_nano.a(lib_a-mprec.o)
_mstats_r                                         c:/users/spencer/appdata/local/arduino15/packages/adafruit/tools/arm-none-eabi-gcc/9-2019q4/bin/../lib/gcc/arm-none-eabi/9.2.1/../../../../arm-none-eabi/lib/thumb/v7e-m+fp/hard\libc_nano.a(lib_a-mstats.o)
_printf_common                                    c:/users/spencer/appdata/local/arduino15/packages/adafruit/tools/arm-none-eabi-gcc/9-2019q4/bin/../lib/gcc/arm-none-eabi/9.2.1/../../../../arm-none-eabi/lib/thumb/v7e-m+fp/hard\libc_nano.a(lib_a-nano-vfprintf_i.o)
                                                  c:/users/spencer/appdata/local/arduino15/packages/adafruit/tools/arm-none-eabi-gcc/9-2019q4/bin/../lib/gcc/arm-none-eabi/9.2.1/../../../../arm-none-eabi/lib/thumb/v7e-m+fp/hard\libc_nano.a(lib_a-nano-vfprintf_float.o)
_printf_float                                     c:/users/spencer/appdata/local/arduino15/packages/adafruit/tools/arm-none-eabi-gcc/9-2019q4/bin/../lib/gcc/arm-none-eabi/9.2.1/../../../../arm-none-eabi/lib/thumb/v7e-m+fp/hard\libc_nano.a(lib_a-nano-vfprintf_float.o)
                                                  c:/users/spencer/appdata/local/arduino15/packages/adafruit/tools/arm-none-eabi-gcc/9-2019q4/bin/../lib/gcc/arm-none-eabi/9.2.1/../../../../arm-none-eabi/lib/thumb/v7e-m+fp/hard\libc_nano.a(lib_a-nano-vfprintf.o)
                                                  c:/users/spencer/appdata/local/arduino15/packages/adafruit/tools/arm-none-eabi-gcc/9-2019q4/bin/../lib/gcc/arm-none-eabi/9.2.1/../../../../arm-none-eabi/lib/thumb/v7e-m+fp/hard\libc_nano.a(lib_a-nano-svfprintf.o)
_printf_i                                         c:/users/spencer/appdata/local/arduino15/packages/adafruit/tools/arm-none-eabi-gcc/9-2019q4/bin/../lib/gcc/arm-none-eabi/9.2.1/../../../../arm-none-eabi/lib/thumb/v7e-m+fp/hard\libc_nano.a(lib_a-nano-vfprintf_i.o)
                                                  c:/users/spencer/appdata/local/arduino15/packages/adafruit/tools/arm-none-eabi-gcc/9-2019q4/bin/../lib/gcc/arm-none-eabi/9.2.1/../../../../arm-none-eabi/lib/thumb/v7e-m+fp/hard\libc_nano.a(lib_a-nano-vfprintf.o)
                                                  c:/users/spencer/appdata/local/arduino15/packages/adafruit/tools/arm-none-eabi-gcc/9-2019q4/bin/../lib/gcc/arm-none-eabi/9.2.1/../../../../arm-none-eabi/lib/thumb/v7e-m+fp/hard\libc_nano.a(lib_a-nano-svfprintf.o)
_printf_r                                         c:/users/spencer/appdata/local/arduino15/packages/adafruit/tools/arm-none-eabi-gcc/9-2019q4/bin/../lib/gcc/arm-none-eabi/9.2.1/../../../../arm-none-eabi/lib/thumb/v7e-m+fp/hard\libc_nano.a(lib_a-printf.o)
_putc_r                                           c:/users/spencer/appdata/local/arduino15/packages/adafruit/tools/arm-none-eabi-gcc/9-2019q4/bin/../lib/gcc/arm-none-eabi/9.2.1/../../../../arm-none-eabi/lib/thumb/v7e-m+fp/hard\libc_nano.a(lib_a-putc.o)
                                                  c:/users/spencer/appdata/local/arduino15/packages/adafruit/tools/arm-none-eabi-gcc/9-2019q4/bin/../lib/gcc/arm-none-eabi/9.2.1/../../../../arm-none-eabi/lib/thumb/v7e-m+fp/hard\libc_nano.a(lib_a-putchar.o)
_putchar_r                                        c:/users/spencer/appdata/local/arduino15/packages/adafruit/tools/arm-none-eabi-gcc/9-2019q4/bin/../lib/gcc/arm-none-eabi/9.2.1/../../../../arm-none-eabi/lib/thumb/v7e-m+fp/hard\libc_nano.a(lib_a-putchar.o)
_puts_r                                           c:/users/spencer/appdata/local/arduino15/packages/adafruit/tools/arm-none-eabi-gcc/9-2019q4/bin/../lib/gcc/arm-none-eabi/9.2.1/../../../../arm-none-eabi/lib/thumb/v7e-m+fp/hard\libc_nano.a(lib_a-puts.o)
_read                                             c:/users/spencer/appdata/local/arduino15/packages/adafruit/tools/arm-none-eabi-gcc/9-2019q4/bin/../lib/gcc/arm-none-eabi/9.2.1/../../../../arm-none-eabi/lib/thumb/v7e-m+fp/hard\libnosys.a(read.o)
                                                  c:/users/spencer/appdata/local/arduino15/packages/adafruit/tools/arm-none-eabi-gcc/9-2019q4/bin/../lib/gcc/arm-none-eabi/9.2.1/../../../../arm-none-eabi/lib/thumb/v7e-m+fp/hard\libc_nano.a(lib_a-readr.o)
_read_r                                           c:/users/spencer/appdata/local/arduino15/packages/adafruit/tools/arm-none-eabi-gcc/9-2019q4/bin/../lib/gcc/arm-none-eabi/9.2.1/../../../../arm-none-eabi/lib/thumb/v7e-m+fp/hard\libc_nano.a(lib_a-readr.o)
                                                  c:/users/spencer/appdata/local/arduino15/packages/adafruit/tools/arm-none-eabi-gcc/9-2019q4/bin/../lib/gcc/arm-none-eabi/9.2.1/../../../../arm-none-eabi/lib/thumb/v7e-m+fp/hard\libc_nano.a(lib_a-stdio.o)
_realloc_r                                        c:/users/spencer/appdata/local/arduino15/packages/adafruit/tools/arm-none-eabi-gcc/9-2019q4/bin/../lib/gcc/arm-none-eabi/9.2.1/../../../../arm-none-eabi/lib/thumb/v7e-m+fp/hard\libc_nano.a(lib_a-nano-reallocr.o)
                                                  c:/users/spencer/appdata/local/arduino15/packages/adafruit/tools/arm-none-eabi-gcc/9-2019q4/bin/../lib/gcc/arm-none-eabi/9.2.1/../../../../arm-none-eabi/lib/thumb/v7e-m+fp/hard\libc_nano.a(lib_a-fvwrite.o)
                                                  c:/users/spencer/appdata/local/arduino15/packages/adafruit/tools/arm-none-eabi-gcc/9-2019q4/bin/../lib/gcc/arm-none-eabi/9.2.1/../../../../arm-none-eabi/lib/thumb/v7e-m+fp/hard\libc_nano.a(lib_a-nano-svfprintf.o)
_reclaim_reent                                    c:/users/spencer/appdata/local/arduino15/packages/adafruit/tools/arm-none-eabi-gcc/9-2019q4/bin/../lib/gcc/arm-none-eabi/9.2.1/../../../../arm-none-eabi/lib/thumb/v7e-m+fp/hard\libc_nano.a(lib_a-reent.o)
_sbrk                                             c:/users/spencer/appdata/local/arduino15/packages/adafruit/tools/arm-none-eabi-gcc/9-2019q4/bin/../lib/gcc/arm-none-eabi/9.2.1/../../../../arm-none-eabi/lib/thumb/v7e-m+fp/hard\libnosys.a(sbrk.o)
                                                  c:/users/spencer/appdata/local/arduino15/packages/adafruit/tools/arm-none-eabi-gcc/9-2019q4/bin/../lib/gcc/arm-none-eabi/9.2.1/../../../../arm-none-eabi/lib/thumb/v7e-m+fp/hard\libc_nano.a(lib_a-sbrkr.o)
_sbrk_r                                           c:/users/spencer/appdata/local/arduino15/packages/adafruit/tools/arm-none-eabi-gcc/9-2019q4/bin/../lib/gcc/arm-none-eabi/9.2.1/../../../../arm-none-eabi/lib/thumb/v7e-m+fp/hard\libc_nano.a(lib_a-sbrkr.o)
                                                  c:/users/spencer/appdata/local/arduino15/packages/adafruit/tools/arm-none-eabi-gcc/9-2019q4/bin/../lib/gcc/arm-none-eabi/9.2.1/../../../../arm-none-eabi/lib/thumb/v7e-m+fp/hard\libc_nano.a(lib_a-nano-mallocr.o)
                                                  c:/users/spencer/appdata/local/arduino15/packages/adafruit/tools/arm-none-eabi-gcc/9-2019q4/bin/../lib/gcc/arm-none-eabi/9.2.1/../../../../arm-none-eabi/lib/thumb/v7e-m+fp/hard\libc_nano.a(lib_a-nano-mallinfor.o)
_setlocale_r                                      c:/users/spencer/appdata/local/arduino15/packages/adafruit/tools/arm-none-eabi-gcc/9-2019q4/bin/../lib/gcc/arm-none-eabi/9.2.1/../../../../arm-none-eabi/lib/thumb/v7e-m+fp/hard\libc_nano.a(lib_a-locale.o)
_siprintf_r                                       c:/users/spencer/appdata/local/arduino15/packages/adafruit/tools/arm-none-eabi-gcc/9-2019q4/bin/../lib/gcc/arm-none-eabi/9.2.1/../../../../arm-none-eabi/lib/thumb/v7e-m+fp/hard\libc_nano.a(lib_a-sprintf.o)
_sprintf_r                                        c:/users/spencer/appdata/local/arduino15/packages/adafruit/tools/arm-none-eabi-gcc/9-2019q4/bin/../lib/gcc/arm-none-eabi/9.2.1/../../../../arm-none-eabi/lib/thumb/v7e-m+fp/hard\libc_nano.a(lib_a-sprintf.o)
_start                                            c:/users/spencer/appdata/local/arduino15/packages/adafruit/tools/arm-none-eabi-gcc/9-2019q4/bin/../lib/gcc/arm-none-eabi/9.2.1/../../../../arm-none-eabi/lib/thumb/v7e-m+fp/hard/crt0.o
                                                  c:\Users\Spencer\Desktop\Keyboard\Firmware\BadgersRunFirmware\Build/core\core.a(gcc_startup_nrf52.S.o)
_svfiprintf_r                                     c:/users/spencer/appdata/local/arduino15/packages/adafruit/tools/arm-none-eabi-gcc/9-2019q4/bin/../lib/gcc/arm-none-eabi/9.2.1/../../../../arm-none-eabi/lib/thumb/v7e-m+fp/hard\libc_nano.a(lib_a-nano-svfprintf.o)
_svfprintf_r                                      c:/users/spencer/appdata/local/arduino15/packages/adafruit/tools/arm-none-eabi-gcc/9-2019q4/bin/../lib/gcc/arm-none-eabi/9.2.1/../../../../arm-none-eabi/lib/thumb/v7e-m+fp/hard\libc_nano.a(lib_a-nano-svfprintf.o)
                                                  c:/users/spencer/appdata/local/arduino15/packages/adafruit/tools/arm-none-eabi-gcc/9-2019q4/bin/../lib/gcc/arm-none-eabi/9.2.1/../../../../arm-none-eabi/lib/thumb/v7e-m+fp/hard\libc_nano.a(lib_a-sprintf.o)
_vfiprintf_r                                      c:/users/spencer/appdata/local/arduino15/packages/adafruit/tools/arm-none-eabi-gcc/9-2019q4/bin/../lib/gcc/arm-none-eabi/9.2.1/../../../../arm-none-eabi/lib/thumb/v7e-m+fp/hard\libc_nano.a(lib_a-nano-vfprintf.o)
_vfprintf_r                                       c:/users/spencer/appdata/local/arduino15/packages/adafruit/tools/arm-none-eabi-gcc/9-2019q4/bin/../lib/gcc/arm-none-eabi/9.2.1/../../../../arm-none-eabi/lib/thumb/v7e-m+fp/hard\libc_nano.a(lib_a-nano-vfprintf.o)
                                                  c:/users/spencer/appdata/local/arduino15/packages/adafruit/tools/arm-none-eabi-gcc/9-2019q4/bin/../lib/gcc/arm-none-eabi/9.2.1/../../../../arm-none-eabi/lib/thumb/v7e-m+fp/hard\libc_nano.a(lib_a-fprintf.o)
                                                  c:/users/spencer/appdata/local/arduino15/packages/adafruit/tools/arm-none-eabi-gcc/9-2019q4/bin/../lib/gcc/arm-none-eabi/9.2.1/../../../../arm-none-eabi/lib/thumb/v7e-m+fp/hard\libc_nano.a(lib_a-printf.o)
_wctomb_r                                         c:/users/spencer/appdata/local/arduino15/packages/adafruit/tools/arm-none-eabi-gcc/9-2019q4/bin/../lib/gcc/arm-none-eabi/9.2.1/../../../../arm-none-eabi/lib/thumb/v7e-m+fp/hard\libc_nano.a(lib_a-wctomb_r.o)
_write                                            c:\Users\Spencer\Desktop\Keyboard\Firmware\BadgersRunFirmware\Build/core\core.a(main.cpp.o)
                                                  c:/users/spencer/appdata/local/arduino15/packages/adafruit/tools/arm-none-eabi-gcc/9-2019q4/bin/../lib/gcc/arm-none-eabi/9.2.1/../../../../arm-none-eabi/lib/thumb/v7e-m+fp/hard\libc_nano.a(lib_a-writer.o)
_write_r                                          c:/users/spencer/appdata/local/arduino15/packages/adafruit/tools/arm-none-eabi-gcc/9-2019q4/bin/../lib/gcc/arm-none-eabi/9.2.1/../../../../arm-none-eabi/lib/thumb/v7e-m+fp/hard\libc_nano.a(lib_a-writer.o)
                                                  c:/users/spencer/appdata/local/arduino15/packages/adafruit/tools/arm-none-eabi-gcc/9-2019q4/bin/../lib/gcc/arm-none-eabi/9.2.1/../../../../arm-none-eabi/lib/thumb/v7e-m+fp/hard\libc_nano.a(lib_a-stdio.o)
ada_callback_init                                 c:\Users\Spencer\Desktop\Keyboard\Firmware\BadgersRunFirmware\Build/core\core.a(AdaCallback.c.o)
                                                  c:\Users\Spencer\Desktop\Keyboard\Firmware\BadgersRunFirmware\Build/core\core.a(main.cpp.o)
ada_callback_invoke                               c:\Users\Spencer\Desktop\Keyboard\Firmware\BadgersRunFirmware\Build/core\core.a(AdaCallback.c.o)
ada_callback_queue                                c:\Users\Spencer\Desktop\Keyboard\Firmware\BadgersRunFirmware\Build/core\core.a(AdaCallback.c.o)
ada_callback_queue_resize                         c:\Users\Spencer\Desktop\Keyboard\Firmware\BadgersRunFirmware\Build/core\core.a(AdaCallback.c.o)
adafruit_callback_task                            c:\Users\Spencer\Desktop\Keyboard\Firmware\BadgersRunFirmware\Build/core\core.a(AdaCallback.c.o)
atexit                                            c:/users/spencer/appdata/local/arduino15/packages/adafruit/tools/arm-none-eabi-gcc/9-2019q4/bin/../lib/gcc/arm-none-eabi/9.2.1/../../../../arm-none-eabi/lib/thumb/v7e-m+fp/hard/crt0.o
bootloaderVersion                                 c:\Users\Spencer\Desktop\Keyboard\Firmware\BadgersRunFirmware\Build/core\core.a(wiring.c.o)
cleanup_glue                                      c:/users/spencer/appdata/local/arduino15/packages/adafruit/tools/arm-none-eabi-gcc/9-2019q4/bin/../lib/gcc/arm-none-eabi/9.2.1/../../../../arm-none-eabi/lib/thumb/v7e-m+fp/hard\libc_nano.a(lib_a-reent.o)
dbgDumpMemory                                     c:\Users\Spencer\Desktop\Keyboard\Firmware\BadgersRunFirmware\Build/core\core.a(debug.cpp.o)
dbgDumpMemoryCFormat                              c:\Users\Spencer\Desktop\Keyboard\Firmware\BadgersRunFirmware\Build/core\core.a(debug.cpp.o)
dbgHeapTotal                                      c:\Users\Spencer\Desktop\Keyboard\Firmware\BadgersRunFirmware\Build/core\core.a(debug.cpp.o)
dbgHeapUsed                                       c:\Users\Spencer\Desktop\Keyboard\Firmware\BadgersRunFirmware\Build/core\core.a(debug.cpp.o)
dbgMemInfo                                        c:\Users\Spencer\Desktop\Keyboard\Firmware\BadgersRunFirmware\Build/core\core.a(debug.cpp.o)
dbgPrintVersion                                   c:\Users\Spencer\Desktop\Keyboard\Firmware\BadgersRunFirmware\Build/core\core.a(debug.cpp.o)
                                                  c:\Users\Spencer\Desktop\Keyboard\Firmware\BadgersRunFirmware\Build/core\core.a(main.cpp.o)
dbgStackTotal                                     c:\Users\Spencer\Desktop\Keyboard\Firmware\BadgersRunFirmware\Build/core\core.a(debug.cpp.o)
dbgStackUsed                                      c:\Users\Spencer\Desktop\Keyboard\Firmware\BadgersRunFirmware\Build/core\core.a(debug.cpp.o)
dbg_ble_event_str                                 c:\Users\Spencer\Desktop\Keyboard\Firmware\BadgersRunFirmware\Build/core\core.a(debug.cpp.o)
dbg_err_str                                       c:\Users\Spencer\Desktop\Keyboard\Firmware\BadgersRunFirmware\Build/core\core.a(debug.cpp.o)
                                                  c:\Users\Spencer\Desktop\Keyboard\Firmware\BadgersRunFirmware\Build/core\core.a(AdaCallback.c.o)
dbg_hci_str                                       c:\Users\Spencer\Desktop\Keyboard\Firmware\BadgersRunFirmware\Build/core\core.a(debug.cpp.o)
digitalRead                                       c:\Users\Spencer\Desktop\Keyboard\Firmware\BadgersRunFirmware\Build/core\core.a(wiring_digital.c.o)
digitalToggle                                     c:\Users\Spencer\Desktop\Keyboard\Firmware\BadgersRunFirmware\Build/core\core.a(wiring_digital.c.o)
digitalWrite                                      c:\Users\Spencer\Desktop\Keyboard\Firmware\BadgersRunFirmware\Build/core\core.a(wiring_digital.c.o)
eTaskConfirmSleepModeStatus                       c:\Users\Spencer\Desktop\Keyboard\Firmware\BadgersRunFirmware\Build/core\core.a(tasks.c.o)
                                                  c:\Users\Spencer\Desktop\Keyboard\Firmware\BadgersRunFirmware\Build/core\core.a(port_cmsis_systick.c.o)
eTaskGetState                                     c:\Users\Spencer\Desktop\Keyboard\Firmware\BadgersRunFirmware\Build/core\core.a(tasks.c.o)
end                                               c:/users/spencer/appdata/local/arduino15/packages/adafruit/tools/arm-none-eabi-gcc/9-2019q4/bin/../lib/gcc/arm-none-eabi/9.2.1/../../../../arm-none-eabi/lib/thumb/v7e-m+fp/hard\libnosys.a(sbrk.o)
enterOTADfu                                       c:\Users\Spencer\Desktop\Keyboard\Firmware\BadgersRunFirmware\Build/core\core.a(wiring.c.o)
enterSerialDfu                                    c:\Users\Spencer\Desktop\Keyboard\Firmware\BadgersRunFirmware\Build/core\core.a(wiring.c.o)
enterUf2Dfu                                       c:\Users\Spencer\Desktop\Keyboard\Firmware\BadgersRunFirmware\Build/core\core.a(wiring.c.o)
errno                                             c:/users/spencer/appdata/local/arduino15/packages/adafruit/tools/arm-none-eabi-gcc/9-2019q4/bin/../lib/gcc/arm-none-eabi/9.2.1/../../../../arm-none-eabi/lib/thumb/v7e-m+fp/hard\libc_nano.a(lib_a-reent.o)
                                                  c:/users/spencer/appdata/local/arduino15/packages/adafruit/tools/arm-none-eabi-gcc/9-2019q4/bin/../lib/gcc/arm-none-eabi/9.2.1/../../../../arm-none-eabi/lib/thumb/v7e-m+fp/hard\libnosys.a(read.o)
                                                  c:/users/spencer/appdata/local/arduino15/packages/adafruit/tools/arm-none-eabi-gcc/9-2019q4/bin/../lib/gcc/arm-none-eabi/9.2.1/../../../../arm-none-eabi/lib/thumb/v7e-m+fp/hard\libnosys.a(lseek.o)
                                                  c:/users/spencer/appdata/local/arduino15/packages/adafruit/tools/arm-none-eabi-gcc/9-2019q4/bin/../lib/gcc/arm-none-eabi/9.2.1/../../../../arm-none-eabi/lib/thumb/v7e-m+fp/hard\libnosys.a(isatty.o)
                                                  c:/users/spencer/appdata/local/arduino15/packages/adafruit/tools/arm-none-eabi-gcc/9-2019q4/bin/../lib/gcc/arm-none-eabi/9.2.1/../../../../arm-none-eabi/lib/thumb/v7e-m+fp/hard\libnosys.a(fstat.o)
                                                  c:/users/spencer/appdata/local/arduino15/packages/adafruit/tools/arm-none-eabi-gcc/9-2019q4/bin/../lib/gcc/arm-none-eabi/9.2.1/../../../../arm-none-eabi/lib/thumb/v7e-m+fp/hard\libnosys.a(close.o)
                                                  c:/users/spencer/appdata/local/arduino15/packages/adafruit/tools/arm-none-eabi-gcc/9-2019q4/bin/../lib/gcc/arm-none-eabi/9.2.1/../../../../arm-none-eabi/lib/thumb/v7e-m+fp/hard\libc_nano.a(lib_a-readr.o)
                                                  c:/users/spencer/appdata/local/arduino15/packages/adafruit/tools/arm-none-eabi-gcc/9-2019q4/bin/../lib/gcc/arm-none-eabi/9.2.1/../../../../arm-none-eabi/lib/thumb/v7e-m+fp/hard\libc_nano.a(lib_a-lseekr.o)
                                                  c:/users/spencer/appdata/local/arduino15/packages/adafruit/tools/arm-none-eabi-gcc/9-2019q4/bin/../lib/gcc/arm-none-eabi/9.2.1/../../../../arm-none-eabi/lib/thumb/v7e-m+fp/hard\libc_nano.a(lib_a-isattyr.o)
                                                  c:/users/spencer/appdata/local/arduino15/packages/adafruit/tools/arm-none-eabi-gcc/9-2019q4/bin/../lib/gcc/arm-none-eabi/9.2.1/../../../../arm-none-eabi/lib/thumb/v7e-m+fp/hard\libc_nano.a(lib_a-fstatr.o)
                                                  c:/users/spencer/appdata/local/arduino15/packages/adafruit/tools/arm-none-eabi-gcc/9-2019q4/bin/../lib/gcc/arm-none-eabi/9.2.1/../../../../arm-none-eabi/lib/thumb/v7e-m+fp/hard\libc_nano.a(lib_a-closer.o)
                                                  c:/users/spencer/appdata/local/arduino15/packages/adafruit/tools/arm-none-eabi-gcc/9-2019q4/bin/../lib/gcc/arm-none-eabi/9.2.1/../../../../arm-none-eabi/lib/thumb/v7e-m+fp/hard\libc_nano.a(lib_a-writer.o)
                                                  c:/users/spencer/appdata/local/arduino15/packages/adafruit/tools/arm-none-eabi-gcc/9-2019q4/bin/../lib/gcc/arm-none-eabi/9.2.1/../../../../arm-none-eabi/lib/thumb/v7e-m+fp/hard\libc_nano.a(lib_a-sbrkr.o)
exit                                              c:/users/spencer/appdata/local/arduino15/packages/adafruit/tools/arm-none-eabi-gcc/9-2019q4/bin/../lib/gcc/arm-none-eabi/9.2.1/../../../../arm-none-eabi/lib/thumb/v7e-m+fp/hard\libc_nano.a(lib_a-exit.o)
                                                  c:/users/spencer/appdata/local/arduino15/packages/adafruit/tools/arm-none-eabi-gcc/9-2019q4/bin/../lib/gcc/arm-none-eabi/9.2.1/../../../../arm-none-eabi/lib/thumb/v7e-m+fp/hard/crt0.o
fflush                                            c:/users/spencer/appdata/local/arduino15/packages/adafruit/tools/arm-none-eabi-gcc/9-2019q4/bin/../lib/gcc/arm-none-eabi/9.2.1/../../../../arm-none-eabi/lib/thumb/v7e-m+fp/hard\libc_nano.a(lib_a-fflush.o)
fiprintf                                          c:/users/spencer/appdata/local/arduino15/packages/adafruit/tools/arm-none-eabi-gcc/9-2019q4/bin/../lib/gcc/arm-none-eabi/9.2.1/../../../../arm-none-eabi/lib/thumb/v7e-m+fp/hard\libc_nano.a(lib_a-fprintf.o)
                                                  c:/users/spencer/appdata/local/arduino15/packages/adafruit/tools/arm-none-eabi-gcc/9-2019q4/bin/../lib/gcc/arm-none-eabi/9.2.1/../../../../arm-none-eabi/lib/thumb/v7e-m+fp/hard\libc_nano.a(lib_a-nano-mallstatsr.o)
                                                  c:/users/spencer/appdata/local/arduino15/packages/adafruit/tools/arm-none-eabi-gcc/9-2019q4/bin/../lib/gcc/arm-none-eabi/9.2.1/../../../../arm-none-eabi/lib/thumb/v7e-m+fp/hard\libc_nano.a(lib_a-mstats.o)
fprintf                                           c:/users/spencer/appdata/local/arduino15/packages/adafruit/tools/arm-none-eabi-gcc/9-2019q4/bin/../lib/gcc/arm-none-eabi/9.2.1/../../../../arm-none-eabi/lib/thumb/v7e-m+fp/hard\libc_nano.a(lib_a-fprintf.o)
free                                              c:/users/spencer/appdata/local/arduino15/packages/adafruit/tools/arm-none-eabi-gcc/9-2019q4/bin/../lib/gcc/arm-none-eabi/9.2.1/../../../../arm-none-eabi/lib/thumb/v7e-m+fp/hard\libc_nano.a(lib_a-malloc.o)
                                                  c:\Users\Spencer\Desktop\Keyboard\Firmware\BadgersRunFirmware\Build/core\core.a(AdaCallback.c.o)
                                                  c:\Users\Spencer\Desktop\Keyboard\Firmware\BadgersRunFirmware\Build/core\core.a(heap_3.c.o)
                                                  c:\Users\Spencer\Desktop\Keyboard\Firmware\BadgersRunFirmware\Build/core\core.a(debug.cpp.o)
g_ADigitalPinMap                                  c:\Users\Spencer\Desktop\Keyboard\Firmware\BadgersRunFirmware\Build\core\variant.cpp.o
                                                  c:\Users\Spencer\Desktop\Keyboard\Firmware\BadgersRunFirmware\Build/core\core.a(Uart.cpp.o)
                                                  c:\Users\Spencer\Desktop\Keyboard\Firmware\BadgersRunFirmware\Build/core\core.a(wiring.c.o)
                                                  c:\Users\Spencer\Desktop\Keyboard\Firmware\BadgersRunFirmware\Build/core\core.a(wiring_digital.c.o)
getBootloaderVersion                              c:\Users\Spencer\Desktop\Keyboard\Firmware\BadgersRunFirmware\Build/core\core.a(utilities.c.o)
                                                  c:\Users\Spencer\Desktop\Keyboard\Firmware\BadgersRunFirmware\Build/core\core.a(debug.cpp.o)
getMcuUniqueID                                    c:\Users\Spencer\Desktop\Keyboard\Firmware\BadgersRunFirmware\Build/core\core.a(utilities.c.o)
                                                  c:\Users\Spencer\Desktop\Keyboard\Firmware\BadgersRunFirmware\Build/core\core.a(debug.cpp.o)
hardware_init_hook                                c:/users/spencer/appdata/local/arduino15/packages/adafruit/tools/arm-none-eabi-gcc/9-2019q4/bin/../lib/gcc/arm-none-eabi/9.2.1/../../../../arm-none-eabi/lib/thumb/v7e-m+fp/hard/crt0.o
init                                              c:\Users\Spencer\Desktop\Keyboard\Firmware\BadgersRunFirmware\Build/core\core.a(wiring.c.o)
                                                  c:\Users\Spencer\Desktop\Keyboard\Firmware\BadgersRunFirmware\Build/core\core.a(main.cpp.o)
initVariant()                                     c:\Users\Spencer\Desktop\Keyboard\Firmware\BadgersRunFirmware\Build\core\variant.cpp.o
iprintf                                           c:/users/spencer/appdata/local/arduino15/packages/adafruit/tools/arm-none-eabi-gcc/9-2019q4/bin/../lib/gcc/arm-none-eabi/9.2.1/../../../../arm-none-eabi/lib/thumb/v7e-m+fp/hard\libc_nano.a(lib_a-printf.o)
isgraph                                           c:/users/spencer/appdata/local/arduino15/packages/adafruit/tools/arm-none-eabi-gcc/9-2019q4/bin/../lib/gcc/arm-none-eabi/9.2.1/../../../../arm-none-eabi/lib/thumb/v7e-m+fp/hard\libc_nano.a(lib_a-isprint.o)
isprint                                           c:/users/spencer/appdata/local/arduino15/packages/adafruit/tools/arm-none-eabi-gcc/9-2019q4/bin/../lib/gcc/arm-none-eabi/9.2.1/../../../../arm-none-eabi/lib/thumb/v7e-m+fp/hard\libc_nano.a(lib_a-isprint.o)
                                                  c:\Users\Spencer\Desktop\Keyboard\Firmware\BadgersRunFirmware\Build/core\core.a(debug.cpp.o)
ledOff                                            c:\Users\Spencer\Desktop\Keyboard\Firmware\BadgersRunFirmware\Build/core\core.a(wiring_digital.c.o)
                                                  c:\Users\Spencer\Desktop\Keyboard\Firmware\BadgersRunFirmware\Build\core\variant.cpp.o
ledOn                                             c:\Users\Spencer\Desktop\Keyboard\Firmware\BadgersRunFirmware\Build/core\core.a(wiring_digital.c.o)
localeconv                                        c:/users/spencer/appdata/local/arduino15/packages/adafruit/tools/arm-none-eabi-gcc/9-2019q4/bin/../lib/gcc/arm-none-eabi/9.2.1/../../../../arm-none-eabi/lib/thumb/v7e-m+fp/hard\libc_nano.a(lib_a-localeconv.o)
lookup_find                                       c:\Users\Spencer\Desktop\Keyboard\Firmware\BadgersRunFirmware\Build/core\core.a(utilities.c.o)
                                                  c:\Users\Spencer\Desktop\Keyboard\Firmware\BadgersRunFirmware\Build/core\core.a(debug.cpp.o)
loop                                              c:\Users\Spencer\Desktop\Keyboard\Firmware\BadgersRunFirmware\Build\sketch\keyboard.ino.cpp.o
                                                  c:\Users\Spencer\Desktop\Keyboard\Firmware\BadgersRunFirmware\Build/core\core.a(main.cpp.o)
main                                              c:\Users\Spencer\Desktop\Keyboard\Firmware\BadgersRunFirmware\Build/core\core.a(main.cpp.o)
                                                  c:/users/spencer/appdata/local/arduino15/packages/adafruit/tools/arm-none-eabi-gcc/9-2019q4/bin/../lib/gcc/arm-none-eabi/9.2.1/../../../../arm-none-eabi/lib/thumb/v7e-m+fp/hard/crt0.o
mallinfo                                          c:/users/spencer/appdata/local/arduino15/packages/adafruit/tools/arm-none-eabi-gcc/9-2019q4/bin/../lib/gcc/arm-none-eabi/9.2.1/../../../../arm-none-eabi/lib/thumb/v7e-m+fp/hard\libc_nano.a(lib_a-mstats.o)
                                                  c:\Users\Spencer\Desktop\Keyboard\Firmware\BadgersRunFirmware\Build/core\core.a(debug.cpp.o)
malloc                                            c:/users/spencer/appdata/local/arduino15/packages/adafruit/tools/arm-none-eabi-gcc/9-2019q4/bin/../lib/gcc/arm-none-eabi/9.2.1/../../../../arm-none-eabi/lib/thumb/v7e-m+fp/hard\libc_nano.a(lib_a-malloc.o)
                                                  c:/users/spencer/appdata/local/arduino15/packages/adafruit/tools/arm-none-eabi-gcc/9-2019q4/bin/../lib/gcc/arm-none-eabi/9.2.1/../../../../arm-none-eabi/lib/thumb/v7e-m+fp/hard\libc_nano.a(lib_a-mprec.o)
                                                  c:/users/spencer/appdata/local/arduino15/packages/adafruit/tools/arm-none-eabi-gcc/9-2019q4/bin/../lib/gcc/arm-none-eabi/9.2.1/../../../../arm-none-eabi/lib/thumb/v7e-m+fp/hard\libc_nano.a(lib_a-dtoa.o)
                                                  c:\Users\Spencer\Desktop\Keyboard\Firmware\BadgersRunFirmware\Build/core\core.a(AdaCallback.c.o)
                                                  c:\Users\Spencer\Desktop\Keyboard\Firmware\BadgersRunFirmware\Build/core\core.a(heap_3.c.o)
                                                  c:\Users\Spencer\Desktop\Keyboard\Firmware\BadgersRunFirmware\Build/core\core.a(debug.cpp.o)
malloc_stats                                      c:/users/spencer/appdata/local/arduino15/packages/adafruit/tools/arm-none-eabi-gcc/9-2019q4/bin/../lib/gcc/arm-none-eabi/9.2.1/../../../../arm-none-eabi/lib/thumb/v7e-m+fp/hard\libc_nano.a(lib_a-mstats.o)
mallopt                                           c:/users/spencer/appdata/local/arduino15/packages/adafruit/tools/arm-none-eabi-gcc/9-2019q4/bin/../lib/gcc/arm-none-eabi/9.2.1/../../../../arm-none-eabi/lib/thumb/v7e-m+fp/hard\libc_nano.a(lib_a-mstats.o)
memchr                                            c:/users/spencer/appdata/local/arduino15/packages/adafruit/tools/arm-none-eabi-gcc/9-2019q4/bin/../lib/gcc/arm-none-eabi/9.2.1/../../../../arm-none-eabi/lib/thumb/v7e-m+fp/hard\libc_nano.a(lib_a-memchr.o)
                                                  c:/users/spencer/appdata/local/arduino15/packages/adafruit/tools/arm-none-eabi-gcc/9-2019q4/bin/../lib/gcc/arm-none-eabi/9.2.1/../../../../arm-none-eabi/lib/thumb/v7e-m+fp/hard\libc_nano.a(lib_a-fvwrite.o)
                                                  c:/users/spencer/appdata/local/arduino15/packages/adafruit/tools/arm-none-eabi-gcc/9-2019q4/bin/../lib/gcc/arm-none-eabi/9.2.1/../../../../arm-none-eabi/lib/thumb/v7e-m+fp/hard\libc_nano.a(lib_a-nano-vfprintf.o)
                                                  c:/users/spencer/appdata/local/arduino15/packages/adafruit/tools/arm-none-eabi-gcc/9-2019q4/bin/../lib/gcc/arm-none-eabi/9.2.1/../../../../arm-none-eabi/lib/thumb/v7e-m+fp/hard\libc_nano.a(lib_a-nano-svfprintf.o)
                                                  c:/users/spencer/appdata/local/arduino15/packages/adafruit/tools/arm-none-eabi-gcc/9-2019q4/bin/../lib/gcc/arm-none-eabi/9.2.1/../../../../arm-none-eabi/lib/thumb/v7e-m+fp/hard\libc_nano.a(lib_a-nano-vfprintf_i.o)
memcpy                                            c:/users/spencer/appdata/local/arduino15/packages/adafruit/tools/arm-none-eabi-gcc/9-2019q4/bin/../lib/gcc/arm-none-eabi/9.2.1/../../../../arm-none-eabi/lib/thumb/v7e-m+fp/hard\libc_nano.a(lib_a-memcpy-stub.o)
                                                  c:/users/spencer/appdata/local/arduino15/packages/adafruit/tools/arm-none-eabi-gcc/9-2019q4/bin/../lib/gcc/arm-none-eabi/9.2.1/../../../../arm-none-eabi/lib/thumb/v7e-m+fp/hard\libc_nano.a(lib_a-nano-reallocr.o)
                                                  c:/users/spencer/appdata/local/arduino15/packages/adafruit/tools/arm-none-eabi-gcc/9-2019q4/bin/../lib/gcc/arm-none-eabi/9.2.1/../../../../arm-none-eabi/lib/thumb/v7e-m+fp/hard\libc_nano.a(lib_a-fvwrite.o)
                                                  c:/users/spencer/appdata/local/arduino15/packages/adafruit/tools/arm-none-eabi-gcc/9-2019q4/bin/../lib/gcc/arm-none-eabi/9.2.1/../../../../arm-none-eabi/lib/thumb/v7e-m+fp/hard\libc_nano.a(lib_a-nano-svfprintf.o)
                                                  c:/users/spencer/appdata/local/arduino15/packages/adafruit/tools/arm-none-eabi-gcc/9-2019q4/bin/../lib/gcc/arm-none-eabi/9.2.1/../../../../arm-none-eabi/lib/thumb/v7e-m+fp/hard\libc_nano.a(lib_a-mprec.o)
                                                  c:/users/spencer/appdata/local/arduino15/packages/adafruit/tools/arm-none-eabi-gcc/9-2019q4/bin/../lib/gcc/arm-none-eabi/9.2.1/../../../../arm-none-eabi/lib/thumb/v7e-m+fp/hard\libc_nano.a(lib_a-dtoa.o)
                                                  c:\Users\Spencer\Desktop\Keyboard\Firmware\BadgersRunFirmware\Build/core\core.a(queue.c.o)
                                                  c:\Users\Spencer\Desktop\Keyboard\Firmware\BadgersRunFirmware\Build/core\core.a(Uart.cpp.o)
                                                  c:\Users\Spencer\Desktop\Keyboard\Firmware\BadgersRunFirmware\Build/core\core.a(AdaCallback.c.o)
                                                  c:\Users\Spencer\Desktop\Keyboard\Firmware\BadgersRunFirmware\Build/core\core.a(debug.cpp.o)
memmove                                           c:/users/spencer/appdata/local/arduino15/packages/adafruit/tools/arm-none-eabi-gcc/9-2019q4/bin/../lib/gcc/arm-none-eabi/9.2.1/../../../../arm-none-eabi/lib/thumb/v7e-m+fp/hard\libc_nano.a(lib_a-memmove.o)
                                                  c:/users/spencer/appdata/local/arduino15/packages/adafruit/tools/arm-none-eabi-gcc/9-2019q4/bin/../lib/gcc/arm-none-eabi/9.2.1/../../../../arm-none-eabi/lib/thumb/v7e-m+fp/hard\libc_nano.a(lib_a-fvwrite.o)
                                                  c:/users/spencer/appdata/local/arduino15/packages/adafruit/tools/arm-none-eabi-gcc/9-2019q4/bin/../lib/gcc/arm-none-eabi/9.2.1/../../../../arm-none-eabi/lib/thumb/v7e-m+fp/hard\libc_nano.a(lib_a-nano-svfprintf.o)
memset                                            c:/users/spencer/appdata/local/arduino15/packages/adafruit/tools/arm-none-eabi-gcc/9-2019q4/bin/../lib/gcc/arm-none-eabi/9.2.1/../../../../arm-none-eabi/lib/thumb/v7e-m+fp/hard\libc_nano.a(lib_a-memset.o)
                                                  c:/users/spencer/appdata/local/arduino15/packages/adafruit/tools/arm-none-eabi-gcc/9-2019q4/bin/../lib/gcc/arm-none-eabi/9.2.1/../../../../arm-none-eabi/lib/thumb/v7e-m+fp/hard\libc_nano.a(lib_a-nano-callocr.o)
                                                  c:/users/spencer/appdata/local/arduino15/packages/adafruit/tools/arm-none-eabi-gcc/9-2019q4/bin/../lib/gcc/arm-none-eabi/9.2.1/../../../../arm-none-eabi/lib/thumb/v7e-m+fp/hard\libc_nano.a(lib_a-findfp.o)
                                                  c:\Users\Spencer\Desktop\Keyboard\Firmware\BadgersRunFirmware\Build/core\core.a(RingBuffer.cpp.o)
                                                  c:\Users\Spencer\Desktop\Keyboard\Firmware\BadgersRunFirmware\Build/core\core.a(tasks.c.o)
                                                  c:/users/spencer/appdata/local/arduino15/packages/adafruit/tools/arm-none-eabi-gcc/9-2019q4/bin/../lib/gcc/arm-none-eabi/9.2.1/../../../../arm-none-eabi/lib/thumb/v7e-m+fp/hard/crt0.o
mstats                                            c:/users/spencer/appdata/local/arduino15/packages/adafruit/tools/arm-none-eabi-gcc/9-2019q4/bin/../lib/gcc/arm-none-eabi/9.2.1/../../../../arm-none-eabi/lib/thumb/v7e-m+fp/hard\libc_nano.a(lib_a-mstats.o)
nrf_nvic_state                                    c:\Users\Spencer\Desktop\Keyboard\Firmware\BadgersRunFirmware\Build/core\core.a(wiring.c.o)
                                                  c:\Users\Spencer\Desktop\Keyboard\Firmware\BadgersRunFirmware\Build/core\core.a(port_cmsis_systick.c.o)
pcQueueGetName                                    c:\Users\Spencer\Desktop\Keyboard\Firmware\BadgersRunFirmware\Build/core\core.a(queue.c.o)
pcTaskGetName                                     c:\Users\Spencer\Desktop\Keyboard\Firmware\BadgersRunFirmware\Build/core\core.a(tasks.c.o)
                                                  c:\Users\Spencer\Desktop\Keyboard\Firmware\BadgersRunFirmware\Build/core\core.a(rtos.cpp.o)
pcTimerGetName                                    c:\Users\Spencer\Desktop\Keyboard\Firmware\BadgersRunFirmware\Build/core\core.a(timers.c.o)
pendSVHook                                        c:\Users\Spencer\Desktop\Keyboard\Firmware\BadgersRunFirmware\Build/core\core.a(hooks.c.o)
pinMode                                           c:\Users\Spencer\Desktop\Keyboard\Firmware\BadgersRunFirmware\Build/core\core.a(wiring_digital.c.o)
                                                  c:\Users\Spencer\Desktop\Keyboard\Firmware\BadgersRunFirmware\Build\core\variant.cpp.o
printf                                            c:/users/spencer/appdata/local/arduino15/packages/adafruit/tools/arm-none-eabi-gcc/9-2019q4/bin/../lib/gcc/arm-none-eabi/9.2.1/../../../../arm-none-eabi/lib/thumb/v7e-m+fp/hard\libc_nano.a(lib_a-printf.o)
                                                  c:\Users\Spencer\Desktop\Keyboard\Firmware\BadgersRunFirmware\Build/core\core.a(AdaCallback.c.o)
                                                  c:\Users\Spencer\Desktop\Keyboard\Firmware\BadgersRunFirmware\Build/core\core.a(debug.cpp.o)
                                                  c:\Users\Spencer\Desktop\Keyboard\Firmware\BadgersRunFirmware\Build/core\core.a(rtos.cpp.o)
putc                                              c:/users/spencer/appdata/local/arduino15/packages/adafruit/tools/arm-none-eabi-gcc/9-2019q4/bin/../lib/gcc/arm-none-eabi/9.2.1/../../../../arm-none-eabi/lib/thumb/v7e-m+fp/hard\libc_nano.a(lib_a-putc.o)
putchar                                           c:/users/spencer/appdata/local/arduino15/packages/adafruit/tools/arm-none-eabi-gcc/9-2019q4/bin/../lib/gcc/arm-none-eabi/9.2.1/../../../../arm-none-eabi/lib/thumb/v7e-m+fp/hard\libc_nano.a(lib_a-putchar.o)
                                                  c:\Users\Spencer\Desktop\Keyboard\Firmware\BadgersRunFirmware\Build/core\core.a(AdaCallback.c.o)
                                                  c:\Users\Spencer\Desktop\Keyboard\Firmware\BadgersRunFirmware\Build/core\core.a(debug.cpp.o)
                                                  c:\Users\Spencer\Desktop\Keyboard\Firmware\BadgersRunFirmware\Build/core\core.a(rtos.cpp.o)
puts                                              c:/users/spencer/appdata/local/arduino15/packages/adafruit/tools/arm-none-eabi-gcc/9-2019q4/bin/../lib/gcc/arm-none-eabi/9.2.1/../../../../arm-none-eabi/lib/thumb/v7e-m+fp/hard\libc_nano.a(lib_a-puts.o)
                                                  c:\Users\Spencer\Desktop\Keyboard\Firmware\BadgersRunFirmware\Build/core\core.a(debug.cpp.o)
pvPortMalloc                                      c:\Users\Spencer\Desktop\Keyboard\Firmware\BadgersRunFirmware\Build/core\core.a(heap_3.c.o)
                                                  c:\Users\Spencer\Desktop\Keyboard\Firmware\BadgersRunFirmware\Build/core\core.a(queue.c.o)
                                                  c:\Users\Spencer\Desktop\Keyboard\Firmware\BadgersRunFirmware\Build/core\core.a(AdaCallback.c.o)
                                                  c:\Users\Spencer\Desktop\Keyboard\Firmware\BadgersRunFirmware\Build/core\core.a(timers.c.o)
                                                  c:\Users\Spencer\Desktop\Keyboard\Firmware\BadgersRunFirmware\Build/core\core.a(tasks.c.o)
                                                  c:\Users\Spencer\Desktop\Keyboard\Firmware\BadgersRunFirmware\Build/core\core.a(debug.cpp.o)
pvTaskIncrementMutexHeldCount                     c:\Users\Spencer\Desktop\Keyboard\Firmware\BadgersRunFirmware\Build/core\core.a(tasks.c.o)
                                                  c:\Users\Spencer\Desktop\Keyboard\Firmware\BadgersRunFirmware\Build/core\core.a(queue.c.o)
pvTimerGetTimerID                                 c:\Users\Spencer\Desktop\Keyboard\Firmware\BadgersRunFirmware\Build/core\core.a(timers.c.o)
pxCurrentTCB                                      c:\Users\Spencer\Desktop\Keyboard\Firmware\BadgersRunFirmware\Build/core\core.a(tasks.c.o)
                                                  c:\Users\Spencer\Desktop\Keyboard\Firmware\BadgersRunFirmware\Build/core\core.a(port.c.o)
pxPortInitialiseStack                             c:\Users\Spencer\Desktop\Keyboard\Firmware\BadgersRunFirmware\Build/core\core.a(port_cmsis.c.o)
                                                  c:\Users\Spencer\Desktop\Keyboard\Firmware\BadgersRunFirmware\Build/core\core.a(tasks.c.o)
resumeLoop                                        c:\Users\Spencer\Desktop\Keyboard\Firmware\BadgersRunFirmware\Build/core\core.a(main.cpp.o)
serialEvent()                                     c:\Users\Spencer\Desktop\Keyboard\Firmware\BadgersRunFirmware\Build/core\core.a(Uart.cpp.o)
                                                  c:\Users\Spencer\Desktop\Keyboard\Firmware\BadgersRunFirmware\Build/core\core.a(main.cpp.o)
serialEventRun()                                  c:\Users\Spencer\Desktop\Keyboard\Firmware\BadgersRunFirmware\Build/core\core.a(Uart.cpp.o)
                                                  c:\Users\Spencer\Desktop\Keyboard\Firmware\BadgersRunFirmware\Build/core\core.a(main.cpp.o)
setlocale                                         c:/users/spencer/appdata/local/arduino15/packages/adafruit/tools/arm-none-eabi-gcc/9-2019q4/bin/../lib/gcc/arm-none-eabi/9.2.1/../../../../arm-none-eabi/lib/thumb/v7e-m+fp/hard\libc_nano.a(lib_a-locale.o)
setup                                             c:\Users\Spencer\Desktop\Keyboard\Firmware\BadgersRunFirmware\Build\sketch\keyboard.ino.cpp.o
                                                  c:\Users\Spencer\Desktop\Keyboard\Firmware\BadgersRunFirmware\Build/core\core.a(main.cpp.o)
siprintf                                          c:/users/spencer/appdata/local/arduino15/packages/adafruit/tools/arm-none-eabi-gcc/9-2019q4/bin/../lib/gcc/arm-none-eabi/9.2.1/../../../../arm-none-eabi/lib/thumb/v7e-m+fp/hard\libc_nano.a(lib_a-sprintf.o)
software_init_hook                                c:/users/spencer/appdata/local/arduino15/packages/adafruit/tools/arm-none-eabi-gcc/9-2019q4/bin/../lib/gcc/arm-none-eabi/9.2.1/../../../../arm-none-eabi/lib/thumb/v7e-m+fp/hard/crt0.o
sprintf                                           c:/users/spencer/appdata/local/arduino15/packages/adafruit/tools/arm-none-eabi-gcc/9-2019q4/bin/../lib/gcc/arm-none-eabi/9.2.1/../../../../arm-none-eabi/lib/thumb/v7e-m+fp/hard\libc_nano.a(lib_a-sprintf.o)
                                                  c:\Users\Spencer\Desktop\Keyboard\Firmware\BadgersRunFirmware\Build/core\core.a(utilities.c.o)
                                                  c:\Users\Spencer\Desktop\Keyboard\Firmware\BadgersRunFirmware\Build/core\core.a(tasks.c.o)
                                                  c:\Users\Spencer\Desktop\Keyboard\Firmware\BadgersRunFirmware\Build/core\core.a(debug.cpp.o)
stpcpy                                            c:/users/spencer/appdata/local/arduino15/packages/adafruit/tools/arm-none-eabi-gcc/9-2019q4/bin/../lib/gcc/arm-none-eabi/9.2.1/../../../../arm-none-eabi/lib/thumb/v7e-m+fp/hard\libc_nano.a(lib_a-stpcpy.o)
                                                  c:\Users\Spencer\Desktop\Keyboard\Firmware\BadgersRunFirmware\Build/core\core.a(tasks.c.o)
strcmp                                            c:/users/spencer/appdata/local/arduino15/packages/adafruit/tools/arm-none-eabi-gcc/9-2019q4/bin/../lib/gcc/arm-none-eabi/9.2.1/../../../../arm-none-eabi/lib/thumb/v7e-m+fp/hard\libc_nano.a(lib_a-strcmp.o)
                                                  c:/users/spencer/appdata/local/arduino15/packages/adafruit/tools/arm-none-eabi-gcc/9-2019q4/bin/../lib/gcc/arm-none-eabi/9.2.1/../../../../arm-none-eabi/lib/thumb/v7e-m+fp/hard\libc_nano.a(lib_a-locale.o)
strlen                                            c:/users/spencer/appdata/local/arduino15/packages/adafruit/tools/arm-none-eabi-gcc/9-2019q4/bin/../lib/gcc/arm-none-eabi/9.2.1/../../../../arm-none-eabi/lib/thumb/v7e-m+fp/hard\libc_nano.a(lib_a-strlen.o)
                                                  c:/users/spencer/appdata/local/arduino15/packages/adafruit/tools/arm-none-eabi-gcc/9-2019q4/bin/../lib/gcc/arm-none-eabi/9.2.1/../../../../arm-none-eabi/lib/thumb/v7e-m+fp/hard\libc_nano.a(lib_a-nano-vfprintf_float.o)
                                                  c:\Users\Spencer\Desktop\Keyboard\Firmware\BadgersRunFirmware\Build/core\core.a(tasks.c.o)
suspendLoop                                       c:\Users\Spencer\Desktop\Keyboard\Firmware\BadgersRunFirmware\Build/core\core.a(main.cpp.o)
svcHook                                           c:\Users\Spencer\Desktop\Keyboard\Firmware\BadgersRunFirmware\Build/core\core.a(hooks.c.o)
sysTickHook                                       c:\Users\Spencer\Desktop\Keyboard\Firmware\BadgersRunFirmware\Build/core\core.a(hooks.c.o)
systemOff                                         c:\Users\Spencer\Desktop\Keyboard\Firmware\BadgersRunFirmware\Build/core\core.a(wiring.c.o)
ucQueueGetQueueType                               c:\Users\Spencer\Desktop\Keyboard\Firmware\BadgersRunFirmware\Build/core\core.a(queue.c.o)
ulTaskNotifyTake                                  c:\Users\Spencer\Desktop\Keyboard\Firmware\BadgersRunFirmware\Build/core\core.a(tasks.c.o)
uxListRemove                                      c:\Users\Spencer\Desktop\Keyboard\Firmware\BadgersRunFirmware\Build/core\core.a(list.c.o)
                                                  c:\Users\Spencer\Desktop\Keyboard\Firmware\BadgersRunFirmware\Build/core\core.a(timers.c.o)
                                                  c:\Users\Spencer\Desktop\Keyboard\Firmware\BadgersRunFirmware\Build/core\core.a(tasks.c.o)
uxQueueGetQueueNumber                             c:\Users\Spencer\Desktop\Keyboard\Firmware\BadgersRunFirmware\Build/core\core.a(queue.c.o)
uxQueueMessagesWaiting                            c:\Users\Spencer\Desktop\Keyboard\Firmware\BadgersRunFirmware\Build/core\core.a(queue.c.o)
uxQueueMessagesWaitingFromISR                     c:\Users\Spencer\Desktop\Keyboard\Firmware\BadgersRunFirmware\Build/core\core.a(queue.c.o)
uxQueueSpacesAvailable                            c:\Users\Spencer\Desktop\Keyboard\Firmware\BadgersRunFirmware\Build/core\core.a(queue.c.o)
uxTaskGetNumberOfTasks                            c:\Users\Spencer\Desktop\Keyboard\Firmware\BadgersRunFirmware\Build/core\core.a(tasks.c.o)
                                                  c:\Users\Spencer\Desktop\Keyboard\Firmware\BadgersRunFirmware\Build/core\core.a(debug.cpp.o)
uxTaskGetStackHighWaterMark                       c:\Users\Spencer\Desktop\Keyboard\Firmware\BadgersRunFirmware\Build/core\core.a(tasks.c.o)
uxTaskGetSystemState                              c:\Users\Spencer\Desktop\Keyboard\Firmware\BadgersRunFirmware\Build/core\core.a(tasks.c.o)
uxTaskGetTaskNumber                               c:\Users\Spencer\Desktop\Keyboard\Firmware\BadgersRunFirmware\Build/core\core.a(tasks.c.o)
uxTaskPriorityGet                                 c:\Users\Spencer\Desktop\Keyboard\Firmware\BadgersRunFirmware\Build/core\core.a(tasks.c.o)
uxTaskPriorityGetFromISR                          c:\Users\Spencer\Desktop\Keyboard\Firmware\BadgersRunFirmware\Build/core\core.a(tasks.c.o)
uxTaskResetEventItemValue                         c:\Users\Spencer\Desktop\Keyboard\Firmware\BadgersRunFirmware\Build/core\core.a(tasks.c.o)
uxTimerGetTimerNumber                             c:\Users\Spencer\Desktop\Keyboard\Firmware\BadgersRunFirmware\Build/core\core.a(timers.c.o)
vApplicationGetIdleTaskMemory                     c:\Users\Spencer\Desktop\Keyboard\Firmware\BadgersRunFirmware\Build/core\core.a(rtos.cpp.o)
                                                  c:\Users\Spencer\Desktop\Keyboard\Firmware\BadgersRunFirmware\Build/core\core.a(tasks.c.o)
vApplicationGetTimerTaskMemory                    c:\Users\Spencer\Desktop\Keyboard\Firmware\BadgersRunFirmware\Build/core\core.a(rtos.cpp.o)
                                                  c:\Users\Spencer\Desktop\Keyboard\Firmware\BadgersRunFirmware\Build/core\core.a(timers.c.o)
vApplicationIdleHook                              c:\Users\Spencer\Desktop\Keyboard\Firmware\BadgersRunFirmware\Build/core\core.a(hooks.c.o)
                                                  c:\Users\Spencer\Desktop\Keyboard\Firmware\BadgersRunFirmware\Build/core\core.a(tasks.c.o)
vApplicationMallocFailedHook                      c:\Users\Spencer\Desktop\Keyboard\Firmware\BadgersRunFirmware\Build/core\core.a(rtos.cpp.o)
                                                  c:\Users\Spencer\Desktop\Keyboard\Firmware\BadgersRunFirmware\Build/core\core.a(heap_3.c.o)
vApplicationStackOverflowHook                     c:\Users\Spencer\Desktop\Keyboard\Firmware\BadgersRunFirmware\Build/core\core.a(rtos.cpp.o)
                                                  c:\Users\Spencer\Desktop\Keyboard\Firmware\BadgersRunFirmware\Build/core\core.a(tasks.c.o)
vListInitialise                                   c:\Users\Spencer\Desktop\Keyboard\Firmware\BadgersRunFirmware\Build/core\core.a(list.c.o)
                                                  c:\Users\Spencer\Desktop\Keyboard\Firmware\BadgersRunFirmware\Build/core\core.a(queue.c.o)
                                                  c:\Users\Spencer\Desktop\Keyboard\Firmware\BadgersRunFirmware\Build/core\core.a(timers.c.o)
                                                  c:\Users\Spencer\Desktop\Keyboard\Firmware\BadgersRunFirmware\Build/core\core.a(tasks.c.o)
vListInitialiseItem                               c:\Users\Spencer\Desktop\Keyboard\Firmware\BadgersRunFirmware\Build/core\core.a(list.c.o)
                                                  c:\Users\Spencer\Desktop\Keyboard\Firmware\BadgersRunFirmware\Build/core\core.a(timers.c.o)
                                                  c:\Users\Spencer\Desktop\Keyboard\Firmware\BadgersRunFirmware\Build/core\core.a(tasks.c.o)
vListInsert                                       c:\Users\Spencer\Desktop\Keyboard\Firmware\BadgersRunFirmware\Build/core\core.a(list.c.o)
                                                  c:\Users\Spencer\Desktop\Keyboard\Firmware\BadgersRunFirmware\Build/core\core.a(timers.c.o)
                                                  c:\Users\Spencer\Desktop\Keyboard\Firmware\BadgersRunFirmware\Build/core\core.a(tasks.c.o)
vListInsertEnd                                    c:\Users\Spencer\Desktop\Keyboard\Firmware\BadgersRunFirmware\Build/core\core.a(list.c.o)
                                                  c:\Users\Spencer\Desktop\Keyboard\Firmware\BadgersRunFirmware\Build/core\core.a(tasks.c.o)
vPortEndScheduler                                 c:\Users\Spencer\Desktop\Keyboard\Firmware\BadgersRunFirmware\Build/core\core.a(port_cmsis.c.o)
                                                  c:\Users\Spencer\Desktop\Keyboard\Firmware\BadgersRunFirmware\Build/core\core.a(tasks.c.o)
vPortEnterCritical                                c:\Users\Spencer\Desktop\Keyboard\Firmware\BadgersRunFirmware\Build/core\core.a(port_cmsis.c.o)
                                                  c:\Users\Spencer\Desktop\Keyboard\Firmware\BadgersRunFirmware\Build/core\core.a(queue.c.o)
                                                  c:\Users\Spencer\Desktop\Keyboard\Firmware\BadgersRunFirmware\Build/core\core.a(AdaCallback.c.o)
                                                  c:\Users\Spencer\Desktop\Keyboard\Firmware\BadgersRunFirmware\Build/core\core.a(timers.c.o)
                                                  c:\Users\Spencer\Desktop\Keyboard\Firmware\BadgersRunFirmware\Build/core\core.a(tasks.c.o)
vPortExitCritical                                 c:\Users\Spencer\Desktop\Keyboard\Firmware\BadgersRunFirmware\Build/core\core.a(port_cmsis.c.o)
                                                  c:\Users\Spencer\Desktop\Keyboard\Firmware\BadgersRunFirmware\Build/core\core.a(queue.c.o)
                                                  c:\Users\Spencer\Desktop\Keyboard\Firmware\BadgersRunFirmware\Build/core\core.a(AdaCallback.c.o)
                                                  c:\Users\Spencer\Desktop\Keyboard\Firmware\BadgersRunFirmware\Build/core\core.a(timers.c.o)
                                                  c:\Users\Spencer\Desktop\Keyboard\Firmware\BadgersRunFirmware\Build/core\core.a(tasks.c.o)
vPortFree                                         c:\Users\Spencer\Desktop\Keyboard\Firmware\BadgersRunFirmware\Build/core\core.a(heap_3.c.o)
                                                  c:\Users\Spencer\Desktop\Keyboard\Firmware\BadgersRunFirmware\Build/core\core.a(queue.c.o)
                                                  c:\Users\Spencer\Desktop\Keyboard\Firmware\BadgersRunFirmware\Build/core\core.a(AdaCallback.c.o)
                                                  c:\Users\Spencer\Desktop\Keyboard\Firmware\BadgersRunFirmware\Build/core\core.a(timers.c.o)
                                                  c:\Users\Spencer\Desktop\Keyboard\Firmware\BadgersRunFirmware\Build/core\core.a(tasks.c.o)
                                                  c:\Users\Spencer\Desktop\Keyboard\Firmware\BadgersRunFirmware\Build/core\core.a(debug.cpp.o)
vPortSetupTimerInterrupt                          c:\Users\Spencer\Desktop\Keyboard\Firmware\BadgersRunFirmware\Build/core\core.a(port_cmsis_systick.c.o)
                                                  c:\Users\Spencer\Desktop\Keyboard\Firmware\BadgersRunFirmware\Build/core\core.a(port_cmsis.c.o)
vPortStartFirstTask                               c:\Users\Spencer\Desktop\Keyboard\Firmware\BadgersRunFirmware\Build/core\core.a(port.c.o)
                                                  c:\Users\Spencer\Desktop\Keyboard\Firmware\BadgersRunFirmware\Build/core\core.a(port_cmsis.c.o)
vPortSuppressTicksAndSleep                        c:\Users\Spencer\Desktop\Keyboard\Firmware\BadgersRunFirmware\Build/core\core.a(port_cmsis_systick.c.o)
                                                  c:\Users\Spencer\Desktop\Keyboard\Firmware\BadgersRunFirmware\Build/core\core.a(tasks.c.o)
vQueueAddToRegistry                               c:\Users\Spencer\Desktop\Keyboard\Firmware\BadgersRunFirmware\Build/core\core.a(queue.c.o)
                                                  c:\Users\Spencer\Desktop\Keyboard\Firmware\BadgersRunFirmware\Build/core\core.a(timers.c.o)
vQueueDelete                                      c:\Users\Spencer\Desktop\Keyboard\Firmware\BadgersRunFirmware\Build/core\core.a(queue.c.o)
                                                  c:\Users\Spencer\Desktop\Keyboard\Firmware\BadgersRunFirmware\Build/core\core.a(Uart.cpp.o)
                                                  c:\Users\Spencer\Desktop\Keyboard\Firmware\BadgersRunFirmware\Build/core\core.a(AdaCallback.c.o)
vQueueSetQueueNumber                              c:\Users\Spencer\Desktop\Keyboard\Firmware\BadgersRunFirmware\Build/core\core.a(queue.c.o)
vQueueUnregisterQueue                             c:\Users\Spencer\Desktop\Keyboard\Firmware\BadgersRunFirmware\Build/core\core.a(queue.c.o)
vQueueWaitForMessageRestricted                    c:\Users\Spencer\Desktop\Keyboard\Firmware\BadgersRunFirmware\Build/core\core.a(queue.c.o)
                                                  c:\Users\Spencer\Desktop\Keyboard\Firmware\BadgersRunFirmware\Build/core\core.a(timers.c.o)
vTaskDelay                                        c:\Users\Spencer\Desktop\Keyboard\Firmware\BadgersRunFirmware\Build/core\core.a(tasks.c.o)
vTaskDelayUntil                                   c:\Users\Spencer\Desktop\Keyboard\Firmware\BadgersRunFirmware\Build/core\core.a(tasks.c.o)
vTaskDelete                                       c:\Users\Spencer\Desktop\Keyboard\Firmware\BadgersRunFirmware\Build/core\core.a(tasks.c.o)
vTaskEndScheduler                                 c:\Users\Spencer\Desktop\Keyboard\Firmware\BadgersRunFirmware\Build/core\core.a(tasks.c.o)
vTaskGetInfo                                      c:\Users\Spencer\Desktop\Keyboard\Firmware\BadgersRunFirmware\Build/core\core.a(tasks.c.o)
vTaskInternalSetTimeOutState                      c:\Users\Spencer\Desktop\Keyboard\Firmware\BadgersRunFirmware\Build/core\core.a(tasks.c.o)
                                                  c:\Users\Spencer\Desktop\Keyboard\Firmware\BadgersRunFirmware\Build/core\core.a(queue.c.o)
vTaskList                                         c:\Users\Spencer\Desktop\Keyboard\Firmware\BadgersRunFirmware\Build/core\core.a(tasks.c.o)
                                                  c:\Users\Spencer\Desktop\Keyboard\Firmware\BadgersRunFirmware\Build/core\core.a(debug.cpp.o)
vTaskMissedYield                                  c:\Users\Spencer\Desktop\Keyboard\Firmware\BadgersRunFirmware\Build/core\core.a(tasks.c.o)
                                                  c:\Users\Spencer\Desktop\Keyboard\Firmware\BadgersRunFirmware\Build/core\core.a(queue.c.o)
vTaskNotifyGiveFromISR                            c:\Users\Spencer\Desktop\Keyboard\Firmware\BadgersRunFirmware\Build/core\core.a(tasks.c.o)
vTaskPlaceOnEventList                             c:\Users\Spencer\Desktop\Keyboard\Firmware\BadgersRunFirmware\Build/core\core.a(tasks.c.o)
                                                  c:\Users\Spencer\Desktop\Keyboard\Firmware\BadgersRunFirmware\Build/core\core.a(queue.c.o)
vTaskPlaceOnEventListRestricted                   c:\Users\Spencer\Desktop\Keyboard\Firmware\BadgersRunFirmware\Build/core\core.a(tasks.c.o)
                                                  c:\Users\Spencer\Desktop\Keyboard\Firmware\BadgersRunFirmware\Build/core\core.a(queue.c.o)
vTaskPlaceOnUnorderedEventList                    c:\Users\Spencer\Desktop\Keyboard\Firmware\BadgersRunFirmware\Build/core\core.a(tasks.c.o)
vTaskPriorityDisinheritAfterTimeout               c:\Users\Spencer\Desktop\Keyboard\Firmware\BadgersRunFirmware\Build/core\core.a(tasks.c.o)
                                                  c:\Users\Spencer\Desktop\Keyboard\Firmware\BadgersRunFirmware\Build/core\core.a(queue.c.o)
vTaskPrioritySet                                  c:\Users\Spencer\Desktop\Keyboard\Firmware\BadgersRunFirmware\Build/core\core.a(tasks.c.o)
vTaskRemoveFromUnorderedEventList                 c:\Users\Spencer\Desktop\Keyboard\Firmware\BadgersRunFirmware\Build/core\core.a(tasks.c.o)
vTaskResume                                       c:\Users\Spencer\Desktop\Keyboard\Firmware\BadgersRunFirmware\Build/core\core.a(tasks.c.o)
                                                  c:\Users\Spencer\Desktop\Keyboard\Firmware\BadgersRunFirmware\Build/core\core.a(AdaCallback.c.o)
                                                  c:\Users\Spencer\Desktop\Keyboard\Firmware\BadgersRunFirmware\Build/core\core.a(main.cpp.o)
vTaskSetTaskNumber                                c:\Users\Spencer\Desktop\Keyboard\Firmware\BadgersRunFirmware\Build/core\core.a(tasks.c.o)
vTaskSetTimeOutState                              c:\Users\Spencer\Desktop\Keyboard\Firmware\BadgersRunFirmware\Build/core\core.a(tasks.c.o)
vTaskStartScheduler                               c:\Users\Spencer\Desktop\Keyboard\Firmware\BadgersRunFirmware\Build/core\core.a(tasks.c.o)
                                                  c:\Users\Spencer\Desktop\Keyboard\Firmware\BadgersRunFirmware\Build/core\core.a(main.cpp.o)
vTaskStepTick                                     c:\Users\Spencer\Desktop\Keyboard\Firmware\BadgersRunFirmware\Build/core\core.a(tasks.c.o)
                                                  c:\Users\Spencer\Desktop\Keyboard\Firmware\BadgersRunFirmware\Build/core\core.a(port_cmsis_systick.c.o)
vTaskSuspend                                      c:\Users\Spencer\Desktop\Keyboard\Firmware\BadgersRunFirmware\Build/core\core.a(tasks.c.o)
                                                  c:\Users\Spencer\Desktop\Keyboard\Firmware\BadgersRunFirmware\Build/core\core.a(AdaCallback.c.o)
                                                  c:\Users\Spencer\Desktop\Keyboard\Firmware\BadgersRunFirmware\Build/core\core.a(main.cpp.o)
vTaskSuspendAll                                   c:\Users\Spencer\Desktop\Keyboard\Firmware\BadgersRunFirmware\Build/core\core.a(tasks.c.o)
                                                  c:\Users\Spencer\Desktop\Keyboard\Firmware\BadgersRunFirmware\Build/core\core.a(queue.c.o)
                                                  c:\Users\Spencer\Desktop\Keyboard\Firmware\BadgersRunFirmware\Build/core\core.a(timers.c.o)
                                                  c:\Users\Spencer\Desktop\Keyboard\Firmware\BadgersRunFirmware\Build/core\core.a(heap_3.c.o)
vTaskSwitchContext                                c:\Users\Spencer\Desktop\Keyboard\Firmware\BadgersRunFirmware\Build/core\core.a(tasks.c.o)
                                                  c:\Users\Spencer\Desktop\Keyboard\Firmware\BadgersRunFirmware\Build/core\core.a(port.c.o)
vTimerSetTimerID                                  c:\Users\Spencer\Desktop\Keyboard\Firmware\BadgersRunFirmware\Build/core\core.a(timers.c.o)
vTimerSetTimerNumber                              c:\Users\Spencer\Desktop\Keyboard\Firmware\BadgersRunFirmware\Build/core\core.a(timers.c.o)
vfiprintf                                         c:/users/spencer/appdata/local/arduino15/packages/adafruit/tools/arm-none-eabi-gcc/9-2019q4/bin/../lib/gcc/arm-none-eabi/9.2.1/../../../../arm-none-eabi/lib/thumb/v7e-m+fp/hard\libc_nano.a(lib_a-nano-vfprintf.o)
vfprintf                                          c:/users/spencer/appdata/local/arduino15/packages/adafruit/tools/arm-none-eabi-gcc/9-2019q4/bin/../lib/gcc/arm-none-eabi/9.2.1/../../../../arm-none-eabi/lib/thumb/v7e-m+fp/hard\libc_nano.a(lib_a-nano-vfprintf.o)
vtable for Uart                                   c:\Users\Spencer\Desktop\Keyboard\Firmware\BadgersRunFirmware\Build/core\core.a(Uart.cpp.o)
waitForEvent                                      c:\Users\Spencer\Desktop\Keyboard\Firmware\BadgersRunFirmware\Build/core\core.a(wiring.c.o)
xPortStartScheduler                               c:\Users\Spencer\Desktop\Keyboard\Firmware\BadgersRunFirmware\Build/core\core.a(port_cmsis.c.o)
                                                  c:\Users\Spencer\Desktop\Keyboard\Firmware\BadgersRunFirmware\Build/core\core.a(tasks.c.o)
xQueueCreateCountingSemaphore                     c:\Users\Spencer\Desktop\Keyboard\Firmware\BadgersRunFirmware\Build/core\core.a(queue.c.o)
xQueueCreateCountingSemaphoreStatic               c:\Users\Spencer\Desktop\Keyboard\Firmware\BadgersRunFirmware\Build/core\core.a(queue.c.o)
xQueueCreateMutex                                 c:\Users\Spencer\Desktop\Keyboard\Firmware\BadgersRunFirmware\Build/core\core.a(queue.c.o)
                                                  c:\Users\Spencer\Desktop\Keyboard\Firmware\BadgersRunFirmware\Build/core\core.a(Uart.cpp.o)
xQueueCreateMutexStatic                           c:\Users\Spencer\Desktop\Keyboard\Firmware\BadgersRunFirmware\Build/core\core.a(queue.c.o)
xQueueGenericCreate                               c:\Users\Spencer\Desktop\Keyboard\Firmware\BadgersRunFirmware\Build/core\core.a(queue.c.o)
                                                  c:\Users\Spencer\Desktop\Keyboard\Firmware\BadgersRunFirmware\Build/core\core.a(AdaCallback.c.o)
xQueueGenericCreateStatic                         c:\Users\Spencer\Desktop\Keyboard\Firmware\BadgersRunFirmware\Build/core\core.a(queue.c.o)
                                                  c:\Users\Spencer\Desktop\Keyboard\Firmware\BadgersRunFirmware\Build/core\core.a(timers.c.o)
xQueueGenericReset                                c:\Users\Spencer\Desktop\Keyboard\Firmware\BadgersRunFirmware\Build/core\core.a(queue.c.o)
xQueueGenericSend                                 c:\Users\Spencer\Desktop\Keyboard\Firmware\BadgersRunFirmware\Build/core\core.a(queue.c.o)
                                                  c:\Users\Spencer\Desktop\Keyboard\Firmware\BadgersRunFirmware\Build/core\core.a(Uart.cpp.o)
                                                  c:\Users\Spencer\Desktop\Keyboard\Firmware\BadgersRunFirmware\Build/core\core.a(AdaCallback.c.o)
                                                  c:\Users\Spencer\Desktop\Keyboard\Firmware\BadgersRunFirmware\Build/core\core.a(timers.c.o)
xQueueGenericSendFromISR                          c:\Users\Spencer\Desktop\Keyboard\Firmware\BadgersRunFirmware\Build/core\core.a(queue.c.o)
                                                  c:\Users\Spencer\Desktop\Keyboard\Firmware\BadgersRunFirmware\Build/core\core.a(AdaCallback.c.o)
                                                  c:\Users\Spencer\Desktop\Keyboard\Firmware\BadgersRunFirmware\Build/core\core.a(timers.c.o)
xQueueGiveFromISR                                 c:\Users\Spencer\Desktop\Keyboard\Firmware\BadgersRunFirmware\Build/core\core.a(queue.c.o)
                                                  c:\Users\Spencer\Desktop\Keyboard\Firmware\BadgersRunFirmware\Build/core\core.a(Uart.cpp.o)
xQueueGiveMutexRecursive                          c:\Users\Spencer\Desktop\Keyboard\Firmware\BadgersRunFirmware\Build/core\core.a(queue.c.o)
xQueueIsQueueEmptyFromISR                         c:\Users\Spencer\Desktop\Keyboard\Firmware\BadgersRunFirmware\Build/core\core.a(queue.c.o)
xQueueIsQueueFullFromISR                          c:\Users\Spencer\Desktop\Keyboard\Firmware\BadgersRunFirmware\Build/core\core.a(queue.c.o)
xQueuePeek                                        c:\Users\Spencer\Desktop\Keyboard\Firmware\BadgersRunFirmware\Build/core\core.a(queue.c.o)
xQueuePeekFromISR                                 c:\Users\Spencer\Desktop\Keyboard\Firmware\BadgersRunFirmware\Build/core\core.a(queue.c.o)
xQueueReceive                                     c:\Users\Spencer\Desktop\Keyboard\Firmware\BadgersRunFirmware\Build/core\core.a(queue.c.o)
                                                  c:\Users\Spencer\Desktop\Keyboard\Firmware\BadgersRunFirmware\Build/core\core.a(AdaCallback.c.o)
                                                  c:\Users\Spencer\Desktop\Keyboard\Firmware\BadgersRunFirmware\Build/core\core.a(timers.c.o)
xQueueReceiveFromISR                              c:\Users\Spencer\Desktop\Keyboard\Firmware\BadgersRunFirmware\Build/core\core.a(queue.c.o)
xQueueRegistry                                    c:\Users\Spencer\Desktop\Keyboard\Firmware\BadgersRunFirmware\Build/core\core.a(queue.c.o)
xQueueSemaphoreTake                               c:\Users\Spencer\Desktop\Keyboard\Firmware\BadgersRunFirmware\Build/core\core.a(queue.c.o)
                                                  c:\Users\Spencer\Desktop\Keyboard\Firmware\BadgersRunFirmware\Build/core\core.a(Uart.cpp.o)
xQueueTakeMutexRecursive                          c:\Users\Spencer\Desktop\Keyboard\Firmware\BadgersRunFirmware\Build/core\core.a(queue.c.o)
xTaskCheckForTimeOut                              c:\Users\Spencer\Desktop\Keyboard\Firmware\BadgersRunFirmware\Build/core\core.a(tasks.c.o)
                                                  c:\Users\Spencer\Desktop\Keyboard\Firmware\BadgersRunFirmware\Build/core\core.a(queue.c.o)
xTaskCreate                                       c:\Users\Spencer\Desktop\Keyboard\Firmware\BadgersRunFirmware\Build/core\core.a(tasks.c.o)
                                                  c:\Users\Spencer\Desktop\Keyboard\Firmware\BadgersRunFirmware\Build/core\core.a(AdaCallback.c.o)
                                                  c:\Users\Spencer\Desktop\Keyboard\Firmware\BadgersRunFirmware\Build/core\core.a(rtos.cpp.o)
                                                  c:\Users\Spencer\Desktop\Keyboard\Firmware\BadgersRunFirmware\Build/core\core.a(main.cpp.o)
xTaskCreateStatic                                 c:\Users\Spencer\Desktop\Keyboard\Firmware\BadgersRunFirmware\Build/core\core.a(tasks.c.o)
                                                  c:\Users\Spencer\Desktop\Keyboard\Firmware\BadgersRunFirmware\Build/core\core.a(timers.c.o)
xTaskGenericNotify                                c:\Users\Spencer\Desktop\Keyboard\Firmware\BadgersRunFirmware\Build/core\core.a(tasks.c.o)
xTaskGenericNotifyFromISR                         c:\Users\Spencer\Desktop\Keyboard\Firmware\BadgersRunFirmware\Build/core\core.a(tasks.c.o)
xTaskGetCurrentTaskHandle                         c:\Users\Spencer\Desktop\Keyboard\Firmware\BadgersRunFirmware\Build/core\core.a(tasks.c.o)
                                                  c:\Users\Spencer\Desktop\Keyboard\Firmware\BadgersRunFirmware\Build/core\core.a(queue.c.o)
                                                  c:\Users\Spencer\Desktop\Keyboard\Firmware\BadgersRunFirmware\Build/core\core.a(rtos.cpp.o)
xTaskGetIdleTaskHandle                            c:\Users\Spencer\Desktop\Keyboard\Firmware\BadgersRunFirmware\Build/core\core.a(tasks.c.o)
xTaskGetSchedulerState                            c:\Users\Spencer\Desktop\Keyboard\Firmware\BadgersRunFirmware\Build/core\core.a(tasks.c.o)
                                                  c:\Users\Spencer\Desktop\Keyboard\Firmware\BadgersRunFirmware\Build/core\core.a(AdaCallback.c.o)
                                                  c:\Users\Spencer\Desktop\Keyboard\Firmware\BadgersRunFirmware\Build/core\core.a(port_cmsis_systick.c.o)
                                                  c:\Users\Spencer\Desktop\Keyboard\Firmware\BadgersRunFirmware\Build/core\core.a(timers.c.o)
                                                  c:\Users\Spencer\Desktop\Keyboard\Firmware\BadgersRunFirmware\Build/core\core.a(debug.cpp.o)
xTaskGetTickCount                                 c:\Users\Spencer\Desktop\Keyboard\Firmware\BadgersRunFirmware\Build/core\core.a(tasks.c.o)
                                                  c:\Users\Spencer\Desktop\Keyboard\Firmware\BadgersRunFirmware\Build/core\core.a(port_cmsis_systick.c.o)
                                                  c:\Users\Spencer\Desktop\Keyboard\Firmware\BadgersRunFirmware\Build/core\core.a(timers.c.o)
xTaskGetTickCountFromISR                          c:\Users\Spencer\Desktop\Keyboard\Firmware\BadgersRunFirmware\Build/core\core.a(tasks.c.o)
xTaskIncrementTick                                c:\Users\Spencer\Desktop\Keyboard\Firmware\BadgersRunFirmware\Build/core\core.a(tasks.c.o)
                                                  c:\Users\Spencer\Desktop\Keyboard\Firmware\BadgersRunFirmware\Build/core\core.a(port_cmsis_systick.c.o)
xTaskNotifyStateClear                             c:\Users\Spencer\Desktop\Keyboard\Firmware\BadgersRunFirmware\Build/core\core.a(tasks.c.o)
xTaskNotifyWait                                   c:\Users\Spencer\Desktop\Keyboard\Firmware\BadgersRunFirmware\Build/core\core.a(tasks.c.o)
xTaskPriorityDisinherit                           c:\Users\Spencer\Desktop\Keyboard\Firmware\BadgersRunFirmware\Build/core\core.a(tasks.c.o)
                                                  c:\Users\Spencer\Desktop\Keyboard\Firmware\BadgersRunFirmware\Build/core\core.a(queue.c.o)
xTaskPriorityInherit                              c:\Users\Spencer\Desktop\Keyboard\Firmware\BadgersRunFirmware\Build/core\core.a(tasks.c.o)
                                                  c:\Users\Spencer\Desktop\Keyboard\Firmware\BadgersRunFirmware\Build/core\core.a(queue.c.o)
xTaskRemoveFromEventList                          c:\Users\Spencer\Desktop\Keyboard\Firmware\BadgersRunFirmware\Build/core\core.a(tasks.c.o)
                                                  c:\Users\Spencer\Desktop\Keyboard\Firmware\BadgersRunFirmware\Build/core\core.a(queue.c.o)
xTaskResumeAll                                    c:\Users\Spencer\Desktop\Keyboard\Firmware\BadgersRunFirmware\Build/core\core.a(tasks.c.o)
                                                  c:\Users\Spencer\Desktop\Keyboard\Firmware\BadgersRunFirmware\Build/core\core.a(queue.c.o)
                                                  c:\Users\Spencer\Desktop\Keyboard\Firmware\BadgersRunFirmware\Build/core\core.a(timers.c.o)
                                                  c:\Users\Spencer\Desktop\Keyboard\Firmware\BadgersRunFirmware\Build/core\core.a(heap_3.c.o)
xTaskResumeFromISR                                c:\Users\Spencer\Desktop\Keyboard\Firmware\BadgersRunFirmware\Build/core\core.a(tasks.c.o)
                                                  c:\Users\Spencer\Desktop\Keyboard\Firmware\BadgersRunFirmware\Build/core\core.a(main.cpp.o)
xTimerCreate                                      c:\Users\Spencer\Desktop\Keyboard\Firmware\BadgersRunFirmware\Build/core\core.a(timers.c.o)
xTimerCreateStatic                                c:\Users\Spencer\Desktop\Keyboard\Firmware\BadgersRunFirmware\Build/core\core.a(timers.c.o)
xTimerCreateTimerTask                             c:\Users\Spencer\Desktop\Keyboard\Firmware\BadgersRunFirmware\Build/core\core.a(timers.c.o)
                                                  c:\Users\Spencer\Desktop\Keyboard\Firmware\BadgersRunFirmware\Build/core\core.a(tasks.c.o)
xTimerGenericCommand                              c:\Users\Spencer\Desktop\Keyboard\Firmware\BadgersRunFirmware\Build/core\core.a(timers.c.o)
xTimerGetExpiryTime                               c:\Users\Spencer\Desktop\Keyboard\Firmware\BadgersRunFirmware\Build/core\core.a(timers.c.o)
xTimerGetPeriod                                   c:\Users\Spencer\Desktop\Keyboard\Firmware\BadgersRunFirmware\Build/core\core.a(timers.c.o)
xTimerGetTimerDaemonTaskHandle                    c:\Users\Spencer\Desktop\Keyboard\Firmware\BadgersRunFirmware\Build/core\core.a(timers.c.o)
xTimerIsTimerActive                               c:\Users\Spencer\Desktop\Keyboard\Firmware\BadgersRunFirmware\Build/core\core.a(timers.c.o)
xTimerPendFunctionCall                            c:\Users\Spencer\Desktop\Keyboard\Firmware\BadgersRunFirmware\Build/core\core.a(timers.c.o)
xTimerPendFunctionCallFromISR                     c:\Users\Spencer\Desktop\Keyboard\Firmware\BadgersRunFirmware\Build/core\core.a(timers.c.o)
yield                                             c:\Users\Spencer\Desktop\Keyboard\Firmware\BadgersRunFirmware\Build/core\core.a(rtos.cpp.o)
                                                  c:\Users\Spencer\Desktop\Keyboard\Firmware\BadgersRunFirmware\Build/core\core.a(main.cpp.o)
